
HLC.04.elf:     file format elf32-littlearm

Sections:
Idx Name          Size      VMA       LMA       File off  Algn
  0 .isr_vector   0000010c  08000000  08000000  00010000  2**0
                  CONTENTS, ALLOC, LOAD, READONLY, DATA
  1 .text         000091ac  08000110  08000110  00010110  2**4
                  CONTENTS, ALLOC, LOAD, READONLY, CODE
  2 .rodata       00000ad0  080092bc  080092bc  000192bc  2**2
                  CONTENTS, ALLOC, LOAD, READONLY, DATA
  3 .ARM.extab    00000000  08009d8c  08009d8c  0002028c  2**0
                  CONTENTS
  4 .ARM          00000000  08009d8c  08009d8c  0002028c  2**0
                  CONTENTS
  5 .preinit_array 00000000  08009d8c  08009d8c  0002028c  2**0
                  CONTENTS, ALLOC, LOAD, DATA
  6 .init_array   00000004  08009d8c  08009d8c  00019d8c  2**2
                  CONTENTS, ALLOC, LOAD, DATA
  7 .fini_array   00000004  08009d90  08009d90  00019d90  2**2
                  CONTENTS, ALLOC, LOAD, DATA
  8 .data         0000028c  20000000  08009d94  00020000  2**2
                  CONTENTS, ALLOC, LOAD, DATA
  9 .bss          00002bf8  2000028c  0800a020  0002028c  2**2
                  ALLOC
 10 ._user_heap_stack 00000604  20002e84  0800a020  00022e84  2**0
                  ALLOC
 11 .ARM.attributes 00000029  00000000  00000000  0002028c  2**0
                  CONTENTS, READONLY
 12 .comment      00000050  00000000  00000000  000202b5  2**0
                  CONTENTS, READONLY
 13 .debug_frame  00000f4c  00000000  00000000  00020308  2**2
                  CONTENTS, READONLY, DEBUGGING, OCTETS

Disassembly of section .text:

08000110 <__do_global_dtors_aux>:
 8000110:	b510      	push	{r4, lr}
 8000112:	4c05      	ldr	r4, [pc, #20]	; (8000128 <__do_global_dtors_aux+0x18>)
 8000114:	7823      	ldrb	r3, [r4, #0]
 8000116:	b933      	cbnz	r3, 8000126 <__do_global_dtors_aux+0x16>
 8000118:	4b04      	ldr	r3, [pc, #16]	; (800012c <__do_global_dtors_aux+0x1c>)
 800011a:	b113      	cbz	r3, 8000122 <__do_global_dtors_aux+0x12>
 800011c:	4804      	ldr	r0, [pc, #16]	; (8000130 <__do_global_dtors_aux+0x20>)
 800011e:	f3af 8000 	nop.w
 8000122:	2301      	movs	r3, #1
 8000124:	7023      	strb	r3, [r4, #0]
 8000126:	bd10      	pop	{r4, pc}
 8000128:	2000028c 	.word	0x2000028c
 800012c:	00000000 	.word	0x00000000
 8000130:	080092a4 	.word	0x080092a4

08000134 <frame_dummy>:
 8000134:	b508      	push	{r3, lr}
 8000136:	4b03      	ldr	r3, [pc, #12]	; (8000144 <frame_dummy+0x10>)
 8000138:	b11b      	cbz	r3, 8000142 <frame_dummy+0xe>
 800013a:	4903      	ldr	r1, [pc, #12]	; (8000148 <frame_dummy+0x14>)
 800013c:	4803      	ldr	r0, [pc, #12]	; (800014c <frame_dummy+0x18>)
 800013e:	f3af 8000 	nop.w
 8000142:	bd08      	pop	{r3, pc}
 8000144:	00000000 	.word	0x00000000
 8000148:	20000290 	.word	0x20000290
 800014c:	080092a4 	.word	0x080092a4

08000150 <strcmp>:
 8000150:	f810 2b01 	ldrb.w	r2, [r0], #1
 8000154:	f811 3b01 	ldrb.w	r3, [r1], #1
 8000158:	2a01      	cmp	r2, #1
 800015a:	bf28      	it	cs
 800015c:	429a      	cmpcs	r2, r3
 800015e:	d0f7      	beq.n	8000150 <strcmp>
 8000160:	1ad0      	subs	r0, r2, r3
 8000162:	4770      	bx	lr

08000164 <strlen>:
 8000164:	4603      	mov	r3, r0
 8000166:	f813 2b01 	ldrb.w	r2, [r3], #1
 800016a:	2a00      	cmp	r2, #0
 800016c:	d1fb      	bne.n	8000166 <strlen+0x2>
 800016e:	1a18      	subs	r0, r3, r0
 8000170:	3801      	subs	r0, #1
 8000172:	4770      	bx	lr

08000174 <StartDefaultTask>:
 8000174:	b508      	push	{r3, lr}
 8000176:	f005 fab1 	bl	80056dc <MX_USB_DEVICE_Init>
 800017a:	2000      	movs	r0, #0
 800017c:	f007 f914 	bl	80073a8 <LedsWalk>
 8000180:	f005 fe94 	bl	8005eac <loadFromFlash>
 8000184:	f006 fa8e 	bl	80066a4 <consInit>
 8000188:	f007 f89e 	bl	80072c8 <initIO>
 800018c:	4c08      	ldr	r4, [pc, #32]	; (80001b0 <StartDefaultTask+0x3c>)
 800018e:	f44f 7100 	mov.w	r1, #512	; 0x200
 8000192:	4620      	mov	r0, r4
 8000194:	f000 fc6f 	bl	8000a76 <HAL_GPIO_TogglePin>
 8000198:	2001      	movs	r0, #1
 800019a:	f003 fe95 	bl	8003ec8 <osDelay>
 800019e:	4620      	mov	r0, r4
 80001a0:	f44f 7100 	mov.w	r1, #512	; 0x200
 80001a4:	f000 fc67 	bl	8000a76 <HAL_GPIO_TogglePin>
 80001a8:	2005      	movs	r0, #5
 80001aa:	f003 fe8d 	bl	8003ec8 <osDelay>
 80001ae:	e7ee      	b.n	800018e <StartDefaultTask+0x1a>
 80001b0:	40010800 	.word	0x40010800

080001b4 <StartMyBtnTask>:
 80001b4:	b538      	push	{r3, r4, r5, lr}
 80001b6:	4d11      	ldr	r5, [pc, #68]	; (80001fc <StartMyBtnTask+0x48>)
 80001b8:	4c11      	ldr	r4, [pc, #68]	; (8000200 <StartMyBtnTask+0x4c>)
 80001ba:	f44f 6100 	mov.w	r1, #2048	; 0x800
 80001be:	4628      	mov	r0, r5
 80001c0:	f000 fc4e 	bl	8000a60 <HAL_GPIO_ReadPin>
 80001c4:	4b0f      	ldr	r3, [pc, #60]	; (8000204 <StartMyBtnTask+0x50>)
 80001c6:	f000 0001 	and.w	r0, r0, #1
 80001ca:	881a      	ldrh	r2, [r3, #0]
 80001cc:	ea40 0042 	orr.w	r0, r0, r2, lsl #1
 80001d0:	b280      	uxth	r0, r0
 80001d2:	28ff      	cmp	r0, #255	; 0xff
 80001d4:	8018      	strh	r0, [r3, #0]
 80001d6:	d10d      	bne.n	80001f4 <StartMyBtnTask+0x40>
 80001d8:	8823      	ldrh	r3, [r4, #0]
 80001da:	2b01      	cmp	r3, #1
 80001dc:	d104      	bne.n	80001e8 <StartMyBtnTask+0x34>
 80001de:	2000      	movs	r0, #0
 80001e0:	f007 f8e2 	bl	80073a8 <LedsWalk>
 80001e4:	f006 feda 	bl	8006f9c <firstEnableOutputs>
 80001e8:	2300      	movs	r3, #0
 80001ea:	8023      	strh	r3, [r4, #0]
 80001ec:	2005      	movs	r0, #5
 80001ee:	f003 fe6b 	bl	8003ec8 <osDelay>
 80001f2:	e7e2      	b.n	80001ba <StartMyBtnTask+0x6>
 80001f4:	2800      	cmp	r0, #0
 80001f6:	d1f9      	bne.n	80001ec <StartMyBtnTask+0x38>
 80001f8:	2301      	movs	r3, #1
 80001fa:	e7f6      	b.n	80001ea <StartMyBtnTask+0x36>
 80001fc:	40010c00 	.word	0x40010c00
 8000200:	200002aa 	.word	0x200002aa
 8000204:	200002a8 	.word	0x200002a8

08000208 <MX_FREERTOS_Init>:
 8000208:	b508      	push	{r3, lr}
 800020a:	2100      	movs	r1, #0
 800020c:	4a06      	ldr	r2, [pc, #24]	; (8000228 <MX_FREERTOS_Init+0x20>)
 800020e:	4807      	ldr	r0, [pc, #28]	; (800022c <MX_FREERTOS_Init+0x24>)
 8000210:	f003 fdfe 	bl	8003e10 <osThreadNew>
 8000214:	4b06      	ldr	r3, [pc, #24]	; (8000230 <MX_FREERTOS_Init+0x28>)
 8000216:	2100      	movs	r1, #0
 8000218:	6018      	str	r0, [r3, #0]
 800021a:	4a06      	ldr	r2, [pc, #24]	; (8000234 <MX_FREERTOS_Init+0x2c>)
 800021c:	4806      	ldr	r0, [pc, #24]	; (8000238 <MX_FREERTOS_Init+0x30>)
 800021e:	f003 fdf7 	bl	8003e10 <osThreadNew>
 8000222:	4b06      	ldr	r3, [pc, #24]	; (800023c <MX_FREERTOS_Init+0x34>)
 8000224:	6018      	str	r0, [r3, #0]
 8000226:	bd08      	pop	{r3, pc}
 8000228:	080092e0 	.word	0x080092e0
 800022c:	08000175 	.word	0x08000175
 8000230:	20000508 	.word	0x20000508
 8000234:	08009304 	.word	0x08009304
 8000238:	080001b5 	.word	0x080001b5
 800023c:	2000050c 	.word	0x2000050c

08000240 <MX_GPIO_Init>:
 8000240:	2210      	movs	r2, #16
 8000242:	e92d 41f0 	stmdb	sp!, {r4, r5, r6, r7, r8, lr}
 8000246:	b088      	sub	sp, #32
 8000248:	eb0d 0002 	add.w	r0, sp, r2
 800024c:	2100      	movs	r1, #0
 800024e:	f007 f90b 	bl	8007468 <memset>
 8000252:	4b27      	ldr	r3, [pc, #156]	; (80002f0 <MX_GPIO_Init+0xb0>)
 8000254:	f8df 809c 	ldr.w	r8, [pc, #156]	; 80002f4 <MX_GPIO_Init+0xb4>
 8000258:	699a      	ldr	r2, [r3, #24]
 800025a:	4d27      	ldr	r5, [pc, #156]	; (80002f8 <MX_GPIO_Init+0xb8>)
 800025c:	f042 0220 	orr.w	r2, r2, #32
 8000260:	619a      	str	r2, [r3, #24]
 8000262:	699a      	ldr	r2, [r3, #24]
 8000264:	4640      	mov	r0, r8
 8000266:	f002 0220 	and.w	r2, r2, #32
 800026a:	9201      	str	r2, [sp, #4]
 800026c:	9a01      	ldr	r2, [sp, #4]
 800026e:	699a      	ldr	r2, [r3, #24]
 8000270:	f44f 61e2 	mov.w	r1, #1808	; 0x710
 8000274:	f042 0204 	orr.w	r2, r2, #4
 8000278:	619a      	str	r2, [r3, #24]
 800027a:	699a      	ldr	r2, [r3, #24]
 800027c:	2400      	movs	r4, #0
 800027e:	f002 0204 	and.w	r2, r2, #4
 8000282:	9202      	str	r2, [sp, #8]
 8000284:	9a02      	ldr	r2, [sp, #8]
 8000286:	699a      	ldr	r2, [r3, #24]
 8000288:	2701      	movs	r7, #1
 800028a:	f042 0208 	orr.w	r2, r2, #8
 800028e:	619a      	str	r2, [r3, #24]
 8000290:	699b      	ldr	r3, [r3, #24]
 8000292:	2200      	movs	r2, #0
 8000294:	f003 0308 	and.w	r3, r3, #8
 8000298:	9303      	str	r3, [sp, #12]
 800029a:	9b03      	ldr	r3, [sp, #12]
 800029c:	f000 fbe6 	bl	8000a6c <HAL_GPIO_WritePin>
 80002a0:	2200      	movs	r2, #0
 80002a2:	4628      	mov	r0, r5
 80002a4:	f241 0101 	movw	r1, #4097	; 0x1001
 80002a8:	f000 fbe0 	bl	8000a6c <HAL_GPIO_WritePin>
 80002ac:	2602      	movs	r6, #2
 80002ae:	f44f 63e2 	mov.w	r3, #1808	; 0x710
 80002b2:	4640      	mov	r0, r8
 80002b4:	a904      	add	r1, sp, #16
 80002b6:	e9cd 3704 	strd	r3, r7, [sp, #16]
 80002ba:	e9cd 4606 	strd	r4, r6, [sp, #24]
 80002be:	f000 faf5 	bl	80008ac <HAL_GPIO_Init>
 80002c2:	f241 0301 	movw	r3, #4097	; 0x1001
 80002c6:	4628      	mov	r0, r5
 80002c8:	a904      	add	r1, sp, #16
 80002ca:	e9cd 3704 	strd	r3, r7, [sp, #16]
 80002ce:	e9cd 4606 	strd	r4, r6, [sp, #24]
 80002d2:	f000 faeb 	bl	80008ac <HAL_GPIO_Init>
 80002d6:	f44f 6300 	mov.w	r3, #2048	; 0x800
 80002da:	4628      	mov	r0, r5
 80002dc:	a904      	add	r1, sp, #16
 80002de:	e9cd 3404 	strd	r3, r4, [sp, #16]
 80002e2:	9406      	str	r4, [sp, #24]
 80002e4:	f000 fae2 	bl	80008ac <HAL_GPIO_Init>
 80002e8:	b008      	add	sp, #32
 80002ea:	e8bd 81f0 	ldmia.w	sp!, {r4, r5, r6, r7, r8, pc}
 80002ee:	bf00      	nop
 80002f0:	40021000 	.word	0x40021000
 80002f4:	40010800 	.word	0x40010800
 80002f8:	40010c00 	.word	0x40010c00

080002fc <HAL_TIM_PeriodElapsedCallback>:
 80002fc:	6802      	ldr	r2, [r0, #0]
 80002fe:	4b03      	ldr	r3, [pc, #12]	; (800030c <HAL_TIM_PeriodElapsedCallback+0x10>)
 8000300:	429a      	cmp	r2, r3
 8000302:	d101      	bne.n	8000308 <HAL_TIM_PeriodElapsedCallback+0xc>
 8000304:	f000 ba5c 	b.w	80007c0 <HAL_IncTick>
 8000308:	4770      	bx	lr
 800030a:	bf00      	nop
 800030c:	40000800 	.word	0x40000800

08000310 <Error_Handler>:
 8000310:	b508      	push	{r3, lr}
 8000312:	b672      	cpsid	i
 8000314:	4c09      	ldr	r4, [pc, #36]	; (800033c <Error_Handler+0x2c>)
 8000316:	f44f 6180 	mov.w	r1, #1024	; 0x400
 800031a:	4620      	mov	r0, r4
 800031c:	f000 fbab 	bl	8000a76 <HAL_GPIO_TogglePin>
 8000320:	2064      	movs	r0, #100	; 0x64
 8000322:	f003 fdd1 	bl	8003ec8 <osDelay>
 8000326:	4620      	mov	r0, r4
 8000328:	f44f 6180 	mov.w	r1, #1024	; 0x400
 800032c:	f000 fba3 	bl	8000a76 <HAL_GPIO_TogglePin>
 8000330:	f44f 70fa 	mov.w	r0, #500	; 0x1f4
 8000334:	f003 fdc8 	bl	8003ec8 <osDelay>
 8000338:	e7ed      	b.n	8000316 <Error_Handler+0x6>
 800033a:	bf00      	nop
 800033c:	40010800 	.word	0x40010800

08000340 <SystemClock_Config>:
 8000340:	b530      	push	{r4, r5, lr}
 8000342:	b095      	sub	sp, #84	; 0x54
 8000344:	2210      	movs	r2, #16
 8000346:	2100      	movs	r1, #0
 8000348:	a80c      	add	r0, sp, #48	; 0x30
 800034a:	f007 f88d 	bl	8007468 <memset>
 800034e:	2214      	movs	r2, #20
 8000350:	2100      	movs	r1, #0
 8000352:	eb0d 0002 	add.w	r0, sp, r2
 8000356:	f007 f887 	bl	8007468 <memset>
 800035a:	2100      	movs	r1, #0
 800035c:	2210      	movs	r2, #16
 800035e:	a801      	add	r0, sp, #4
 8000360:	f007 f882 	bl	8007468 <memset>
 8000364:	2502      	movs	r5, #2
 8000366:	f44f 3380 	mov.w	r3, #65536	; 0x10000
 800036a:	2109      	movs	r1, #9
 800036c:	2401      	movs	r4, #1
 800036e:	e9cd 130a 	strd	r1, r3, [sp, #40]	; 0x28
 8000372:	e9cd 5311 	strd	r5, r3, [sp, #68]	; 0x44
 8000376:	f44f 1380 	mov.w	r3, #1048576	; 0x100000
 800037a:	a80a      	add	r0, sp, #40	; 0x28
 800037c:	940e      	str	r4, [sp, #56]	; 0x38
 800037e:	9410      	str	r4, [sp, #64]	; 0x40
 8000380:	9313      	str	r3, [sp, #76]	; 0x4c
 8000382:	f001 f9f1 	bl	8001768 <HAL_RCC_OscConfig>
 8000386:	b108      	cbz	r0, 800038c <SystemClock_Config+0x4c>
 8000388:	f7ff ffc2 	bl	8000310 <Error_Handler>
 800038c:	230f      	movs	r3, #15
 800038e:	e9cd 3505 	strd	r3, r5, [sp, #20]
 8000392:	2390      	movs	r3, #144	; 0x90
 8000394:	9009      	str	r0, [sp, #36]	; 0x24
 8000396:	e9cd 3007 	strd	r3, r0, [sp, #28]
 800039a:	4621      	mov	r1, r4
 800039c:	a805      	add	r0, sp, #20
 800039e:	f001 fbb9 	bl	8001b14 <HAL_RCC_ClockConfig>
 80003a2:	2800      	cmp	r0, #0
 80003a4:	d1f0      	bne.n	8000388 <SystemClock_Config+0x48>
 80003a6:	f44f 7300 	mov.w	r3, #512	; 0x200
 80003aa:	2211      	movs	r2, #17
 80003ac:	e9cd 2301 	strd	r2, r3, [sp, #4]
 80003b0:	f44f 0380 	mov.w	r3, #4194304	; 0x400000
 80003b4:	a801      	add	r0, sp, #4
 80003b6:	9304      	str	r3, [sp, #16]
 80003b8:	f001 fc86 	bl	8001cc8 <HAL_RCCEx_PeriphCLKConfig>
 80003bc:	2800      	cmp	r0, #0
 80003be:	d1e3      	bne.n	8000388 <SystemClock_Config+0x48>
 80003c0:	b015      	add	sp, #84	; 0x54
 80003c2:	bd30      	pop	{r4, r5, pc}

080003c4 <main>:
 80003c4:	b508      	push	{r3, lr}
 80003c6:	f000 f9e9 	bl	800079c <HAL_Init>
 80003ca:	f7ff ffb9 	bl	8000340 <SystemClock_Config>
 80003ce:	f7ff ff37 	bl	8000240 <MX_GPIO_Init>
 80003d2:	f000 f861 	bl	8000498 <MX_SPI2_Init>
 80003d6:	f000 f83d 	bl	8000454 <MX_SPI1_Init>
 80003da:	f000 f807 	bl	80003ec <MX_RTC_Init>
 80003de:	f003 fcdb 	bl	8003d98 <osKernelInitialize>
 80003e2:	f7ff ff11 	bl	8000208 <MX_FREERTOS_Init>
 80003e6:	f003 fcf3 	bl	8003dd0 <osKernelStart>
 80003ea:	e7fe      	b.n	80003ea <main+0x26>

080003ec <MX_RTC_Init>:
 80003ec:	b508      	push	{r3, lr}
 80003ee:	f04f 33ff 	mov.w	r3, #4294967295
 80003f2:	4807      	ldr	r0, [pc, #28]	; (8000410 <MX_RTC_Init+0x24>)
 80003f4:	4a07      	ldr	r2, [pc, #28]	; (8000414 <MX_RTC_Init+0x28>)
 80003f6:	e9c0 2300 	strd	r2, r3, [r0]
 80003fa:	f44f 7380 	mov.w	r3, #256	; 0x100
 80003fe:	6083      	str	r3, [r0, #8]
 8000400:	f001 fd98 	bl	8001f34 <HAL_RTC_Init>
 8000404:	b118      	cbz	r0, 800040e <MX_RTC_Init+0x22>
 8000406:	e8bd 4008 	ldmia.w	sp!, {r3, lr}
 800040a:	f7ff bf81 	b.w	8000310 <Error_Handler>
 800040e:	bd08      	pop	{r3, pc}
 8000410:	2000066c 	.word	0x2000066c
 8000414:	40002800 	.word	0x40002800

08000418 <HAL_RTC_MspInit>:
 8000418:	b507      	push	{r0, r1, r2, lr}
 800041a:	4b0b      	ldr	r3, [pc, #44]	; (8000448 <HAL_RTC_MspInit+0x30>)
 800041c:	6802      	ldr	r2, [r0, #0]
 800041e:	429a      	cmp	r2, r3
 8000420:	d10f      	bne.n	8000442 <HAL_RTC_MspInit+0x2a>
 8000422:	f001 f99b 	bl	800175c <HAL_PWR_EnableBkUpAccess>
 8000426:	4b09      	ldr	r3, [pc, #36]	; (800044c <HAL_RTC_MspInit+0x34>)
 8000428:	69da      	ldr	r2, [r3, #28]
 800042a:	f042 6200 	orr.w	r2, r2, #134217728	; 0x8000000
 800042e:	61da      	str	r2, [r3, #28]
 8000430:	2201      	movs	r2, #1
 8000432:	69db      	ldr	r3, [r3, #28]
 8000434:	f003 6300 	and.w	r3, r3, #134217728	; 0x8000000
 8000438:	9301      	str	r3, [sp, #4]
 800043a:	9b01      	ldr	r3, [sp, #4]
 800043c:	4b04      	ldr	r3, [pc, #16]	; (8000450 <HAL_RTC_MspInit+0x38>)
 800043e:	f8c3 243c 	str.w	r2, [r3, #1084]	; 0x43c
 8000442:	b003      	add	sp, #12
 8000444:	f85d fb04 	ldr.w	pc, [sp], #4
 8000448:	40002800 	.word	0x40002800
 800044c:	40021000 	.word	0x40021000
 8000450:	42420000 	.word	0x42420000

08000454 <MX_SPI1_Init>:
 8000454:	b508      	push	{r3, lr}
 8000456:	f44f 7382 	mov.w	r3, #260	; 0x104
 800045a:	480d      	ldr	r0, [pc, #52]	; (8000490 <MX_SPI1_Init+0x3c>)
 800045c:	4a0d      	ldr	r2, [pc, #52]	; (8000494 <MX_SPI1_Init+0x40>)
 800045e:	e9c0 2300 	strd	r2, r3, [r0]
 8000462:	2300      	movs	r3, #0
 8000464:	f44f 7200 	mov.w	r2, #512	; 0x200
 8000468:	e9c0 3302 	strd	r3, r3, [r0, #8]
 800046c:	e9c0 3304 	strd	r3, r3, [r0, #16]
 8000470:	e9c0 2306 	strd	r2, r3, [r0, #24]
 8000474:	e9c0 3308 	strd	r3, r3, [r0, #32]
 8000478:	6283      	str	r3, [r0, #40]	; 0x28
 800047a:	230a      	movs	r3, #10
 800047c:	62c3      	str	r3, [r0, #44]	; 0x2c
 800047e:	f001 fe32 	bl	80020e6 <HAL_SPI_Init>
 8000482:	b118      	cbz	r0, 800048c <MX_SPI1_Init+0x38>
 8000484:	e8bd 4008 	ldmia.w	sp!, {r3, lr}
 8000488:	f7ff bf42 	b.w	8000310 <Error_Handler>
 800048c:	bd08      	pop	{r3, pc}
 800048e:	bf00      	nop
 8000490:	20000680 	.word	0x20000680
 8000494:	40013000 	.word	0x40013000

08000498 <MX_SPI2_Init>:
 8000498:	b508      	push	{r3, lr}
 800049a:	f44f 7382 	mov.w	r3, #260	; 0x104
 800049e:	480d      	ldr	r0, [pc, #52]	; (80004d4 <MX_SPI2_Init+0x3c>)
 80004a0:	4a0d      	ldr	r2, [pc, #52]	; (80004d8 <MX_SPI2_Init+0x40>)
 80004a2:	f44f 7100 	mov.w	r1, #512	; 0x200
 80004a6:	e9c0 2300 	strd	r2, r3, [r0]
 80004aa:	2300      	movs	r3, #0
 80004ac:	2210      	movs	r2, #16
 80004ae:	e9c0 3302 	strd	r3, r3, [r0, #8]
 80004b2:	e9c0 3304 	strd	r3, r3, [r0, #16]
 80004b6:	e9c0 3308 	strd	r3, r3, [r0, #32]
 80004ba:	6283      	str	r3, [r0, #40]	; 0x28
 80004bc:	230a      	movs	r3, #10
 80004be:	e9c0 1206 	strd	r1, r2, [r0, #24]
 80004c2:	62c3      	str	r3, [r0, #44]	; 0x2c
 80004c4:	f001 fe0f 	bl	80020e6 <HAL_SPI_Init>
 80004c8:	b118      	cbz	r0, 80004d2 <MX_SPI2_Init+0x3a>
 80004ca:	e8bd 4008 	ldmia.w	sp!, {r3, lr}
 80004ce:	f7ff bf1f 	b.w	8000310 <Error_Handler>
 80004d2:	bd08      	pop	{r3, pc}
 80004d4:	200006d8 	.word	0x200006d8
 80004d8:	40003800 	.word	0x40003800

080004dc <HAL_SPI_MspInit>:
 80004dc:	2210      	movs	r2, #16
 80004de:	b510      	push	{r4, lr}
 80004e0:	4604      	mov	r4, r0
 80004e2:	b088      	sub	sp, #32
 80004e4:	eb0d 0002 	add.w	r0, sp, r2
 80004e8:	2100      	movs	r1, #0
 80004ea:	f006 ffbd 	bl	8007468 <memset>
 80004ee:	6823      	ldr	r3, [r4, #0]
 80004f0:	4a2a      	ldr	r2, [pc, #168]	; (800059c <HAL_SPI_MspInit+0xc0>)
 80004f2:	4293      	cmp	r3, r2
 80004f4:	d127      	bne.n	8000546 <HAL_SPI_MspInit+0x6a>
 80004f6:	4b2a      	ldr	r3, [pc, #168]	; (80005a0 <HAL_SPI_MspInit+0xc4>)
 80004f8:	20a0      	movs	r0, #160	; 0xa0
 80004fa:	699a      	ldr	r2, [r3, #24]
 80004fc:	a904      	add	r1, sp, #16
 80004fe:	f442 5280 	orr.w	r2, r2, #4096	; 0x1000
 8000502:	619a      	str	r2, [r3, #24]
 8000504:	699a      	ldr	r2, [r3, #24]
 8000506:	2440      	movs	r4, #64	; 0x40
 8000508:	f402 5280 	and.w	r2, r2, #4096	; 0x1000
 800050c:	9200      	str	r2, [sp, #0]
 800050e:	9a00      	ldr	r2, [sp, #0]
 8000510:	699a      	ldr	r2, [r3, #24]
 8000512:	f042 0204 	orr.w	r2, r2, #4
 8000516:	619a      	str	r2, [r3, #24]
 8000518:	699b      	ldr	r3, [r3, #24]
 800051a:	f003 0304 	and.w	r3, r3, #4
 800051e:	9301      	str	r3, [sp, #4]
 8000520:	9b01      	ldr	r3, [sp, #4]
 8000522:	2302      	movs	r3, #2
 8000524:	e9cd 0304 	strd	r0, r3, [sp, #16]
 8000528:	2303      	movs	r3, #3
 800052a:	481e      	ldr	r0, [pc, #120]	; (80005a4 <HAL_SPI_MspInit+0xc8>)
 800052c:	9307      	str	r3, [sp, #28]
 800052e:	f000 f9bd 	bl	80008ac <HAL_GPIO_Init>
 8000532:	2300      	movs	r3, #0
 8000534:	e9cd 4304 	strd	r4, r3, [sp, #16]
 8000538:	481a      	ldr	r0, [pc, #104]	; (80005a4 <HAL_SPI_MspInit+0xc8>)
 800053a:	9306      	str	r3, [sp, #24]
 800053c:	a904      	add	r1, sp, #16
 800053e:	f000 f9b5 	bl	80008ac <HAL_GPIO_Init>
 8000542:	b008      	add	sp, #32
 8000544:	bd10      	pop	{r4, pc}
 8000546:	4a18      	ldr	r2, [pc, #96]	; (80005a8 <HAL_SPI_MspInit+0xcc>)
 8000548:	4293      	cmp	r3, r2
 800054a:	d1fa      	bne.n	8000542 <HAL_SPI_MspInit+0x66>
 800054c:	4b14      	ldr	r3, [pc, #80]	; (80005a0 <HAL_SPI_MspInit+0xc4>)
 800054e:	4817      	ldr	r0, [pc, #92]	; (80005ac <HAL_SPI_MspInit+0xd0>)
 8000550:	69da      	ldr	r2, [r3, #28]
 8000552:	a904      	add	r1, sp, #16
 8000554:	f442 4280 	orr.w	r2, r2, #16384	; 0x4000
 8000558:	61da      	str	r2, [r3, #28]
 800055a:	69da      	ldr	r2, [r3, #28]
 800055c:	f402 4280 	and.w	r2, r2, #16384	; 0x4000
 8000560:	9202      	str	r2, [sp, #8]
 8000562:	9a02      	ldr	r2, [sp, #8]
 8000564:	699a      	ldr	r2, [r3, #24]
 8000566:	f042 0208 	orr.w	r2, r2, #8
 800056a:	619a      	str	r2, [r3, #24]
 800056c:	699b      	ldr	r3, [r3, #24]
 800056e:	f44f 4220 	mov.w	r2, #40960	; 0xa000
 8000572:	f003 0308 	and.w	r3, r3, #8
 8000576:	9303      	str	r3, [sp, #12]
 8000578:	9b03      	ldr	r3, [sp, #12]
 800057a:	2302      	movs	r3, #2
 800057c:	e9cd 2304 	strd	r2, r3, [sp, #16]
 8000580:	2303      	movs	r3, #3
 8000582:	9307      	str	r3, [sp, #28]
 8000584:	f000 f992 	bl	80008ac <HAL_GPIO_Init>
 8000588:	f44f 4180 	mov.w	r1, #16384	; 0x4000
 800058c:	2300      	movs	r3, #0
 800058e:	4807      	ldr	r0, [pc, #28]	; (80005ac <HAL_SPI_MspInit+0xd0>)
 8000590:	e9cd 1304 	strd	r1, r3, [sp, #16]
 8000594:	9306      	str	r3, [sp, #24]
 8000596:	a904      	add	r1, sp, #16
 8000598:	e7d1      	b.n	800053e <HAL_SPI_MspInit+0x62>
 800059a:	bf00      	nop
 800059c:	40013000 	.word	0x40013000
 80005a0:	40021000 	.word	0x40021000
 80005a4:	40010800 	.word	0x40010800
 80005a8:	40003800 	.word	0x40003800
 80005ac:	40010c00 	.word	0x40010c00

080005b0 <HAL_MspInit>:
 80005b0:	4b11      	ldr	r3, [pc, #68]	; (80005f8 <HAL_MspInit+0x48>)
 80005b2:	b507      	push	{r0, r1, r2, lr}
 80005b4:	699a      	ldr	r2, [r3, #24]
 80005b6:	210f      	movs	r1, #15
 80005b8:	f042 0201 	orr.w	r2, r2, #1
 80005bc:	619a      	str	r2, [r3, #24]
 80005be:	699a      	ldr	r2, [r3, #24]
 80005c0:	f06f 0001 	mvn.w	r0, #1
 80005c4:	f002 0201 	and.w	r2, r2, #1
 80005c8:	9200      	str	r2, [sp, #0]
 80005ca:	9a00      	ldr	r2, [sp, #0]
 80005cc:	69da      	ldr	r2, [r3, #28]
 80005ce:	f042 5280 	orr.w	r2, r2, #268435456	; 0x10000000
 80005d2:	61da      	str	r2, [r3, #28]
 80005d4:	69db      	ldr	r3, [r3, #28]
 80005d6:	2200      	movs	r2, #0
 80005d8:	f003 5380 	and.w	r3, r3, #268435456	; 0x10000000
 80005dc:	9301      	str	r3, [sp, #4]
 80005de:	9b01      	ldr	r3, [sp, #4]
 80005e0:	f000 f924 	bl	800082c <HAL_NVIC_SetPriority>
 80005e4:	4a05      	ldr	r2, [pc, #20]	; (80005fc <HAL_MspInit+0x4c>)
 80005e6:	6853      	ldr	r3, [r2, #4]
 80005e8:	f023 63e0 	bic.w	r3, r3, #117440512	; 0x7000000
 80005ec:	f043 7300 	orr.w	r3, r3, #33554432	; 0x2000000
 80005f0:	6053      	str	r3, [r2, #4]
 80005f2:	b003      	add	sp, #12
 80005f4:	f85d fb04 	ldr.w	pc, [sp], #4
 80005f8:	40021000 	.word	0x40021000
 80005fc:	40010000 	.word	0x40010000

08000600 <HAL_InitTick>:
 8000600:	b510      	push	{r4, lr}
 8000602:	4601      	mov	r1, r0
 8000604:	b088      	sub	sp, #32
 8000606:	2200      	movs	r2, #0
 8000608:	201e      	movs	r0, #30
 800060a:	f000 f90f 	bl	800082c <HAL_NVIC_SetPriority>
 800060e:	201e      	movs	r0, #30
 8000610:	f000 f93e 	bl	8000890 <HAL_NVIC_EnableIRQ>
 8000614:	4b14      	ldr	r3, [pc, #80]	; (8000668 <HAL_InitTick+0x68>)
 8000616:	a901      	add	r1, sp, #4
 8000618:	69da      	ldr	r2, [r3, #28]
 800061a:	a803      	add	r0, sp, #12
 800061c:	f042 0204 	orr.w	r2, r2, #4
 8000620:	61da      	str	r2, [r3, #28]
 8000622:	69db      	ldr	r3, [r3, #28]
 8000624:	4c11      	ldr	r4, [pc, #68]	; (800066c <HAL_InitTick+0x6c>)
 8000626:	f003 0304 	and.w	r3, r3, #4
 800062a:	9302      	str	r3, [sp, #8]
 800062c:	9b02      	ldr	r3, [sp, #8]
 800062e:	f001 fb2d 	bl	8001c8c <HAL_RCC_GetClockConfig>
 8000632:	f001 fb0b 	bl	8001c4c <HAL_RCC_GetPCLK1Freq>
 8000636:	4b0e      	ldr	r3, [pc, #56]	; (8000670 <HAL_InitTick+0x70>)
 8000638:	6023      	str	r3, [r4, #0]
 800063a:	f240 33e7 	movw	r3, #999	; 0x3e7
 800063e:	60e3      	str	r3, [r4, #12]
 8000640:	4b0c      	ldr	r3, [pc, #48]	; (8000674 <HAL_InitTick+0x74>)
 8000642:	fbb0 f0f3 	udiv	r0, r0, r3
 8000646:	2300      	movs	r3, #0
 8000648:	3801      	subs	r0, #1
 800064a:	6060      	str	r0, [r4, #4]
 800064c:	4620      	mov	r0, r4
 800064e:	6123      	str	r3, [r4, #16]
 8000650:	60a3      	str	r3, [r4, #8]
 8000652:	f002 f8ef 	bl	8002834 <HAL_TIM_Base_Init>
 8000656:	b920      	cbnz	r0, 8000662 <HAL_InitTick+0x62>
 8000658:	4620      	mov	r0, r4
 800065a:	f001 ffe3 	bl	8002624 <HAL_TIM_Base_Start_IT>
 800065e:	b008      	add	sp, #32
 8000660:	bd10      	pop	{r4, pc}
 8000662:	2001      	movs	r0, #1
 8000664:	e7fb      	b.n	800065e <HAL_InitTick+0x5e>
 8000666:	bf00      	nop
 8000668:	40021000 	.word	0x40021000
 800066c:	20000730 	.word	0x20000730
 8000670:	40000800 	.word	0x40000800
 8000674:	000f4240 	.word	0x000f4240

08000678 <NMI_Handler>:
 8000678:	e7fe      	b.n	8000678 <NMI_Handler>

0800067a <HardFault_Handler>:
 800067a:	e7fe      	b.n	800067a <HardFault_Handler>

0800067c <MemManage_Handler>:
 800067c:	e7fe      	b.n	800067c <MemManage_Handler>

0800067e <BusFault_Handler>:
 800067e:	e7fe      	b.n	800067e <BusFault_Handler>

08000680 <UsageFault_Handler>:
 8000680:	e7fe      	b.n	8000680 <UsageFault_Handler>

08000682 <DebugMon_Handler>:
 8000682:	4770      	bx	lr

08000684 <USB_LP_CAN1_RX0_IRQHandler>:
 8000684:	4801      	ldr	r0, [pc, #4]	; (800068c <USB_LP_CAN1_RX0_IRQHandler+0x8>)
 8000686:	f000 baa5 	b.w	8000bd4 <HAL_PCD_IRQHandler>
 800068a:	bf00      	nop
 800068c:	20002328 	.word	0x20002328

08000690 <TIM4_IRQHandler>:
 8000690:	4801      	ldr	r0, [pc, #4]	; (8000698 <TIM4_IRQHandler+0x8>)
 8000692:	f001 bff5 	b.w	8002680 <HAL_TIM_IRQHandler>
 8000696:	bf00      	nop
 8000698:	20000730 	.word	0x20000730

0800069c <_getpid>:
 800069c:	2001      	movs	r0, #1
 800069e:	4770      	bx	lr

080006a0 <_kill>:
 80006a0:	b508      	push	{r3, lr}
 80006a2:	f006 fe8f 	bl	80073c4 <__errno>
 80006a6:	2316      	movs	r3, #22
 80006a8:	6003      	str	r3, [r0, #0]
 80006aa:	f04f 30ff 	mov.w	r0, #4294967295
 80006ae:	bd08      	pop	{r3, pc}

080006b0 <_exit>:
 80006b0:	b508      	push	{r3, lr}
 80006b2:	f006 fe87 	bl	80073c4 <__errno>
 80006b6:	2316      	movs	r3, #22
 80006b8:	6003      	str	r3, [r0, #0]
 80006ba:	e7fe      	b.n	80006ba <_exit+0xa>

080006bc <_read>:
 80006bc:	b570      	push	{r4, r5, r6, lr}
 80006be:	460d      	mov	r5, r1
 80006c0:	4614      	mov	r4, r2
 80006c2:	460e      	mov	r6, r1
 80006c4:	1b73      	subs	r3, r6, r5
 80006c6:	429c      	cmp	r4, r3
 80006c8:	dc01      	bgt.n	80006ce <_read+0x12>
 80006ca:	4620      	mov	r0, r4
 80006cc:	bd70      	pop	{r4, r5, r6, pc}
 80006ce:	f3af 8000 	nop.w
 80006d2:	f806 0b01 	strb.w	r0, [r6], #1
 80006d6:	e7f5      	b.n	80006c4 <_read+0x8>

080006d8 <_write>:
 80006d8:	b570      	push	{r4, r5, r6, lr}
 80006da:	460d      	mov	r5, r1
 80006dc:	4614      	mov	r4, r2
 80006de:	460e      	mov	r6, r1
 80006e0:	1b73      	subs	r3, r6, r5
 80006e2:	429c      	cmp	r4, r3
 80006e4:	dc01      	bgt.n	80006ea <_write+0x12>
 80006e6:	4620      	mov	r0, r4
 80006e8:	bd70      	pop	{r4, r5, r6, pc}
 80006ea:	f816 0b01 	ldrb.w	r0, [r6], #1
 80006ee:	f3af 8000 	nop.w
 80006f2:	e7f5      	b.n	80006e0 <_write+0x8>

080006f4 <_close>:
 80006f4:	f04f 30ff 	mov.w	r0, #4294967295
 80006f8:	4770      	bx	lr

080006fa <_fstat>:
 80006fa:	f44f 5300 	mov.w	r3, #8192	; 0x2000
 80006fe:	2000      	movs	r0, #0
 8000700:	604b      	str	r3, [r1, #4]
 8000702:	4770      	bx	lr

08000704 <_isatty>:
 8000704:	2001      	movs	r0, #1
 8000706:	4770      	bx	lr

08000708 <_lseek>:
 8000708:	2000      	movs	r0, #0
 800070a:	4770      	bx	lr

0800070c <_sbrk>:
 800070c:	4a0b      	ldr	r2, [pc, #44]	; (800073c <_sbrk+0x30>)
 800070e:	4603      	mov	r3, r0
 8000710:	6811      	ldr	r1, [r2, #0]
 8000712:	b510      	push	{r4, lr}
 8000714:	b909      	cbnz	r1, 800071a <_sbrk+0xe>
 8000716:	490a      	ldr	r1, [pc, #40]	; (8000740 <_sbrk+0x34>)
 8000718:	6011      	str	r1, [r2, #0]
 800071a:	6810      	ldr	r0, [r2, #0]
 800071c:	4909      	ldr	r1, [pc, #36]	; (8000744 <_sbrk+0x38>)
 800071e:	4c0a      	ldr	r4, [pc, #40]	; (8000748 <_sbrk+0x3c>)
 8000720:	4403      	add	r3, r0
 8000722:	1b09      	subs	r1, r1, r4
 8000724:	428b      	cmp	r3, r1
 8000726:	d906      	bls.n	8000736 <_sbrk+0x2a>
 8000728:	f006 fe4c 	bl	80073c4 <__errno>
 800072c:	230c      	movs	r3, #12
 800072e:	6003      	str	r3, [r0, #0]
 8000730:	f04f 30ff 	mov.w	r0, #4294967295
 8000734:	bd10      	pop	{r4, pc}
 8000736:	6013      	str	r3, [r2, #0]
 8000738:	e7fc      	b.n	8000734 <_sbrk+0x28>
 800073a:	bf00      	nop
 800073c:	20000778 	.word	0x20000778
 8000740:	20002e88 	.word	0x20002e88
 8000744:	20005000 	.word	0x20005000
 8000748:	00000400 	.word	0x00000400

0800074c <SystemInit>:
 800074c:	4770      	bx	lr
	...

08000750 <Reset_Handler>:
 8000750:	480c      	ldr	r0, [pc, #48]	; (8000784 <LoopFillZerobss+0x12>)
 8000752:	490d      	ldr	r1, [pc, #52]	; (8000788 <LoopFillZerobss+0x16>)
 8000754:	4a0d      	ldr	r2, [pc, #52]	; (800078c <LoopFillZerobss+0x1a>)
 8000756:	2300      	movs	r3, #0
 8000758:	e002      	b.n	8000760 <LoopCopyDataInit>

0800075a <CopyDataInit>:
 800075a:	58d4      	ldr	r4, [r2, r3]
 800075c:	50c4      	str	r4, [r0, r3]
 800075e:	3304      	adds	r3, #4

08000760 <LoopCopyDataInit>:
 8000760:	18c4      	adds	r4, r0, r3
 8000762:	428c      	cmp	r4, r1
 8000764:	d3f9      	bcc.n	800075a <CopyDataInit>
 8000766:	4a0a      	ldr	r2, [pc, #40]	; (8000790 <LoopFillZerobss+0x1e>)
 8000768:	4c0a      	ldr	r4, [pc, #40]	; (8000794 <LoopFillZerobss+0x22>)
 800076a:	2300      	movs	r3, #0
 800076c:	e001      	b.n	8000772 <LoopFillZerobss>

0800076e <FillZerobss>:
 800076e:	6013      	str	r3, [r2, #0]
 8000770:	3204      	adds	r2, #4

08000772 <LoopFillZerobss>:
 8000772:	42a2      	cmp	r2, r4
 8000774:	d3fb      	bcc.n	800076e <FillZerobss>
 8000776:	f7ff ffe9 	bl	800074c <SystemInit>
 800077a:	f006 fe29 	bl	80073d0 <__libc_init_array>
 800077e:	f7ff fe21 	bl	80003c4 <main>
 8000782:	4770      	bx	lr
 8000784:	20000000 	.word	0x20000000
 8000788:	2000028c 	.word	0x2000028c
 800078c:	08009d94 	.word	0x08009d94
 8000790:	2000028c 	.word	0x2000028c
 8000794:	20002e84 	.word	0x20002e84

08000798 <ADC1_2_IRQHandler>:
 8000798:	e7fe      	b.n	8000798 <ADC1_2_IRQHandler>
	...

0800079c <HAL_Init>:
 800079c:	4a07      	ldr	r2, [pc, #28]	; (80007bc <HAL_Init+0x20>)
 800079e:	b508      	push	{r3, lr}
 80007a0:	6813      	ldr	r3, [r2, #0]
 80007a2:	2003      	movs	r0, #3
 80007a4:	f043 0310 	orr.w	r3, r3, #16
 80007a8:	6013      	str	r3, [r2, #0]
 80007aa:	f000 f82d 	bl	8000808 <HAL_NVIC_SetPriorityGrouping>
 80007ae:	200f      	movs	r0, #15
 80007b0:	f7ff ff26 	bl	8000600 <HAL_InitTick>
 80007b4:	f7ff fefc 	bl	80005b0 <HAL_MspInit>
 80007b8:	2000      	movs	r0, #0
 80007ba:	bd08      	pop	{r3, pc}
 80007bc:	40022000 	.word	0x40022000

080007c0 <HAL_IncTick>:
 80007c0:	4a03      	ldr	r2, [pc, #12]	; (80007d0 <HAL_IncTick+0x10>)
 80007c2:	4b04      	ldr	r3, [pc, #16]	; (80007d4 <HAL_IncTick+0x14>)
 80007c4:	6811      	ldr	r1, [r2, #0]
 80007c6:	781b      	ldrb	r3, [r3, #0]
 80007c8:	440b      	add	r3, r1
 80007ca:	6013      	str	r3, [r2, #0]
 80007cc:	4770      	bx	lr
 80007ce:	bf00      	nop
 80007d0:	2000077c 	.word	0x2000077c
 80007d4:	20000004 	.word	0x20000004

080007d8 <HAL_GetTick>:
 80007d8:	4b01      	ldr	r3, [pc, #4]	; (80007e0 <HAL_GetTick+0x8>)
 80007da:	6818      	ldr	r0, [r3, #0]
 80007dc:	4770      	bx	lr
 80007de:	bf00      	nop
 80007e0:	2000077c 	.word	0x2000077c

080007e4 <HAL_Delay>:
 80007e4:	b538      	push	{r3, r4, r5, lr}
 80007e6:	4604      	mov	r4, r0
 80007e8:	f7ff fff6 	bl	80007d8 <HAL_GetTick>
 80007ec:	4605      	mov	r5, r0
 80007ee:	1c63      	adds	r3, r4, #1
 80007f0:	bf1e      	ittt	ne
 80007f2:	4b04      	ldrne	r3, [pc, #16]	; (8000804 <HAL_Delay+0x20>)
 80007f4:	781b      	ldrbne	r3, [r3, #0]
 80007f6:	18e4      	addne	r4, r4, r3
 80007f8:	f7ff ffee 	bl	80007d8 <HAL_GetTick>
 80007fc:	1b43      	subs	r3, r0, r5
 80007fe:	42a3      	cmp	r3, r4
 8000800:	d3fa      	bcc.n	80007f8 <HAL_Delay+0x14>
 8000802:	bd38      	pop	{r3, r4, r5, pc}
 8000804:	20000004 	.word	0x20000004

08000808 <HAL_NVIC_SetPriorityGrouping>:
 8000808:	4907      	ldr	r1, [pc, #28]	; (8000828 <HAL_NVIC_SetPriorityGrouping+0x20>)
 800080a:	0203      	lsls	r3, r0, #8
 800080c:	68ca      	ldr	r2, [r1, #12]
 800080e:	f403 63e0 	and.w	r3, r3, #1792	; 0x700
 8000812:	f422 62e0 	bic.w	r2, r2, #1792	; 0x700
 8000816:	0412      	lsls	r2, r2, #16
 8000818:	0c12      	lsrs	r2, r2, #16
 800081a:	4313      	orrs	r3, r2
 800081c:	f043 63bf 	orr.w	r3, r3, #100139008	; 0x5f80000
 8000820:	f443 3300 	orr.w	r3, r3, #131072	; 0x20000
 8000824:	60cb      	str	r3, [r1, #12]
 8000826:	4770      	bx	lr
 8000828:	e000ed00 	.word	0xe000ed00

0800082c <HAL_NVIC_SetPriority>:
 800082c:	4b16      	ldr	r3, [pc, #88]	; (8000888 <HAL_NVIC_SetPriority+0x5c>)
 800082e:	b530      	push	{r4, r5, lr}
 8000830:	68dc      	ldr	r4, [r3, #12]
 8000832:	f3c4 2402 	ubfx	r4, r4, #8, #3
 8000836:	f1c4 0307 	rsb	r3, r4, #7
 800083a:	1d25      	adds	r5, r4, #4
 800083c:	2b04      	cmp	r3, #4
 800083e:	bf28      	it	cs
 8000840:	2304      	movcs	r3, #4
 8000842:	2d06      	cmp	r5, #6
 8000844:	f04f 35ff 	mov.w	r5, #4294967295
 8000848:	bf98      	it	ls
 800084a:	2400      	movls	r4, #0
 800084c:	fa05 f303 	lsl.w	r3, r5, r3
 8000850:	bf88      	it	hi
 8000852:	3c03      	subhi	r4, #3
 8000854:	ea21 0303 	bic.w	r3, r1, r3
 8000858:	40a3      	lsls	r3, r4
 800085a:	fa05 f404 	lsl.w	r4, r5, r4
 800085e:	ea22 0204 	bic.w	r2, r2, r4
 8000862:	2800      	cmp	r0, #0
 8000864:	ea43 0302 	orr.w	r3, r3, r2
 8000868:	bfac      	ite	ge
 800086a:	f100 4060 	addge.w	r0, r0, #3758096384	; 0xe0000000
 800086e:	4a07      	ldrlt	r2, [pc, #28]	; (800088c <HAL_NVIC_SetPriority+0x60>)
 8000870:	ea4f 1303 	mov.w	r3, r3, lsl #4
 8000874:	b2db      	uxtb	r3, r3
 8000876:	bfab      	itete	ge
 8000878:	f500 4061 	addge.w	r0, r0, #57600	; 0xe100
 800087c:	f000 000f 	andlt.w	r0, r0, #15
 8000880:	f880 3300 	strbge.w	r3, [r0, #768]	; 0x300
 8000884:	5413      	strblt	r3, [r2, r0]
 8000886:	bd30      	pop	{r4, r5, pc}
 8000888:	e000ed00 	.word	0xe000ed00
 800088c:	e000ed14 	.word	0xe000ed14

08000890 <HAL_NVIC_EnableIRQ>:
 8000890:	2800      	cmp	r0, #0
 8000892:	db08      	blt.n	80008a6 <HAL_NVIC_EnableIRQ+0x16>
 8000894:	2301      	movs	r3, #1
 8000896:	0942      	lsrs	r2, r0, #5
 8000898:	f000 001f 	and.w	r0, r0, #31
 800089c:	fa03 f000 	lsl.w	r0, r3, r0
 80008a0:	4b01      	ldr	r3, [pc, #4]	; (80008a8 <HAL_NVIC_EnableIRQ+0x18>)
 80008a2:	f843 0022 	str.w	r0, [r3, r2, lsl #2]
 80008a6:	4770      	bx	lr
 80008a8:	e000e100 	.word	0xe000e100

080008ac <HAL_GPIO_Init>:
 80008ac:	e92d 4ff7 	stmdb	sp!, {r0, r1, r2, r4, r5, r6, r7, r8, r9, sl, fp, lr}
 80008b0:	2200      	movs	r2, #0
 80008b2:	4616      	mov	r6, r2
 80008b4:	4f64      	ldr	r7, [pc, #400]	; (8000a48 <HAL_GPIO_Init+0x19c>)
 80008b6:	4b65      	ldr	r3, [pc, #404]	; (8000a4c <HAL_GPIO_Init+0x1a0>)
 80008b8:	f8df c194 	ldr.w	ip, [pc, #404]	; 8000a50 <HAL_GPIO_Init+0x1a4>
 80008bc:	f8df e194 	ldr.w	lr, [pc, #404]	; 8000a54 <HAL_GPIO_Init+0x1a8>
 80008c0:	680d      	ldr	r5, [r1, #0]
 80008c2:	fa35 f406 	lsrs.w	r4, r5, r6
 80008c6:	d102      	bne.n	80008ce <HAL_GPIO_Init+0x22>
 80008c8:	b003      	add	sp, #12
 80008ca:	e8bd 8ff0 	ldmia.w	sp!, {r4, r5, r6, r7, r8, r9, sl, fp, pc}
 80008ce:	f04f 0801 	mov.w	r8, #1
 80008d2:	fa08 f806 	lsl.w	r8, r8, r6
 80008d6:	ea05 0408 	and.w	r4, r5, r8
 80008da:	ea38 0505 	bics.w	r5, r8, r5
 80008de:	d17b      	bne.n	80009d8 <HAL_GPIO_Init+0x12c>
 80008e0:	684d      	ldr	r5, [r1, #4]
 80008e2:	2d03      	cmp	r5, #3
 80008e4:	d807      	bhi.n	80008f6 <HAL_GPIO_Init+0x4a>
 80008e6:	3d01      	subs	r5, #1
 80008e8:	2d02      	cmp	r5, #2
 80008ea:	f200 8088 	bhi.w	80009fe <HAL_GPIO_Init+0x152>
 80008ee:	e8df f005 	tbb	[pc, r5]
 80008f2:	9b96      	.short	0x9b96
 80008f4:	a1          	.byte	0xa1
 80008f5:	00          	.byte	0x00
 80008f6:	2d12      	cmp	r5, #18
 80008f8:	f000 8099 	beq.w	8000a2e <HAL_GPIO_Init+0x182>
 80008fc:	d86e      	bhi.n	80009dc <HAL_GPIO_Init+0x130>
 80008fe:	2d11      	cmp	r5, #17
 8000900:	f000 808f 	beq.w	8000a22 <HAL_GPIO_Init+0x176>
 8000904:	2cff      	cmp	r4, #255	; 0xff
 8000906:	bf98      	it	ls
 8000908:	4682      	movls	sl, r0
 800090a:	f04f 090f 	mov.w	r9, #15
 800090e:	bf88      	it	hi
 8000910:	f100 0a04 	addhi.w	sl, r0, #4
 8000914:	ea4f 0586 	mov.w	r5, r6, lsl #2
 8000918:	f8da 8000 	ldr.w	r8, [sl]
 800091c:	bf88      	it	hi
 800091e:	3d20      	subhi	r5, #32
 8000920:	fa09 fb05 	lsl.w	fp, r9, r5
 8000924:	ea28 080b 	bic.w	r8, r8, fp
 8000928:	fa02 f505 	lsl.w	r5, r2, r5
 800092c:	ea48 0505 	orr.w	r5, r8, r5
 8000930:	f8ca 5000 	str.w	r5, [sl]
 8000934:	f8d1 a004 	ldr.w	sl, [r1, #4]
 8000938:	f01a 5f80 	tst.w	sl, #268435456	; 0x10000000
 800093c:	d04c      	beq.n	80009d8 <HAL_GPIO_Init+0x12c>
 800093e:	69bd      	ldr	r5, [r7, #24]
 8000940:	f026 0803 	bic.w	r8, r6, #3
 8000944:	f045 0501 	orr.w	r5, r5, #1
 8000948:	61bd      	str	r5, [r7, #24]
 800094a:	69bd      	ldr	r5, [r7, #24]
 800094c:	f108 4880 	add.w	r8, r8, #1073741824	; 0x40000000
 8000950:	f005 0501 	and.w	r5, r5, #1
 8000954:	9501      	str	r5, [sp, #4]
 8000956:	f508 3880 	add.w	r8, r8, #65536	; 0x10000
 800095a:	f006 0b03 	and.w	fp, r6, #3
 800095e:	9d01      	ldr	r5, [sp, #4]
 8000960:	ea4f 0b8b 	mov.w	fp, fp, lsl #2
 8000964:	f8d8 5008 	ldr.w	r5, [r8, #8]
 8000968:	fa09 f90b 	lsl.w	r9, r9, fp
 800096c:	ea25 0909 	bic.w	r9, r5, r9
 8000970:	4d39      	ldr	r5, [pc, #228]	; (8000a58 <HAL_GPIO_Init+0x1ac>)
 8000972:	42a8      	cmp	r0, r5
 8000974:	d062      	beq.n	8000a3c <HAL_GPIO_Init+0x190>
 8000976:	f505 6580 	add.w	r5, r5, #1024	; 0x400
 800097a:	42a8      	cmp	r0, r5
 800097c:	d060      	beq.n	8000a40 <HAL_GPIO_Init+0x194>
 800097e:	f505 6580 	add.w	r5, r5, #1024	; 0x400
 8000982:	42a8      	cmp	r0, r5
 8000984:	d05e      	beq.n	8000a44 <HAL_GPIO_Init+0x198>
 8000986:	f505 6580 	add.w	r5, r5, #1024	; 0x400
 800098a:	42a8      	cmp	r0, r5
 800098c:	bf0c      	ite	eq
 800098e:	2503      	moveq	r5, #3
 8000990:	2504      	movne	r5, #4
 8000992:	fa05 f50b 	lsl.w	r5, r5, fp
 8000996:	ea45 0509 	orr.w	r5, r5, r9
 800099a:	f8c8 5008 	str.w	r5, [r8, #8]
 800099e:	681d      	ldr	r5, [r3, #0]
 80009a0:	f41a 3f80 	tst.w	sl, #65536	; 0x10000
 80009a4:	bf14      	ite	ne
 80009a6:	4325      	orrne	r5, r4
 80009a8:	43a5      	biceq	r5, r4
 80009aa:	601d      	str	r5, [r3, #0]
 80009ac:	685d      	ldr	r5, [r3, #4]
 80009ae:	f41a 3f00 	tst.w	sl, #131072	; 0x20000
 80009b2:	bf14      	ite	ne
 80009b4:	4325      	orrne	r5, r4
 80009b6:	43a5      	biceq	r5, r4
 80009b8:	605d      	str	r5, [r3, #4]
 80009ba:	689d      	ldr	r5, [r3, #8]
 80009bc:	f41a 1f80 	tst.w	sl, #1048576	; 0x100000
 80009c0:	bf14      	ite	ne
 80009c2:	4325      	orrne	r5, r4
 80009c4:	43a5      	biceq	r5, r4
 80009c6:	609d      	str	r5, [r3, #8]
 80009c8:	68dd      	ldr	r5, [r3, #12]
 80009ca:	f41a 1f00 	tst.w	sl, #2097152	; 0x200000
 80009ce:	bf14      	ite	ne
 80009d0:	432c      	orrne	r4, r5
 80009d2:	ea25 0404 	biceq.w	r4, r5, r4
 80009d6:	60dc      	str	r4, [r3, #12]
 80009d8:	3601      	adds	r6, #1
 80009da:	e771      	b.n	80008c0 <HAL_GPIO_Init+0x14>
 80009dc:	f8df 907c 	ldr.w	r9, [pc, #124]	; 8000a5c <HAL_GPIO_Init+0x1b0>
 80009e0:	454d      	cmp	r5, r9
 80009e2:	d00c      	beq.n	80009fe <HAL_GPIO_Init+0x152>
 80009e4:	d817      	bhi.n	8000a16 <HAL_GPIO_Init+0x16a>
 80009e6:	f5a9 1980 	sub.w	r9, r9, #1048576	; 0x100000
 80009ea:	454d      	cmp	r5, r9
 80009ec:	d007      	beq.n	80009fe <HAL_GPIO_Init+0x152>
 80009ee:	f509 2970 	add.w	r9, r9, #983040	; 0xf0000
 80009f2:	454d      	cmp	r5, r9
 80009f4:	d003      	beq.n	80009fe <HAL_GPIO_Init+0x152>
 80009f6:	f5a9 1980 	sub.w	r9, r9, #1048576	; 0x100000
 80009fa:	454d      	cmp	r5, r9
 80009fc:	d182      	bne.n	8000904 <HAL_GPIO_Init+0x58>
 80009fe:	688a      	ldr	r2, [r1, #8]
 8000a00:	b1d2      	cbz	r2, 8000a38 <HAL_GPIO_Init+0x18c>
 8000a02:	2a01      	cmp	r2, #1
 8000a04:	bf08      	it	eq
 8000a06:	f8c0 8010 	streq.w	r8, [r0, #16]
 8000a0a:	f04f 0208 	mov.w	r2, #8
 8000a0e:	bf18      	it	ne
 8000a10:	f8c0 8014 	strne.w	r8, [r0, #20]
 8000a14:	e776      	b.n	8000904 <HAL_GPIO_Init+0x58>
 8000a16:	4565      	cmp	r5, ip
 8000a18:	d0f1      	beq.n	80009fe <HAL_GPIO_Init+0x152>
 8000a1a:	4575      	cmp	r5, lr
 8000a1c:	e7ee      	b.n	80009fc <HAL_GPIO_Init+0x150>
 8000a1e:	68ca      	ldr	r2, [r1, #12]
 8000a20:	e770      	b.n	8000904 <HAL_GPIO_Init+0x58>
 8000a22:	68ca      	ldr	r2, [r1, #12]
 8000a24:	3204      	adds	r2, #4
 8000a26:	e76d      	b.n	8000904 <HAL_GPIO_Init+0x58>
 8000a28:	68ca      	ldr	r2, [r1, #12]
 8000a2a:	3208      	adds	r2, #8
 8000a2c:	e76a      	b.n	8000904 <HAL_GPIO_Init+0x58>
 8000a2e:	68ca      	ldr	r2, [r1, #12]
 8000a30:	320c      	adds	r2, #12
 8000a32:	e767      	b.n	8000904 <HAL_GPIO_Init+0x58>
 8000a34:	2200      	movs	r2, #0
 8000a36:	e765      	b.n	8000904 <HAL_GPIO_Init+0x58>
 8000a38:	2204      	movs	r2, #4
 8000a3a:	e763      	b.n	8000904 <HAL_GPIO_Init+0x58>
 8000a3c:	2500      	movs	r5, #0
 8000a3e:	e7a8      	b.n	8000992 <HAL_GPIO_Init+0xe6>
 8000a40:	2501      	movs	r5, #1
 8000a42:	e7a6      	b.n	8000992 <HAL_GPIO_Init+0xe6>
 8000a44:	2502      	movs	r5, #2
 8000a46:	e7a4      	b.n	8000992 <HAL_GPIO_Init+0xe6>
 8000a48:	40021000 	.word	0x40021000
 8000a4c:	40010400 	.word	0x40010400
 8000a50:	10310000 	.word	0x10310000
 8000a54:	10320000 	.word	0x10320000
 8000a58:	40010800 	.word	0x40010800
 8000a5c:	10220000 	.word	0x10220000

08000a60 <HAL_GPIO_ReadPin>:
 8000a60:	6883      	ldr	r3, [r0, #8]
 8000a62:	4219      	tst	r1, r3
 8000a64:	bf14      	ite	ne
 8000a66:	2001      	movne	r0, #1
 8000a68:	2000      	moveq	r0, #0
 8000a6a:	4770      	bx	lr

08000a6c <HAL_GPIO_WritePin>:
 8000a6c:	b10a      	cbz	r2, 8000a72 <HAL_GPIO_WritePin+0x6>
 8000a6e:	6101      	str	r1, [r0, #16]
 8000a70:	4770      	bx	lr
 8000a72:	0409      	lsls	r1, r1, #16
 8000a74:	e7fb      	b.n	8000a6e <HAL_GPIO_WritePin+0x2>

08000a76 <HAL_GPIO_TogglePin>:
 8000a76:	68c3      	ldr	r3, [r0, #12]
 8000a78:	ea01 0203 	and.w	r2, r1, r3
 8000a7c:	ea21 0103 	bic.w	r1, r1, r3
 8000a80:	ea41 4102 	orr.w	r1, r1, r2, lsl #16
 8000a84:	6101      	str	r1, [r0, #16]
 8000a86:	4770      	bx	lr

08000a88 <HAL_PCD_Init>:
 8000a88:	b5f0      	push	{r4, r5, r6, r7, lr}
 8000a8a:	4604      	mov	r4, r0
 8000a8c:	b087      	sub	sp, #28
 8000a8e:	b310      	cbz	r0, 8000ad6 <HAL_PCD_Init+0x4e>
 8000a90:	f890 32a9 	ldrb.w	r3, [r0, #681]	; 0x2a9
 8000a94:	f003 02ff 	and.w	r2, r3, #255	; 0xff
 8000a98:	b91b      	cbnz	r3, 8000aa2 <HAL_PCD_Init+0x1a>
 8000a9a:	f880 22a8 	strb.w	r2, [r0, #680]	; 0x2a8
 8000a9e:	f004 ff09 	bl	80058b4 <HAL_PCD_MspInit>
 8000aa2:	2303      	movs	r3, #3
 8000aa4:	4625      	mov	r5, r4
 8000aa6:	466e      	mov	r6, sp
 8000aa8:	f884 32a9 	strb.w	r3, [r4, #681]	; 0x2a9
 8000aac:	f855 0b10 	ldr.w	r0, [r5], #16
 8000ab0:	f001 fefe 	bl	80028b0 <USB_DisableGlobalInt>
 8000ab4:	cd0f      	ldmia	r5!, {r0, r1, r2, r3}
 8000ab6:	c60f      	stmia	r6!, {r0, r1, r2, r3}
 8000ab8:	682b      	ldr	r3, [r5, #0]
 8000aba:	1d27      	adds	r7, r4, #4
 8000abc:	6033      	str	r3, [r6, #0]
 8000abe:	4626      	mov	r6, r4
 8000ac0:	e897 000e 	ldmia.w	r7, {r1, r2, r3}
 8000ac4:	f856 0b10 	ldr.w	r0, [r6], #16
 8000ac8:	f001 fee2 	bl	8002890 <USB_CoreInit>
 8000acc:	4605      	mov	r5, r0
 8000ace:	b120      	cbz	r0, 8000ada <HAL_PCD_Init+0x52>
 8000ad0:	2302      	movs	r3, #2
 8000ad2:	f884 32a9 	strb.w	r3, [r4, #681]	; 0x2a9
 8000ad6:	2501      	movs	r5, #1
 8000ad8:	e04c      	b.n	8000b74 <HAL_PCD_Init+0xec>
 8000ada:	4601      	mov	r1, r0
 8000adc:	6820      	ldr	r0, [r4, #0]
 8000ade:	f001 fef1 	bl	80028c4 <USB_SetCurrentMode>
 8000ae2:	4629      	mov	r1, r5
 8000ae4:	f04f 0e01 	mov.w	lr, #1
 8000ae8:	2528      	movs	r5, #40	; 0x28
 8000aea:	4608      	mov	r0, r1
 8000aec:	f8d4 c004 	ldr.w	ip, [r4, #4]
 8000af0:	b2ca      	uxtb	r2, r1
 8000af2:	4594      	cmp	ip, r2
 8000af4:	f101 0101 	add.w	r1, r1, #1
 8000af8:	d81b      	bhi.n	8000b32 <HAL_PCD_Init+0xaa>
 8000afa:	2300      	movs	r3, #0
 8000afc:	2528      	movs	r5, #40	; 0x28
 8000afe:	4619      	mov	r1, r3
 8000b00:	b2d8      	uxtb	r0, r3
 8000b02:	4584      	cmp	ip, r0
 8000b04:	f103 0301 	add.w	r3, r3, #1
 8000b08:	d820      	bhi.n	8000b4c <HAL_PCD_Init+0xc4>
 8000b0a:	46ec      	mov	ip, sp
 8000b0c:	4635      	mov	r5, r6
 8000b0e:	cd0f      	ldmia	r5!, {r0, r1, r2, r3}
 8000b10:	e8ac 000f 	stmia.w	ip!, {r0, r1, r2, r3}
 8000b14:	682b      	ldr	r3, [r5, #0]
 8000b16:	f8cc 3000 	str.w	r3, [ip]
 8000b1a:	e897 000e 	ldmia.w	r7, {r1, r2, r3}
 8000b1e:	6820      	ldr	r0, [r4, #0]
 8000b20:	f001 fed2 	bl	80028c8 <USB_DevInit>
 8000b24:	2301      	movs	r3, #1
 8000b26:	4605      	mov	r5, r0
 8000b28:	b1e8      	cbz	r0, 8000b66 <HAL_PCD_Init+0xde>
 8000b2a:	2202      	movs	r2, #2
 8000b2c:	f884 22a9 	strb.w	r2, [r4, #681]	; 0x2a9
 8000b30:	e7d1      	b.n	8000ad6 <HAL_PCD_Init+0x4e>
 8000b32:	fb05 4302 	mla	r3, r5, r2, r4
 8000b36:	e9c3 000e 	strd	r0, r0, [r3, #56]	; 0x38
 8000b3a:	f883 e029 	strb.w	lr, [r3, #41]	; 0x29
 8000b3e:	f883 2028 	strb.w	r2, [r3, #40]	; 0x28
 8000b42:	86da      	strh	r2, [r3, #54]	; 0x36
 8000b44:	f883 002b 	strb.w	r0, [r3, #43]	; 0x2b
 8000b48:	6418      	str	r0, [r3, #64]	; 0x40
 8000b4a:	e7d1      	b.n	8000af0 <HAL_PCD_Init+0x68>
 8000b4c:	fb05 4200 	mla	r2, r5, r0, r4
 8000b50:	e9c2 115e 	strd	r1, r1, [r2, #376]	; 0x178
 8000b54:	f882 1169 	strb.w	r1, [r2, #361]	; 0x169
 8000b58:	f882 0168 	strb.w	r0, [r2, #360]	; 0x168
 8000b5c:	f882 116b 	strb.w	r1, [r2, #363]	; 0x16b
 8000b60:	f8c2 1180 	str.w	r1, [r2, #384]	; 0x180
 8000b64:	e7cc      	b.n	8000b00 <HAL_PCD_Init+0x78>
 8000b66:	f884 0024 	strb.w	r0, [r4, #36]	; 0x24
 8000b6a:	6820      	ldr	r0, [r4, #0]
 8000b6c:	f884 32a9 	strb.w	r3, [r4, #681]	; 0x2a9
 8000b70:	f002 f93c 	bl	8002dec <USB_DevDisconnect>
 8000b74:	4628      	mov	r0, r5
 8000b76:	b007      	add	sp, #28
 8000b78:	bdf0      	pop	{r4, r5, r6, r7, pc}

08000b7a <HAL_PCD_Start>:
 8000b7a:	b538      	push	{r3, r4, r5, lr}
 8000b7c:	f890 32a8 	ldrb.w	r3, [r0, #680]	; 0x2a8
 8000b80:	4604      	mov	r4, r0
 8000b82:	2b01      	cmp	r3, #1
 8000b84:	d010      	beq.n	8000ba8 <HAL_PCD_Start+0x2e>
 8000b86:	2501      	movs	r5, #1
 8000b88:	f880 52a8 	strb.w	r5, [r0, #680]	; 0x2a8
 8000b8c:	6800      	ldr	r0, [r0, #0]
 8000b8e:	f001 fe86 	bl	800289e <USB_EnableGlobalInt>
 8000b92:	4629      	mov	r1, r5
 8000b94:	4620      	mov	r0, r4
 8000b96:	f004 ff98 	bl	8005aca <HAL_PCDEx_SetConnectionState>
 8000b9a:	6820      	ldr	r0, [r4, #0]
 8000b9c:	f002 f924 	bl	8002de8 <USB_DevConnect>
 8000ba0:	2000      	movs	r0, #0
 8000ba2:	f884 02a8 	strb.w	r0, [r4, #680]	; 0x2a8
 8000ba6:	bd38      	pop	{r3, r4, r5, pc}
 8000ba8:	2002      	movs	r0, #2
 8000baa:	e7fc      	b.n	8000ba6 <HAL_PCD_Start+0x2c>

08000bac <HAL_PCD_SetAddress>:
 8000bac:	b510      	push	{r4, lr}
 8000bae:	f890 22a8 	ldrb.w	r2, [r0, #680]	; 0x2a8
 8000bb2:	4604      	mov	r4, r0
 8000bb4:	2a01      	cmp	r2, #1
 8000bb6:	d00b      	beq.n	8000bd0 <HAL_PCD_SetAddress+0x24>
 8000bb8:	2201      	movs	r2, #1
 8000bba:	f880 1024 	strb.w	r1, [r0, #36]	; 0x24
 8000bbe:	f880 22a8 	strb.w	r2, [r0, #680]	; 0x2a8
 8000bc2:	6800      	ldr	r0, [r0, #0]
 8000bc4:	f002 f90a 	bl	8002ddc <USB_SetDevAddress>
 8000bc8:	2000      	movs	r0, #0
 8000bca:	f884 02a8 	strb.w	r0, [r4, #680]	; 0x2a8
 8000bce:	bd10      	pop	{r4, pc}
 8000bd0:	2002      	movs	r0, #2
 8000bd2:	e7fc      	b.n	8000bce <HAL_PCD_SetAddress+0x22>

08000bd4 <HAL_PCD_IRQHandler>:
 8000bd4:	e92d 4ff0 	stmdb	sp!, {r4, r5, r6, r7, r8, r9, sl, fp, lr}
 8000bd8:	4604      	mov	r4, r0
 8000bda:	b085      	sub	sp, #20
 8000bdc:	6800      	ldr	r0, [r0, #0]
 8000bde:	f002 f907 	bl	8002df0 <USB_ReadInterrupts>
 8000be2:	0401      	lsls	r1, r0, #16
 8000be4:	d509      	bpl.n	8000bfa <HAL_PCD_IRQHandler+0x26>
 8000be6:	f8df 930c 	ldr.w	r9, [pc, #780]	; 8000ef4 <HAL_PCD_IRQHandler+0x320>
 8000bea:	f8df 830c 	ldr.w	r8, [pc, #780]	; 8000ef8 <HAL_PCD_IRQHandler+0x324>
 8000bee:	6820      	ldr	r0, [r4, #0]
 8000bf0:	f8b0 3044 	ldrh.w	r3, [r0, #68]	; 0x44
 8000bf4:	041d      	lsls	r5, r3, #16
 8000bf6:	f100 80c1 	bmi.w	8000d7c <HAL_PCD_IRQHandler+0x1a8>
 8000bfa:	6820      	ldr	r0, [r4, #0]
 8000bfc:	f002 f8f8 	bl	8002df0 <USB_ReadInterrupts>
 8000c00:	0542      	lsls	r2, r0, #21
 8000c02:	d50f      	bpl.n	8000c24 <HAL_PCD_IRQHandler+0x50>
 8000c04:	6822      	ldr	r2, [r4, #0]
 8000c06:	4620      	mov	r0, r4
 8000c08:	f8b2 3044 	ldrh.w	r3, [r2, #68]	; 0x44
 8000c0c:	f423 6380 	bic.w	r3, r3, #1024	; 0x400
 8000c10:	041b      	lsls	r3, r3, #16
 8000c12:	0c1b      	lsrs	r3, r3, #16
 8000c14:	f8a2 3044 	strh.w	r3, [r2, #68]	; 0x44
 8000c18:	f004 fe87 	bl	800592a <HAL_PCD_ResetCallback>
 8000c1c:	2100      	movs	r1, #0
 8000c1e:	4620      	mov	r0, r4
 8000c20:	f7ff ffc4 	bl	8000bac <HAL_PCD_SetAddress>
 8000c24:	6820      	ldr	r0, [r4, #0]
 8000c26:	f002 f8e3 	bl	8002df0 <USB_ReadInterrupts>
 8000c2a:	0441      	lsls	r1, r0, #17
 8000c2c:	d508      	bpl.n	8000c40 <HAL_PCD_IRQHandler+0x6c>
 8000c2e:	6822      	ldr	r2, [r4, #0]
 8000c30:	f8b2 3044 	ldrh.w	r3, [r2, #68]	; 0x44
 8000c34:	f423 4380 	bic.w	r3, r3, #16384	; 0x4000
 8000c38:	041b      	lsls	r3, r3, #16
 8000c3a:	0c1b      	lsrs	r3, r3, #16
 8000c3c:	f8a2 3044 	strh.w	r3, [r2, #68]	; 0x44
 8000c40:	6820      	ldr	r0, [r4, #0]
 8000c42:	f002 f8d5 	bl	8002df0 <USB_ReadInterrupts>
 8000c46:	0482      	lsls	r2, r0, #18
 8000c48:	d508      	bpl.n	8000c5c <HAL_PCD_IRQHandler+0x88>
 8000c4a:	6822      	ldr	r2, [r4, #0]
 8000c4c:	f8b2 3044 	ldrh.w	r3, [r2, #68]	; 0x44
 8000c50:	f423 5300 	bic.w	r3, r3, #8192	; 0x2000
 8000c54:	041b      	lsls	r3, r3, #16
 8000c56:	0c1b      	lsrs	r3, r3, #16
 8000c58:	f8a2 3044 	strh.w	r3, [r2, #68]	; 0x44
 8000c5c:	6820      	ldr	r0, [r4, #0]
 8000c5e:	f002 f8c7 	bl	8002df0 <USB_ReadInterrupts>
 8000c62:	04c3      	lsls	r3, r0, #19
 8000c64:	d51c      	bpl.n	8000ca0 <HAL_PCD_IRQHandler+0xcc>
 8000c66:	6822      	ldr	r2, [r4, #0]
 8000c68:	4620      	mov	r0, r4
 8000c6a:	f8b2 3040 	ldrh.w	r3, [r2, #64]	; 0x40
 8000c6e:	f023 0304 	bic.w	r3, r3, #4
 8000c72:	041b      	lsls	r3, r3, #16
 8000c74:	0c1b      	lsrs	r3, r3, #16
 8000c76:	f8a2 3040 	strh.w	r3, [r2, #64]	; 0x40
 8000c7a:	f8b2 3040 	ldrh.w	r3, [r2, #64]	; 0x40
 8000c7e:	f023 0308 	bic.w	r3, r3, #8
 8000c82:	041b      	lsls	r3, r3, #16
 8000c84:	0c1b      	lsrs	r3, r3, #16
 8000c86:	f8a2 3040 	strh.w	r3, [r2, #64]	; 0x40
 8000c8a:	f004 fe71 	bl	8005970 <HAL_PCD_ResumeCallback>
 8000c8e:	6822      	ldr	r2, [r4, #0]
 8000c90:	f8b2 3044 	ldrh.w	r3, [r2, #68]	; 0x44
 8000c94:	f423 5380 	bic.w	r3, r3, #4096	; 0x1000
 8000c98:	041b      	lsls	r3, r3, #16
 8000c9a:	0c1b      	lsrs	r3, r3, #16
 8000c9c:	f8a2 3044 	strh.w	r3, [r2, #68]	; 0x44
 8000ca0:	6820      	ldr	r0, [r4, #0]
 8000ca2:	f002 f8a5 	bl	8002df0 <USB_ReadInterrupts>
 8000ca6:	0507      	lsls	r7, r0, #20
 8000ca8:	d546      	bpl.n	8000d38 <HAL_PCD_IRQHandler+0x164>
 8000caa:	4668      	mov	r0, sp
 8000cac:	6823      	ldr	r3, [r4, #0]
 8000cae:	4606      	mov	r6, r0
 8000cb0:	4619      	mov	r1, r3
 8000cb2:	461a      	mov	r2, r3
 8000cb4:	f103 0520 	add.w	r5, r3, #32
 8000cb8:	f832 7b04 	ldrh.w	r7, [r2], #4
 8000cbc:	4295      	cmp	r5, r2
 8000cbe:	f826 7b02 	strh.w	r7, [r6], #2
 8000cc2:	d1f9      	bne.n	8000cb8 <HAL_PCD_IRQHandler+0xe4>
 8000cc4:	f8b3 2040 	ldrh.w	r2, [r3, #64]	; 0x40
 8000cc8:	b292      	uxth	r2, r2
 8000cca:	f042 0201 	orr.w	r2, r2, #1
 8000cce:	f8a3 2040 	strh.w	r2, [r3, #64]	; 0x40
 8000cd2:	f8b3 2040 	ldrh.w	r2, [r3, #64]	; 0x40
 8000cd6:	f022 0201 	bic.w	r2, r2, #1
 8000cda:	0412      	lsls	r2, r2, #16
 8000cdc:	0c12      	lsrs	r2, r2, #16
 8000cde:	f8a3 2040 	strh.w	r2, [r3, #64]	; 0x40
 8000ce2:	f8b3 2044 	ldrh.w	r2, [r3, #68]	; 0x44
 8000ce6:	0556      	lsls	r6, r2, #21
 8000ce8:	d5fb      	bpl.n	8000ce2 <HAL_PCD_IRQHandler+0x10e>
 8000cea:	f8b3 2044 	ldrh.w	r2, [r3, #68]	; 0x44
 8000cee:	f422 6280 	bic.w	r2, r2, #1024	; 0x400
 8000cf2:	0412      	lsls	r2, r2, #16
 8000cf4:	0c12      	lsrs	r2, r2, #16
 8000cf6:	f8a3 2044 	strh.w	r2, [r3, #68]	; 0x44
 8000cfa:	f830 2b02 	ldrh.w	r2, [r0], #2
 8000cfe:	f821 2b04 	strh.w	r2, [r1], #4
 8000d02:	428d      	cmp	r5, r1
 8000d04:	d1f9      	bne.n	8000cfa <HAL_PCD_IRQHandler+0x126>
 8000d06:	f8b3 2040 	ldrh.w	r2, [r3, #64]	; 0x40
 8000d0a:	4620      	mov	r0, r4
 8000d0c:	b292      	uxth	r2, r2
 8000d0e:	f042 0208 	orr.w	r2, r2, #8
 8000d12:	f8a3 2040 	strh.w	r2, [r3, #64]	; 0x40
 8000d16:	f8b3 2044 	ldrh.w	r2, [r3, #68]	; 0x44
 8000d1a:	f422 6200 	bic.w	r2, r2, #2048	; 0x800
 8000d1e:	0412      	lsls	r2, r2, #16
 8000d20:	0c12      	lsrs	r2, r2, #16
 8000d22:	f8a3 2044 	strh.w	r2, [r3, #68]	; 0x44
 8000d26:	f8b3 2040 	ldrh.w	r2, [r3, #64]	; 0x40
 8000d2a:	b292      	uxth	r2, r2
 8000d2c:	f042 0204 	orr.w	r2, r2, #4
 8000d30:	f8a3 2040 	strh.w	r2, [r3, #64]	; 0x40
 8000d34:	f004 fe0c 	bl	8005950 <HAL_PCD_SuspendCallback>
 8000d38:	6820      	ldr	r0, [r4, #0]
 8000d3a:	f002 f859 	bl	8002df0 <USB_ReadInterrupts>
 8000d3e:	0582      	lsls	r2, r0, #22
 8000d40:	d50b      	bpl.n	8000d5a <HAL_PCD_IRQHandler+0x186>
 8000d42:	6822      	ldr	r2, [r4, #0]
 8000d44:	4620      	mov	r0, r4
 8000d46:	f8b2 3044 	ldrh.w	r3, [r2, #68]	; 0x44
 8000d4a:	f423 7300 	bic.w	r3, r3, #512	; 0x200
 8000d4e:	041b      	lsls	r3, r3, #16
 8000d50:	0c1b      	lsrs	r3, r3, #16
 8000d52:	f8a2 3044 	strh.w	r3, [r2, #68]	; 0x44
 8000d56:	f004 fde4 	bl	8005922 <HAL_PCD_SOFCallback>
 8000d5a:	6820      	ldr	r0, [r4, #0]
 8000d5c:	f002 f848 	bl	8002df0 <USB_ReadInterrupts>
 8000d60:	05c3      	lsls	r3, r0, #23
 8000d62:	d508      	bpl.n	8000d76 <HAL_PCD_IRQHandler+0x1a2>
 8000d64:	6822      	ldr	r2, [r4, #0]
 8000d66:	f8b2 3044 	ldrh.w	r3, [r2, #68]	; 0x44
 8000d6a:	f423 7380 	bic.w	r3, r3, #256	; 0x100
 8000d6e:	041b      	lsls	r3, r3, #16
 8000d70:	0c1b      	lsrs	r3, r3, #16
 8000d72:	f8a2 3044 	strh.w	r3, [r2, #68]	; 0x44
 8000d76:	b005      	add	sp, #20
 8000d78:	e8bd 8ff0 	ldmia.w	sp!, {r4, r5, r6, r7, r8, r9, sl, fp, pc}
 8000d7c:	f8b0 6044 	ldrh.w	r6, [r0, #68]	; 0x44
 8000d80:	b2b1      	uxth	r1, r6
 8000d82:	f016 060f 	ands.w	r6, r6, #15
 8000d86:	f040 80c1 	bne.w	8000f0c <HAL_PCD_IRQHandler+0x338>
 8000d8a:	f011 0110 	ands.w	r1, r1, #16
 8000d8e:	d12d      	bne.n	8000dec <HAL_PCD_IRQHandler+0x218>
 8000d90:	8803      	ldrh	r3, [r0, #0]
 8000d92:	b29b      	uxth	r3, r3
 8000d94:	ea03 0309 	and.w	r3, r3, r9
 8000d98:	f443 4300 	orr.w	r3, r3, #32768	; 0x8000
 8000d9c:	8003      	strh	r3, [r0, #0]
 8000d9e:	f8b0 3050 	ldrh.w	r3, [r0, #80]	; 0x50
 8000da2:	f894 2028 	ldrb.w	r2, [r4, #40]	; 0x28
 8000da6:	b29b      	uxth	r3, r3
 8000da8:	eb03 03c2 	add.w	r3, r3, r2, lsl #3
 8000dac:	eb00 0043 	add.w	r0, r0, r3, lsl #1
 8000db0:	f8b0 3404 	ldrh.w	r3, [r0, #1028]	; 0x404
 8000db4:	6be2      	ldr	r2, [r4, #60]	; 0x3c
 8000db6:	f3c3 0309 	ubfx	r3, r3, #0, #10
 8000dba:	6463      	str	r3, [r4, #68]	; 0x44
 8000dbc:	4413      	add	r3, r2
 8000dbe:	63e3      	str	r3, [r4, #60]	; 0x3c
 8000dc0:	4620      	mov	r0, r4
 8000dc2:	f004 fda6 	bl	8005912 <HAL_PCD_DataInStageCallback>
 8000dc6:	f894 3024 	ldrb.w	r3, [r4, #36]	; 0x24
 8000dca:	2b00      	cmp	r3, #0
 8000dcc:	f43f af0f 	beq.w	8000bee <HAL_PCD_IRQHandler+0x1a>
 8000dd0:	6c22      	ldr	r2, [r4, #64]	; 0x40
 8000dd2:	2a00      	cmp	r2, #0
 8000dd4:	f47f af0b 	bne.w	8000bee <HAL_PCD_IRQHandler+0x1a>
 8000dd8:	f894 3024 	ldrb.w	r3, [r4, #36]	; 0x24
 8000ddc:	6821      	ldr	r1, [r4, #0]
 8000dde:	f043 0380 	orr.w	r3, r3, #128	; 0x80
 8000de2:	f8a1 304c 	strh.w	r3, [r1, #76]	; 0x4c
 8000de6:	f884 2024 	strb.w	r2, [r4, #36]	; 0x24
 8000dea:	e700      	b.n	8000bee <HAL_PCD_IRQHandler+0x1a>
 8000dec:	8805      	ldrh	r5, [r0, #0]
 8000dee:	b2ab      	uxth	r3, r5
 8000df0:	f415 6500 	ands.w	r5, r5, #2048	; 0x800
 8000df4:	d021      	beq.n	8000e3a <HAL_PCD_IRQHandler+0x266>
 8000df6:	f8b0 3050 	ldrh.w	r3, [r0, #80]	; 0x50
 8000dfa:	f894 2168 	ldrb.w	r2, [r4, #360]	; 0x168
 8000dfe:	b29b      	uxth	r3, r3
 8000e00:	eb03 03c2 	add.w	r3, r3, r2, lsl #3
 8000e04:	eb00 0343 	add.w	r3, r0, r3, lsl #1
 8000e08:	f8b3 340c 	ldrh.w	r3, [r3, #1036]	; 0x40c
 8000e0c:	f8b4 216e 	ldrh.w	r2, [r4, #366]	; 0x16e
 8000e10:	f3c3 0309 	ubfx	r3, r3, #0, #10
 8000e14:	f8c4 3184 	str.w	r3, [r4, #388]	; 0x184
 8000e18:	f504 712c 	add.w	r1, r4, #688	; 0x2b0
 8000e1c:	f002 fa8c 	bl	8003338 <USB_ReadPMA>
 8000e20:	6822      	ldr	r2, [r4, #0]
 8000e22:	4620      	mov	r0, r4
 8000e24:	8813      	ldrh	r3, [r2, #0]
 8000e26:	f023 0370 	bic.w	r3, r3, #112	; 0x70
 8000e2a:	051b      	lsls	r3, r3, #20
 8000e2c:	0d1b      	lsrs	r3, r3, #20
 8000e2e:	f043 0380 	orr.w	r3, r3, #128	; 0x80
 8000e32:	8013      	strh	r3, [r2, #0]
 8000e34:	f004 fd5e 	bl	80058f4 <HAL_PCD_SetupStageCallback>
 8000e38:	e6d9      	b.n	8000bee <HAL_PCD_IRQHandler+0x1a>
 8000e3a:	041b      	lsls	r3, r3, #16
 8000e3c:	f57f aed7 	bpl.w	8000bee <HAL_PCD_IRQHandler+0x1a>
 8000e40:	8803      	ldrh	r3, [r0, #0]
 8000e42:	f023 0370 	bic.w	r3, r3, #112	; 0x70
 8000e46:	051b      	lsls	r3, r3, #20
 8000e48:	0d1b      	lsrs	r3, r3, #20
 8000e4a:	f043 0380 	orr.w	r3, r3, #128	; 0x80
 8000e4e:	8003      	strh	r3, [r0, #0]
 8000e50:	f8b0 3050 	ldrh.w	r3, [r0, #80]	; 0x50
 8000e54:	f894 2168 	ldrb.w	r2, [r4, #360]	; 0x168
 8000e58:	b29b      	uxth	r3, r3
 8000e5a:	eb03 03c2 	add.w	r3, r3, r2, lsl #3
 8000e5e:	eb00 0343 	add.w	r3, r0, r3, lsl #1
 8000e62:	f8b3 340c 	ldrh.w	r3, [r3, #1036]	; 0x40c
 8000e66:	f3c3 0309 	ubfx	r3, r3, #0, #10
 8000e6a:	f8c4 3184 	str.w	r3, [r4, #388]	; 0x184
 8000e6e:	b18b      	cbz	r3, 8000e94 <HAL_PCD_IRQHandler+0x2c0>
 8000e70:	f8d4 117c 	ldr.w	r1, [r4, #380]	; 0x17c
 8000e74:	b171      	cbz	r1, 8000e94 <HAL_PCD_IRQHandler+0x2c0>
 8000e76:	f8b4 216e 	ldrh.w	r2, [r4, #366]	; 0x16e
 8000e7a:	f002 fa5d 	bl	8003338 <USB_ReadPMA>
 8000e7e:	f8d4 317c 	ldr.w	r3, [r4, #380]	; 0x17c
 8000e82:	f8d4 2184 	ldr.w	r2, [r4, #388]	; 0x184
 8000e86:	4629      	mov	r1, r5
 8000e88:	4413      	add	r3, r2
 8000e8a:	4620      	mov	r0, r4
 8000e8c:	f8c4 317c 	str.w	r3, [r4, #380]	; 0x17c
 8000e90:	f004 fd36 	bl	8005900 <HAL_PCD_DataOutStageCallback>
 8000e94:	6821      	ldr	r1, [r4, #0]
 8000e96:	880b      	ldrh	r3, [r1, #0]
 8000e98:	051f      	lsls	r7, r3, #20
 8000e9a:	f53f aea8 	bmi.w	8000bee <HAL_PCD_IRQHandler+0x1a>
 8000e9e:	f8b1 3050 	ldrh.w	r3, [r1, #80]	; 0x50
 8000ea2:	f8d4 5178 	ldr.w	r5, [r4, #376]	; 0x178
 8000ea6:	b29b      	uxth	r3, r3
 8000ea8:	f201 400c 	addw	r0, r1, #1036	; 0x40c
 8000eac:	b9cd      	cbnz	r5, 8000ee2 <HAL_PCD_IRQHandler+0x30e>
 8000eae:	5ac2      	ldrh	r2, [r0, r3]
 8000eb0:	f422 42f8 	bic.w	r2, r2, #31744	; 0x7c00
 8000eb4:	0412      	lsls	r2, r2, #16
 8000eb6:	0c12      	lsrs	r2, r2, #16
 8000eb8:	52c2      	strh	r2, [r0, r3]
 8000eba:	5ac2      	ldrh	r2, [r0, r3]
 8000ebc:	b292      	uxth	r2, r2
 8000ebe:	f442 4200 	orr.w	r2, r2, #32768	; 0x8000
 8000ec2:	52c2      	strh	r2, [r0, r3]
 8000ec4:	880b      	ldrh	r3, [r1, #0]
 8000ec6:	f423 4380 	bic.w	r3, r3, #16384	; 0x4000
 8000eca:	f023 0370 	bic.w	r3, r3, #112	; 0x70
 8000ece:	041b      	lsls	r3, r3, #16
 8000ed0:	0c1b      	lsrs	r3, r3, #16
 8000ed2:	f483 5340 	eor.w	r3, r3, #12288	; 0x3000
 8000ed6:	f443 4300 	orr.w	r3, r3, #32768	; 0x8000
 8000eda:	f043 0380 	orr.w	r3, r3, #128	; 0x80
 8000ede:	800b      	strh	r3, [r1, #0]
 8000ee0:	e685      	b.n	8000bee <HAL_PCD_IRQHandler+0x1a>
 8000ee2:	2d3e      	cmp	r5, #62	; 0x3e
 8000ee4:	d80a      	bhi.n	8000efc <HAL_PCD_IRQHandler+0x328>
 8000ee6:	086a      	lsrs	r2, r5, #1
 8000ee8:	07ee      	lsls	r6, r5, #31
 8000eea:	bf48      	it	mi
 8000eec:	3201      	addmi	r2, #1
 8000eee:	0292      	lsls	r2, r2, #10
 8000ef0:	b292      	uxth	r2, r2
 8000ef2:	e7e6      	b.n	8000ec2 <HAL_PCD_IRQHandler+0x2ee>
 8000ef4:	ffff8f0f 	.word	0xffff8f0f
 8000ef8:	ffff8000 	.word	0xffff8000
 8000efc:	096a      	lsrs	r2, r5, #5
 8000efe:	06ed      	lsls	r5, r5, #27
 8000f00:	bf08      	it	eq
 8000f02:	f102 32ff 	addeq.w	r2, r2, #4294967295
 8000f06:	ea48 2282 	orr.w	r2, r8, r2, lsl #10
 8000f0a:	e7f1      	b.n	8000ef0 <HAL_PCD_IRQHandler+0x31c>
 8000f0c:	f830 3026 	ldrh.w	r3, [r0, r6, lsl #2]
 8000f10:	0419      	lsls	r1, r3, #16
 8000f12:	b29f      	uxth	r7, r3
 8000f14:	f140 80ee 	bpl.w	80010f4 <HAL_PCD_IRQHandler+0x520>
 8000f18:	2128      	movs	r1, #40	; 0x28
 8000f1a:	f830 3026 	ldrh.w	r3, [r0, r6, lsl #2]
 8000f1e:	fb01 4106 	mla	r1, r1, r6, r4
 8000f22:	f023 0370 	bic.w	r3, r3, #112	; 0x70
 8000f26:	051b      	lsls	r3, r3, #20
 8000f28:	0d1b      	lsrs	r3, r3, #20
 8000f2a:	f043 0380 	orr.w	r3, r3, #128	; 0x80
 8000f2e:	f820 3026 	strh.w	r3, [r0, r6, lsl #2]
 8000f32:	f891 3174 	ldrb.w	r3, [r1, #372]	; 0x174
 8000f36:	f500 6c80 	add.w	ip, r0, #1024	; 0x400
 8000f3a:	b9b3      	cbnz	r3, 8000f6a <HAL_PCD_IRQHandler+0x396>
 8000f3c:	f8b0 3050 	ldrh.w	r3, [r0, #80]	; 0x50
 8000f40:	f891 2168 	ldrb.w	r2, [r1, #360]	; 0x168
 8000f44:	b29b      	uxth	r3, r3
 8000f46:	3306      	adds	r3, #6
 8000f48:	eb03 03c2 	add.w	r3, r3, r2, lsl #3
 8000f4c:	f83c 5013 	ldrh.w	r5, [ip, r3, lsl #1]
 8000f50:	f3c5 0509 	ubfx	r5, r5, #0, #10
 8000f54:	2d00      	cmp	r5, #0
 8000f56:	f000 80b1 	beq.w	80010bc <HAL_PCD_IRQHandler+0x4e8>
 8000f5a:	462b      	mov	r3, r5
 8000f5c:	f8b1 216e 	ldrh.w	r2, [r1, #366]	; 0x16e
 8000f60:	f8d1 117c 	ldr.w	r1, [r1, #380]	; 0x17c
 8000f64:	f002 f9e8 	bl	8003338 <USB_ReadPMA>
 8000f68:	e0a8      	b.n	80010bc <HAL_PCD_IRQHandler+0x4e8>
 8000f6a:	f891 216b 	ldrb.w	r2, [r1, #363]	; 0x16b
 8000f6e:	f891 3168 	ldrb.w	r3, [r1, #360]	; 0x168
 8000f72:	2a02      	cmp	r2, #2
 8000f74:	f040 8081 	bne.w	800107a <HAL_PCD_IRQHandler+0x4a6>
 8000f78:	f8b0 5050 	ldrh.w	r5, [r0, #80]	; 0x50
 8000f7c:	f417 4a80 	ands.w	sl, r7, #16384	; 0x4000
 8000f80:	f8d1 2180 	ldr.w	r2, [r1, #384]	; 0x180
 8000f84:	ea4f 0bc3 	mov.w	fp, r3, lsl #3
 8000f88:	b2ad      	uxth	r5, r5
 8000f8a:	f007 0e40 	and.w	lr, r7, #64	; 0x40
 8000f8e:	d03b      	beq.n	8001008 <HAL_PCD_IRQHandler+0x434>
 8000f90:	44ab      	add	fp, r5
 8000f92:	f10b 0b02 	add.w	fp, fp, #2
 8000f96:	f83c 501b 	ldrh.w	r5, [ip, fp, lsl #1]
 8000f9a:	f3c5 0509 	ubfx	r5, r5, #0, #10
 8000f9e:	4295      	cmp	r5, r2
 8000fa0:	d913      	bls.n	8000fca <HAL_PCD_IRQHandler+0x3f6>
 8000fa2:	2200      	movs	r2, #0
 8000fa4:	f8c1 2180 	str.w	r2, [r1, #384]	; 0x180
 8000fa8:	f830 2023 	ldrh.w	r2, [r0, r3, lsl #2]
 8000fac:	f422 4280 	bic.w	r2, r2, #16384	; 0x4000
 8000fb0:	f022 0270 	bic.w	r2, r2, #112	; 0x70
 8000fb4:	0412      	lsls	r2, r2, #16
 8000fb6:	0c12      	lsrs	r2, r2, #16
 8000fb8:	f482 5200 	eor.w	r2, r2, #8192	; 0x2000
 8000fbc:	f442 4200 	orr.w	r2, r2, #32768	; 0x8000
 8000fc0:	f042 0280 	orr.w	r2, r2, #128	; 0x80
 8000fc4:	f820 2023 	strh.w	r2, [r0, r3, lsl #2]
 8000fc8:	e004      	b.n	8000fd4 <HAL_PCD_IRQHandler+0x400>
 8000fca:	1b52      	subs	r2, r2, r5
 8000fcc:	f8c1 2180 	str.w	r2, [r1, #384]	; 0x180
 8000fd0:	2a00      	cmp	r2, #0
 8000fd2:	d0e9      	beq.n	8000fa8 <HAL_PCD_IRQHandler+0x3d4>
 8000fd4:	f1be 0f00 	cmp.w	lr, #0
 8000fd8:	d00d      	beq.n	8000ff6 <HAL_PCD_IRQHandler+0x422>
 8000fda:	f830 2023 	ldrh.w	r2, [r0, r3, lsl #2]
 8000fde:	f422 42e0 	bic.w	r2, r2, #28672	; 0x7000
 8000fe2:	f022 0270 	bic.w	r2, r2, #112	; 0x70
 8000fe6:	0412      	lsls	r2, r2, #16
 8000fe8:	0c12      	lsrs	r2, r2, #16
 8000fea:	f442 4200 	orr.w	r2, r2, #32768	; 0x8000
 8000fee:	f042 02c0 	orr.w	r2, r2, #192	; 0xc0
 8000ff2:	f820 2023 	strh.w	r2, [r0, r3, lsl #2]
 8000ff6:	2d00      	cmp	r5, #0
 8000ff8:	d060      	beq.n	80010bc <HAL_PCD_IRQHandler+0x4e8>
 8000ffa:	2128      	movs	r1, #40	; 0x28
 8000ffc:	fb01 4106 	mla	r1, r1, r6, r4
 8001000:	462b      	mov	r3, r5
 8001002:	f8b1 2170 	ldrh.w	r2, [r1, #368]	; 0x170
 8001006:	e7ab      	b.n	8000f60 <HAL_PCD_IRQHandler+0x38c>
 8001008:	445d      	add	r5, fp
 800100a:	3506      	adds	r5, #6
 800100c:	f83c 5015 	ldrh.w	r5, [ip, r5, lsl #1]
 8001010:	f3c5 0509 	ubfx	r5, r5, #0, #10
 8001014:	4295      	cmp	r5, r2
 8001016:	d912      	bls.n	800103e <HAL_PCD_IRQHandler+0x46a>
 8001018:	f8c1 a180 	str.w	sl, [r1, #384]	; 0x180
 800101c:	f830 2023 	ldrh.w	r2, [r0, r3, lsl #2]
 8001020:	f422 4280 	bic.w	r2, r2, #16384	; 0x4000
 8001024:	f022 0270 	bic.w	r2, r2, #112	; 0x70
 8001028:	0412      	lsls	r2, r2, #16
 800102a:	0c12      	lsrs	r2, r2, #16
 800102c:	f482 5200 	eor.w	r2, r2, #8192	; 0x2000
 8001030:	f442 4200 	orr.w	r2, r2, #32768	; 0x8000
 8001034:	f042 0280 	orr.w	r2, r2, #128	; 0x80
 8001038:	f820 2023 	strh.w	r2, [r0, r3, lsl #2]
 800103c:	e004      	b.n	8001048 <HAL_PCD_IRQHandler+0x474>
 800103e:	1b52      	subs	r2, r2, r5
 8001040:	f8c1 2180 	str.w	r2, [r1, #384]	; 0x180
 8001044:	2a00      	cmp	r2, #0
 8001046:	d0e9      	beq.n	800101c <HAL_PCD_IRQHandler+0x448>
 8001048:	f1be 0f00 	cmp.w	lr, #0
 800104c:	d10d      	bne.n	800106a <HAL_PCD_IRQHandler+0x496>
 800104e:	f830 2023 	ldrh.w	r2, [r0, r3, lsl #2]
 8001052:	f422 42e0 	bic.w	r2, r2, #28672	; 0x7000
 8001056:	f022 0270 	bic.w	r2, r2, #112	; 0x70
 800105a:	0412      	lsls	r2, r2, #16
 800105c:	0c12      	lsrs	r2, r2, #16
 800105e:	f442 4200 	orr.w	r2, r2, #32768	; 0x8000
 8001062:	f042 02c0 	orr.w	r2, r2, #192	; 0xc0
 8001066:	f820 2023 	strh.w	r2, [r0, r3, lsl #2]
 800106a:	b33d      	cbz	r5, 80010bc <HAL_PCD_IRQHandler+0x4e8>
 800106c:	2128      	movs	r1, #40	; 0x28
 800106e:	fb01 4106 	mla	r1, r1, r6, r4
 8001072:	462b      	mov	r3, r5
 8001074:	f8b1 2172 	ldrh.w	r2, [r1, #370]	; 0x172
 8001078:	e772      	b.n	8000f60 <HAL_PCD_IRQHandler+0x38c>
 800107a:	f830 2023 	ldrh.w	r2, [r0, r3, lsl #2]
 800107e:	f422 42e0 	bic.w	r2, r2, #28672	; 0x7000
 8001082:	f022 0270 	bic.w	r2, r2, #112	; 0x70
 8001086:	0412      	lsls	r2, r2, #16
 8001088:	0c12      	lsrs	r2, r2, #16
 800108a:	f442 4200 	orr.w	r2, r2, #32768	; 0x8000
 800108e:	f042 02c0 	orr.w	r2, r2, #192	; 0xc0
 8001092:	f820 2023 	strh.w	r2, [r0, r3, lsl #2]
 8001096:	f891 3168 	ldrb.w	r3, [r1, #360]	; 0x168
 800109a:	f830 2023 	ldrh.w	r2, [r0, r3, lsl #2]
 800109e:	00db      	lsls	r3, r3, #3
 80010a0:	f412 4f80 	tst.w	r2, #16384	; 0x4000
 80010a4:	f8b0 2050 	ldrh.w	r2, [r0, #80]	; 0x50
 80010a8:	b292      	uxth	r2, r2
 80010aa:	d056      	beq.n	800115a <HAL_PCD_IRQHandler+0x586>
 80010ac:	3202      	adds	r2, #2
 80010ae:	4413      	add	r3, r2
 80010b0:	f83c 5013 	ldrh.w	r5, [ip, r3, lsl #1]
 80010b4:	f3c5 0509 	ubfx	r5, r5, #0, #10
 80010b8:	2d00      	cmp	r5, #0
 80010ba:	d1a1      	bne.n	8001000 <HAL_PCD_IRQHandler+0x42c>
 80010bc:	2128      	movs	r1, #40	; 0x28
 80010be:	4371      	muls	r1, r6
 80010c0:	1863      	adds	r3, r4, r1
 80010c2:	f8d3 2184 	ldr.w	r2, [r3, #388]	; 0x184
 80010c6:	442a      	add	r2, r5
 80010c8:	f8c3 2184 	str.w	r2, [r3, #388]	; 0x184
 80010cc:	f8d3 217c 	ldr.w	r2, [r3, #380]	; 0x17c
 80010d0:	442a      	add	r2, r5
 80010d2:	f8c3 217c 	str.w	r2, [r3, #380]	; 0x17c
 80010d6:	f8d3 2180 	ldr.w	r2, [r3, #384]	; 0x180
 80010da:	b11a      	cbz	r2, 80010e4 <HAL_PCD_IRQHandler+0x510>
 80010dc:	f8d3 3178 	ldr.w	r3, [r3, #376]	; 0x178
 80010e0:	429d      	cmp	r5, r3
 80010e2:	d243      	bcs.n	800116c <HAL_PCD_IRQHandler+0x598>
 80010e4:	2328      	movs	r3, #40	; 0x28
 80010e6:	fb03 4306 	mla	r3, r3, r6, r4
 80010ea:	4620      	mov	r0, r4
 80010ec:	f893 1168 	ldrb.w	r1, [r3, #360]	; 0x168
 80010f0:	f004 fc06 	bl	8005900 <HAL_PCD_DataOutStageCallback>
 80010f4:	063a      	lsls	r2, r7, #24
 80010f6:	f57f ad7a 	bpl.w	8000bee <HAL_PCD_IRQHandler+0x1a>
 80010fa:	2528      	movs	r5, #40	; 0x28
 80010fc:	6820      	ldr	r0, [r4, #0]
 80010fe:	fb05 4506 	mla	r5, r5, r6, r4
 8001102:	f830 3026 	ldrh.w	r3, [r0, r6, lsl #2]
 8001106:	b29b      	uxth	r3, r3
 8001108:	ea03 0309 	and.w	r3, r3, r9
 800110c:	f443 4300 	orr.w	r3, r3, #32768	; 0x8000
 8001110:	f820 3026 	strh.w	r3, [r0, r6, lsl #2]
 8001114:	f895 302b 	ldrb.w	r3, [r5, #43]	; 0x2b
 8001118:	f895 1028 	ldrb.w	r1, [r5, #40]	; 0x28
 800111c:	2b03      	cmp	r3, #3
 800111e:	d004      	beq.n	800112a <HAL_PCD_IRQHandler+0x556>
 8001120:	b11b      	cbz	r3, 800112a <HAL_PCD_IRQHandler+0x556>
 8001122:	2b02      	cmp	r3, #2
 8001124:	d13a      	bne.n	800119c <HAL_PCD_IRQHandler+0x5c8>
 8001126:	05fb      	lsls	r3, r7, #23
 8001128:	d438      	bmi.n	800119c <HAL_PCD_IRQHandler+0x5c8>
 800112a:	2528      	movs	r5, #40	; 0x28
 800112c:	f8b0 3050 	ldrh.w	r3, [r0, #80]	; 0x50
 8001130:	fb05 4206 	mla	r2, r5, r6, r4
 8001134:	b29b      	uxth	r3, r3
 8001136:	3302      	adds	r3, #2
 8001138:	eb03 03c1 	add.w	r3, r3, r1, lsl #3
 800113c:	eb00 0343 	add.w	r3, r0, r3, lsl #1
 8001140:	f8b3 c400 	ldrh.w	ip, [r3, #1024]	; 0x400
 8001144:	6c17      	ldr	r7, [r2, #64]	; 0x40
 8001146:	f3cc 0c09 	ubfx	ip, ip, #0, #10
 800114a:	4567      	cmp	r7, ip
 800114c:	d815      	bhi.n	800117a <HAL_PCD_IRQHandler+0x5a6>
 800114e:	2300      	movs	r3, #0
 8001150:	6413      	str	r3, [r2, #64]	; 0x40
 8001152:	4620      	mov	r0, r4
 8001154:	f004 fbdd 	bl	8005912 <HAL_PCD_DataInStageCallback>
 8001158:	e549      	b.n	8000bee <HAL_PCD_IRQHandler+0x1a>
 800115a:	3206      	adds	r2, #6
 800115c:	4413      	add	r3, r2
 800115e:	f83c 5013 	ldrh.w	r5, [ip, r3, lsl #1]
 8001162:	f3c5 0509 	ubfx	r5, r5, #0, #10
 8001166:	2d00      	cmp	r5, #0
 8001168:	d0a8      	beq.n	80010bc <HAL_PCD_IRQHandler+0x4e8>
 800116a:	e782      	b.n	8001072 <HAL_PCD_IRQHandler+0x49e>
 800116c:	f501 71b4 	add.w	r1, r1, #360	; 0x168
 8001170:	6820      	ldr	r0, [r4, #0]
 8001172:	4421      	add	r1, r4
 8001174:	f001 fe52 	bl	8002e1c <USB_EPStartXfer>
 8001178:	e7bc      	b.n	80010f4 <HAL_PCD_IRQHandler+0x520>
 800117a:	eba7 070c 	sub.w	r7, r7, ip
 800117e:	6417      	str	r7, [r2, #64]	; 0x40
 8001180:	2f00      	cmp	r7, #0
 8001182:	d0e6      	beq.n	8001152 <HAL_PCD_IRQHandler+0x57e>
 8001184:	fb06 5505 	mla	r5, r6, r5, r5
 8001188:	6bd1      	ldr	r1, [r2, #60]	; 0x3c
 800118a:	6c53      	ldr	r3, [r2, #68]	; 0x44
 800118c:	4461      	add	r1, ip
 800118e:	4463      	add	r3, ip
 8001190:	63d1      	str	r1, [r2, #60]	; 0x3c
 8001192:	6453      	str	r3, [r2, #68]	; 0x44
 8001194:	1961      	adds	r1, r4, r5
 8001196:	f001 fe41 	bl	8002e1c <USB_EPStartXfer>
 800119a:	e528      	b.n	8000bee <HAL_PCD_IRQHandler+0x1a>
 800119c:	2328      	movs	r3, #40	; 0x28
 800119e:	fb03 4306 	mla	r3, r3, r6, r4
 80011a2:	f8b0 c050 	ldrh.w	ip, [r0, #80]	; 0x50
 80011a6:	ea4f 0ac1 	mov.w	sl, r1, lsl #3
 80011aa:	fa1f fc8c 	uxth.w	ip, ip
 80011ae:	f017 0240 	ands.w	r2, r7, #64	; 0x40
 80011b2:	6c1b      	ldr	r3, [r3, #64]	; 0x40
 80011b4:	f500 6e80 	add.w	lr, r0, #1024	; 0x400
 80011b8:	44d4      	add	ip, sl
 80011ba:	f407 4780 	and.w	r7, r7, #16384	; 0x4000
 80011be:	f000 80e4 	beq.w	800138a <HAL_PCD_IRQHandler+0x7b6>
 80011c2:	f10c 0c02 	add.w	ip, ip, #2
 80011c6:	f83e c01c 	ldrh.w	ip, [lr, ip, lsl #1]
 80011ca:	2228      	movs	r2, #40	; 0x28
 80011cc:	f3cc 0c09 	ubfx	ip, ip, #0, #10
 80011d0:	459c      	cmp	ip, r3
 80011d2:	bf28      	it	cs
 80011d4:	2300      	movcs	r3, #0
 80011d6:	fb02 4206 	mla	r2, r2, r6, r4
 80011da:	bf38      	it	cc
 80011dc:	eba3 030c 	subcc.w	r3, r3, ip
 80011e0:	6413      	str	r3, [r2, #64]	; 0x40
 80011e2:	b2bf      	uxth	r7, r7
 80011e4:	2b00      	cmp	r3, #0
 80011e6:	d151      	bne.n	800128c <HAL_PCD_IRQHandler+0x6b8>
 80011e8:	f895 2029 	ldrb.w	r2, [r5, #41]	; 0x29
 80011ec:	2a00      	cmp	r2, #0
 80011ee:	d13a      	bne.n	8001266 <HAL_PCD_IRQHandler+0x692>
 80011f0:	f8b0 6050 	ldrh.w	r6, [r0, #80]	; 0x50
 80011f4:	010b      	lsls	r3, r1, #4
 80011f6:	b2b2      	uxth	r2, r6
 80011f8:	f200 4604 	addw	r6, r0, #1028	; 0x404
 80011fc:	4416      	add	r6, r2
 80011fe:	5af2      	ldrh	r2, [r6, r3]
 8001200:	f422 42f8 	bic.w	r2, r2, #31744	; 0x7c00
 8001204:	0412      	lsls	r2, r2, #16
 8001206:	0c12      	lsrs	r2, r2, #16
 8001208:	52f2      	strh	r2, [r6, r3]
 800120a:	5af2      	ldrh	r2, [r6, r3]
 800120c:	b292      	uxth	r2, r2
 800120e:	f442 4200 	orr.w	r2, r2, #32768	; 0x8000
 8001212:	52f2      	strh	r2, [r6, r3]
 8001214:	f8b0 2050 	ldrh.w	r2, [r0, #80]	; 0x50
 8001218:	f200 400c 	addw	r0, r0, #1036	; 0x40c
 800121c:	b292      	uxth	r2, r2
 800121e:	4410      	add	r0, r2
 8001220:	5ac2      	ldrh	r2, [r0, r3]
 8001222:	f422 42f8 	bic.w	r2, r2, #31744	; 0x7c00
 8001226:	0412      	lsls	r2, r2, #16
 8001228:	0c12      	lsrs	r2, r2, #16
 800122a:	52c2      	strh	r2, [r0, r3]
 800122c:	5ac2      	ldrh	r2, [r0, r3]
 800122e:	b292      	uxth	r2, r2
 8001230:	f442 4200 	orr.w	r2, r2, #32768	; 0x8000
 8001234:	52c2      	strh	r2, [r0, r3]
 8001236:	4620      	mov	r0, r4
 8001238:	f004 fb6b 	bl	8005912 <HAL_PCD_DataInStageCallback>
 800123c:	2f00      	cmp	r7, #0
 800123e:	f000 80e2 	beq.w	8001406 <HAL_PCD_IRQHandler+0x832>
 8001242:	f895 1028 	ldrb.w	r1, [r5, #40]	; 0x28
 8001246:	6822      	ldr	r2, [r4, #0]
 8001248:	f832 3021 	ldrh.w	r3, [r2, r1, lsl #2]
 800124c:	f423 43e0 	bic.w	r3, r3, #28672	; 0x7000
 8001250:	f023 0370 	bic.w	r3, r3, #112	; 0x70
 8001254:	041b      	lsls	r3, r3, #16
 8001256:	0c1b      	lsrs	r3, r3, #16
 8001258:	f443 4340 	orr.w	r3, r3, #49152	; 0xc000
 800125c:	f043 0380 	orr.w	r3, r3, #128	; 0x80
 8001260:	f822 3021 	strh.w	r3, [r2, r1, lsl #2]
 8001264:	e0cf      	b.n	8001406 <HAL_PCD_IRQHandler+0x832>
 8001266:	2a01      	cmp	r2, #1
 8001268:	d1e5      	bne.n	8001236 <HAL_PCD_IRQHandler+0x662>
 800126a:	f8b0 6050 	ldrh.w	r6, [r0, #80]	; 0x50
 800126e:	010a      	lsls	r2, r1, #4
 8001270:	fa1f fc86 	uxth.w	ip, r6
 8001274:	f200 4604 	addw	r6, r0, #1028	; 0x404
 8001278:	4466      	add	r6, ip
 800127a:	52b3      	strh	r3, [r6, r2]
 800127c:	f8b0 6050 	ldrh.w	r6, [r0, #80]	; 0x50
 8001280:	f200 400c 	addw	r0, r0, #1036	; 0x40c
 8001284:	b2b6      	uxth	r6, r6
 8001286:	4430      	add	r0, r6
 8001288:	5283      	strh	r3, [r0, r2]
 800128a:	e7d4      	b.n	8001236 <HAL_PCD_IRQHandler+0x662>
 800128c:	b16f      	cbz	r7, 80012aa <HAL_PCD_IRQHandler+0x6d6>
 800128e:	f830 3021 	ldrh.w	r3, [r0, r1, lsl #2]
 8001292:	f423 43e0 	bic.w	r3, r3, #28672	; 0x7000
 8001296:	f023 0370 	bic.w	r3, r3, #112	; 0x70
 800129a:	041b      	lsls	r3, r3, #16
 800129c:	0c1b      	lsrs	r3, r3, #16
 800129e:	f443 4340 	orr.w	r3, r3, #49152	; 0xc000
 80012a2:	f043 0380 	orr.w	r3, r3, #128	; 0x80
 80012a6:	f820 3021 	strh.w	r3, [r0, r1, lsl #2]
 80012aa:	2328      	movs	r3, #40	; 0x28
 80012ac:	fb03 4306 	mla	r3, r3, r6, r4
 80012b0:	f893 204c 	ldrb.w	r2, [r3, #76]	; 0x4c
 80012b4:	2a01      	cmp	r2, #1
 80012b6:	f040 80a6 	bne.w	8001406 <HAL_PCD_IRQHandler+0x832>
 80012ba:	6bda      	ldr	r2, [r3, #60]	; 0x3c
 80012bc:	f8d3 e048 	ldr.w	lr, [r3, #72]	; 0x48
 80012c0:	eb02 070c 	add.w	r7, r2, ip
 80012c4:	6c5a      	ldr	r2, [r3, #68]	; 0x44
 80012c6:	63df      	str	r7, [r3, #60]	; 0x3c
 80012c8:	4462      	add	r2, ip
 80012ca:	645a      	str	r2, [r3, #68]	; 0x44
 80012cc:	6b9a      	ldr	r2, [r3, #56]	; 0x38
 80012ce:	4596      	cmp	lr, r2
 80012d0:	d329      	bcc.n	8001326 <HAL_PCD_IRQHandler+0x752>
 80012d2:	ebae 0e02 	sub.w	lr, lr, r2
 80012d6:	f8c3 e048 	str.w	lr, [r3, #72]	; 0x48
 80012da:	f895 c029 	ldrb.w	ip, [r5, #41]	; 0x29
 80012de:	b293      	uxth	r3, r2
 80012e0:	f1bc 0f00 	cmp.w	ip, #0
 80012e4:	d144      	bne.n	8001370 <HAL_PCD_IRQHandler+0x79c>
 80012e6:	f8b0 c050 	ldrh.w	ip, [r0, #80]	; 0x50
 80012ea:	f200 4e04 	addw	lr, r0, #1028	; 0x404
 80012ee:	fa1f fc8c 	uxth.w	ip, ip
 80012f2:	44f4      	add	ip, lr
 80012f4:	0109      	lsls	r1, r1, #4
 80012f6:	bb1a      	cbnz	r2, 8001340 <HAL_PCD_IRQHandler+0x76c>
 80012f8:	f83c 2001 	ldrh.w	r2, [ip, r1]
 80012fc:	f422 42f8 	bic.w	r2, r2, #31744	; 0x7c00
 8001300:	0412      	lsls	r2, r2, #16
 8001302:	0c12      	lsrs	r2, r2, #16
 8001304:	f82c 2001 	strh.w	r2, [ip, r1]
 8001308:	f83c 2001 	ldrh.w	r2, [ip, r1]
 800130c:	b292      	uxth	r2, r2
 800130e:	f442 4200 	orr.w	r2, r2, #32768	; 0x8000
 8001312:	f82c 2001 	strh.w	r2, [ip, r1]
 8001316:	2128      	movs	r1, #40	; 0x28
 8001318:	fb01 4606 	mla	r6, r1, r6, r4
 800131c:	8e32      	ldrh	r2, [r6, #48]	; 0x30
 800131e:	4639      	mov	r1, r7
 8001320:	f001 fd6c 	bl	8002dfc <USB_WritePMA>
 8001324:	e06f      	b.n	8001406 <HAL_PCD_IRQHandler+0x832>
 8001326:	f1be 0f00 	cmp.w	lr, #0
 800132a:	d103      	bne.n	8001334 <HAL_PCD_IRQHandler+0x760>
 800132c:	4662      	mov	r2, ip
 800132e:	f883 e04c 	strb.w	lr, [r3, #76]	; 0x4c
 8001332:	e7d2      	b.n	80012da <HAL_PCD_IRQHandler+0x706>
 8001334:	2200      	movs	r2, #0
 8001336:	f883 204c 	strb.w	r2, [r3, #76]	; 0x4c
 800133a:	649a      	str	r2, [r3, #72]	; 0x48
 800133c:	4672      	mov	r2, lr
 800133e:	e7cc      	b.n	80012da <HAL_PCD_IRQHandler+0x706>
 8001340:	2a3e      	cmp	r2, #62	; 0x3e
 8001342:	d80c      	bhi.n	800135e <HAL_PCD_IRQHandler+0x78a>
 8001344:	ea4f 0e52 	mov.w	lr, r2, lsr #1
 8001348:	07d2      	lsls	r2, r2, #31
 800134a:	bf48      	it	mi
 800134c:	f10e 0e01 	addmi.w	lr, lr, #1
 8001350:	ea4f 2e8e 	mov.w	lr, lr, lsl #10
 8001354:	fa1f fe8e 	uxth.w	lr, lr
 8001358:	f82c e001 	strh.w	lr, [ip, r1]
 800135c:	e7db      	b.n	8001316 <HAL_PCD_IRQHandler+0x742>
 800135e:	ea4f 1e52 	mov.w	lr, r2, lsr #5
 8001362:	06d2      	lsls	r2, r2, #27
 8001364:	bf08      	it	eq
 8001366:	f10e 3eff 	addeq.w	lr, lr, #4294967295
 800136a:	ea48 2e8e 	orr.w	lr, r8, lr, lsl #10
 800136e:	e7f1      	b.n	8001354 <HAL_PCD_IRQHandler+0x780>
 8001370:	f1bc 0f01 	cmp.w	ip, #1
 8001374:	d1cf      	bne.n	8001316 <HAL_PCD_IRQHandler+0x742>
 8001376:	f8b0 2050 	ldrh.w	r2, [r0, #80]	; 0x50
 800137a:	0109      	lsls	r1, r1, #4
 800137c:	fa1f fc82 	uxth.w	ip, r2
 8001380:	f200 4204 	addw	r2, r0, #1028	; 0x404
 8001384:	4462      	add	r2, ip
 8001386:	5253      	strh	r3, [r2, r1]
 8001388:	e7c5      	b.n	8001316 <HAL_PCD_IRQHandler+0x742>
 800138a:	f10c 0c06 	add.w	ip, ip, #6
 800138e:	f83e c01c 	ldrh.w	ip, [lr, ip, lsl #1]
 8001392:	b2bf      	uxth	r7, r7
 8001394:	f3cc 0c09 	ubfx	ip, ip, #0, #10
 8001398:	459c      	cmp	ip, r3
 800139a:	bf98      	it	ls
 800139c:	eba3 020c 	subls.w	r2, r3, ip
 80013a0:	2328      	movs	r3, #40	; 0x28
 80013a2:	fb03 4306 	mla	r3, r3, r6, r4
 80013a6:	641a      	str	r2, [r3, #64]	; 0x40
 80013a8:	2a00      	cmp	r2, #0
 80013aa:	d152      	bne.n	8001452 <HAL_PCD_IRQHandler+0x87e>
 80013ac:	f895 3029 	ldrb.w	r3, [r5, #41]	; 0x29
 80013b0:	2b00      	cmp	r3, #0
 80013b2:	d13c      	bne.n	800142e <HAL_PCD_IRQHandler+0x85a>
 80013b4:	f8b0 6050 	ldrh.w	r6, [r0, #80]	; 0x50
 80013b8:	010b      	lsls	r3, r1, #4
 80013ba:	b2b2      	uxth	r2, r6
 80013bc:	f200 4604 	addw	r6, r0, #1028	; 0x404
 80013c0:	4416      	add	r6, r2
 80013c2:	5af2      	ldrh	r2, [r6, r3]
 80013c4:	f422 42f8 	bic.w	r2, r2, #31744	; 0x7c00
 80013c8:	0412      	lsls	r2, r2, #16
 80013ca:	0c12      	lsrs	r2, r2, #16
 80013cc:	52f2      	strh	r2, [r6, r3]
 80013ce:	5af2      	ldrh	r2, [r6, r3]
 80013d0:	b292      	uxth	r2, r2
 80013d2:	f442 4200 	orr.w	r2, r2, #32768	; 0x8000
 80013d6:	52f2      	strh	r2, [r6, r3]
 80013d8:	f8b0 2050 	ldrh.w	r2, [r0, #80]	; 0x50
 80013dc:	f200 400c 	addw	r0, r0, #1036	; 0x40c
 80013e0:	b292      	uxth	r2, r2
 80013e2:	4410      	add	r0, r2
 80013e4:	5ac2      	ldrh	r2, [r0, r3]
 80013e6:	f422 42f8 	bic.w	r2, r2, #31744	; 0x7c00
 80013ea:	0412      	lsls	r2, r2, #16
 80013ec:	0c12      	lsrs	r2, r2, #16
 80013ee:	52c2      	strh	r2, [r0, r3]
 80013f0:	5ac2      	ldrh	r2, [r0, r3]
 80013f2:	b292      	uxth	r2, r2
 80013f4:	f442 4200 	orr.w	r2, r2, #32768	; 0x8000
 80013f8:	52c2      	strh	r2, [r0, r3]
 80013fa:	4620      	mov	r0, r4
 80013fc:	f004 fa89 	bl	8005912 <HAL_PCD_DataInStageCallback>
 8001400:	2f00      	cmp	r7, #0
 8001402:	f43f af1e 	beq.w	8001242 <HAL_PCD_IRQHandler+0x66e>
 8001406:	f895 1028 	ldrb.w	r1, [r5, #40]	; 0x28
 800140a:	6822      	ldr	r2, [r4, #0]
 800140c:	f832 3021 	ldrh.w	r3, [r2, r1, lsl #2]
 8001410:	b29b      	uxth	r3, r3
 8001412:	f423 43e0 	bic.w	r3, r3, #28672	; 0x7000
 8001416:	f023 0340 	bic.w	r3, r3, #64	; 0x40
 800141a:	f083 0330 	eor.w	r3, r3, #48	; 0x30
 800141e:	f443 4300 	orr.w	r3, r3, #32768	; 0x8000
 8001422:	f043 0380 	orr.w	r3, r3, #128	; 0x80
 8001426:	f822 3021 	strh.w	r3, [r2, r1, lsl #2]
 800142a:	f7ff bbe0 	b.w	8000bee <HAL_PCD_IRQHandler+0x1a>
 800142e:	2b01      	cmp	r3, #1
 8001430:	d1e3      	bne.n	80013fa <HAL_PCD_IRQHandler+0x826>
 8001432:	f8b0 6050 	ldrh.w	r6, [r0, #80]	; 0x50
 8001436:	010b      	lsls	r3, r1, #4
 8001438:	fa1f fc86 	uxth.w	ip, r6
 800143c:	f200 4604 	addw	r6, r0, #1028	; 0x404
 8001440:	4466      	add	r6, ip
 8001442:	52f2      	strh	r2, [r6, r3]
 8001444:	f8b0 6050 	ldrh.w	r6, [r0, #80]	; 0x50
 8001448:	f200 400c 	addw	r0, r0, #1036	; 0x40c
 800144c:	b2b6      	uxth	r6, r6
 800144e:	4430      	add	r0, r6
 8001450:	e7d2      	b.n	80013f8 <HAL_PCD_IRQHandler+0x824>
 8001452:	b96f      	cbnz	r7, 8001470 <HAL_PCD_IRQHandler+0x89c>
 8001454:	f830 3021 	ldrh.w	r3, [r0, r1, lsl #2]
 8001458:	f423 43e0 	bic.w	r3, r3, #28672	; 0x7000
 800145c:	f023 0370 	bic.w	r3, r3, #112	; 0x70
 8001460:	041b      	lsls	r3, r3, #16
 8001462:	0c1b      	lsrs	r3, r3, #16
 8001464:	f443 4340 	orr.w	r3, r3, #49152	; 0xc000
 8001468:	f043 0380 	orr.w	r3, r3, #128	; 0x80
 800146c:	f820 3021 	strh.w	r3, [r0, r1, lsl #2]
 8001470:	2228      	movs	r2, #40	; 0x28
 8001472:	fb02 4206 	mla	r2, r2, r6, r4
 8001476:	f892 304c 	ldrb.w	r3, [r2, #76]	; 0x4c
 800147a:	2b01      	cmp	r3, #1
 800147c:	d1c3      	bne.n	8001406 <HAL_PCD_IRQHandler+0x832>
 800147e:	6c53      	ldr	r3, [r2, #68]	; 0x44
 8001480:	6bd7      	ldr	r7, [r2, #60]	; 0x3c
 8001482:	4463      	add	r3, ip
 8001484:	f8d2 e048 	ldr.w	lr, [r2, #72]	; 0x48
 8001488:	6453      	str	r3, [r2, #68]	; 0x44
 800148a:	6b93      	ldr	r3, [r2, #56]	; 0x38
 800148c:	4467      	add	r7, ip
 800148e:	459e      	cmp	lr, r3
 8001490:	63d7      	str	r7, [r2, #60]	; 0x3c
 8001492:	d322      	bcc.n	80014da <HAL_PCD_IRQHandler+0x906>
 8001494:	ebae 0e03 	sub.w	lr, lr, r3
 8001498:	f8c2 e048 	str.w	lr, [r2, #72]	; 0x48
 800149c:	f895 2029 	ldrb.w	r2, [r5, #41]	; 0x29
 80014a0:	fa1f fc83 	uxth.w	ip, r3
 80014a4:	2a00      	cmp	r2, #0
 80014a6:	d13d      	bne.n	8001524 <HAL_PCD_IRQHandler+0x950>
 80014a8:	f8b0 2050 	ldrh.w	r2, [r0, #80]	; 0x50
 80014ac:	f200 4e0c 	addw	lr, r0, #1036	; 0x40c
 80014b0:	b292      	uxth	r2, r2
 80014b2:	4472      	add	r2, lr
 80014b4:	0109      	lsls	r1, r1, #4
 80014b6:	b9eb      	cbnz	r3, 80014f4 <HAL_PCD_IRQHandler+0x920>
 80014b8:	5a53      	ldrh	r3, [r2, r1]
 80014ba:	f423 43f8 	bic.w	r3, r3, #31744	; 0x7c00
 80014be:	041b      	lsls	r3, r3, #16
 80014c0:	0c1b      	lsrs	r3, r3, #16
 80014c2:	5253      	strh	r3, [r2, r1]
 80014c4:	5a53      	ldrh	r3, [r2, r1]
 80014c6:	b29b      	uxth	r3, r3
 80014c8:	f443 4300 	orr.w	r3, r3, #32768	; 0x8000
 80014cc:	5253      	strh	r3, [r2, r1]
 80014ce:	2128      	movs	r1, #40	; 0x28
 80014d0:	fb01 4606 	mla	r6, r1, r6, r4
 80014d4:	4663      	mov	r3, ip
 80014d6:	8e72      	ldrh	r2, [r6, #50]	; 0x32
 80014d8:	e721      	b.n	800131e <HAL_PCD_IRQHandler+0x74a>
 80014da:	f1be 0f00 	cmp.w	lr, #0
 80014de:	d103      	bne.n	80014e8 <HAL_PCD_IRQHandler+0x914>
 80014e0:	4663      	mov	r3, ip
 80014e2:	f882 e04c 	strb.w	lr, [r2, #76]	; 0x4c
 80014e6:	e7d9      	b.n	800149c <HAL_PCD_IRQHandler+0x8c8>
 80014e8:	2300      	movs	r3, #0
 80014ea:	6493      	str	r3, [r2, #72]	; 0x48
 80014ec:	f882 304c 	strb.w	r3, [r2, #76]	; 0x4c
 80014f0:	4673      	mov	r3, lr
 80014f2:	e7d3      	b.n	800149c <HAL_PCD_IRQHandler+0x8c8>
 80014f4:	2b3e      	cmp	r3, #62	; 0x3e
 80014f6:	d80c      	bhi.n	8001512 <HAL_PCD_IRQHandler+0x93e>
 80014f8:	ea4f 0e53 	mov.w	lr, r3, lsr #1
 80014fc:	07db      	lsls	r3, r3, #31
 80014fe:	bf48      	it	mi
 8001500:	f10e 0e01 	addmi.w	lr, lr, #1
 8001504:	ea4f 2e8e 	mov.w	lr, lr, lsl #10
 8001508:	fa1f fe8e 	uxth.w	lr, lr
 800150c:	f822 e001 	strh.w	lr, [r2, r1]
 8001510:	e7dd      	b.n	80014ce <HAL_PCD_IRQHandler+0x8fa>
 8001512:	ea4f 1e53 	mov.w	lr, r3, lsr #5
 8001516:	06db      	lsls	r3, r3, #27
 8001518:	bf08      	it	eq
 800151a:	f10e 3eff 	addeq.w	lr, lr, #4294967295
 800151e:	ea48 2e8e 	orr.w	lr, r8, lr, lsl #10
 8001522:	e7f1      	b.n	8001508 <HAL_PCD_IRQHandler+0x934>
 8001524:	2a01      	cmp	r2, #1
 8001526:	d1d2      	bne.n	80014ce <HAL_PCD_IRQHandler+0x8fa>
 8001528:	f8b0 3050 	ldrh.w	r3, [r0, #80]	; 0x50
 800152c:	b29a      	uxth	r2, r3
 800152e:	f200 430c 	addw	r3, r0, #1036	; 0x40c
 8001532:	4413      	add	r3, r2
 8001534:	010a      	lsls	r2, r1, #4
 8001536:	f823 c002 	strh.w	ip, [r3, r2]
 800153a:	e7c8      	b.n	80014ce <HAL_PCD_IRQHandler+0x8fa>

0800153c <HAL_PCD_EP_Open>:
 800153c:	f011 0f80 	tst.w	r1, #128	; 0x80
 8001540:	b570      	push	{r4, r5, r6, lr}
 8001542:	4605      	mov	r5, r0
 8001544:	f04f 0428 	mov.w	r4, #40	; 0x28
 8001548:	f001 0007 	and.w	r0, r1, #7
 800154c:	d01c      	beq.n	8001588 <HAL_PCD_EP_Open+0x4c>
 800154e:	2601      	movs	r6, #1
 8001550:	fb00 4104 	mla	r1, r0, r4, r4
 8001554:	4429      	add	r1, r5
 8001556:	704e      	strb	r6, [r1, #1]
 8001558:	610a      	str	r2, [r1, #16]
 800155a:	784a      	ldrb	r2, [r1, #1]
 800155c:	7008      	strb	r0, [r1, #0]
 800155e:	70cb      	strb	r3, [r1, #3]
 8001560:	b102      	cbz	r2, 8001564 <HAL_PCD_EP_Open+0x28>
 8001562:	81c8      	strh	r0, [r1, #14]
 8001564:	2b02      	cmp	r3, #2
 8001566:	bf04      	itt	eq
 8001568:	2300      	moveq	r3, #0
 800156a:	710b      	strbeq	r3, [r1, #4]
 800156c:	f895 32a8 	ldrb.w	r3, [r5, #680]	; 0x2a8
 8001570:	2b01      	cmp	r3, #1
 8001572:	d012      	beq.n	800159a <HAL_PCD_EP_Open+0x5e>
 8001574:	2301      	movs	r3, #1
 8001576:	6828      	ldr	r0, [r5, #0]
 8001578:	f885 32a8 	strb.w	r3, [r5, #680]	; 0x2a8
 800157c:	f001 f9b8 	bl	80028f0 <USB_ActivateEndpoint>
 8001580:	2000      	movs	r0, #0
 8001582:	f885 02a8 	strb.w	r0, [r5, #680]	; 0x2a8
 8001586:	bd70      	pop	{r4, r5, r6, pc}
 8001588:	2600      	movs	r6, #0
 800158a:	4344      	muls	r4, r0
 800158c:	f504 71b4 	add.w	r1, r4, #360	; 0x168
 8001590:	442c      	add	r4, r5
 8001592:	4429      	add	r1, r5
 8001594:	f884 6169 	strb.w	r6, [r4, #361]	; 0x169
 8001598:	e7de      	b.n	8001558 <HAL_PCD_EP_Open+0x1c>
 800159a:	2002      	movs	r0, #2
 800159c:	e7f3      	b.n	8001586 <HAL_PCD_EP_Open+0x4a>

0800159e <HAL_PCD_EP_Close>:
 800159e:	f011 0f80 	tst.w	r1, #128	; 0x80
 80015a2:	b510      	push	{r4, lr}
 80015a4:	f04f 0328 	mov.w	r3, #40	; 0x28
 80015a8:	4604      	mov	r4, r0
 80015aa:	f001 0207 	and.w	r2, r1, #7
 80015ae:	d013      	beq.n	80015d8 <HAL_PCD_EP_Close+0x3a>
 80015b0:	fb02 3103 	mla	r1, r2, r3, r3
 80015b4:	4401      	add	r1, r0
 80015b6:	2001      	movs	r0, #1
 80015b8:	7048      	strb	r0, [r1, #1]
 80015ba:	700a      	strb	r2, [r1, #0]
 80015bc:	f894 32a8 	ldrb.w	r3, [r4, #680]	; 0x2a8
 80015c0:	2b01      	cmp	r3, #1
 80015c2:	d012      	beq.n	80015ea <HAL_PCD_EP_Close+0x4c>
 80015c4:	2301      	movs	r3, #1
 80015c6:	6820      	ldr	r0, [r4, #0]
 80015c8:	f884 32a8 	strb.w	r3, [r4, #680]	; 0x2a8
 80015cc:	f001 facc 	bl	8002b68 <USB_DeactivateEndpoint>
 80015d0:	2000      	movs	r0, #0
 80015d2:	f884 02a8 	strb.w	r0, [r4, #680]	; 0x2a8
 80015d6:	bd10      	pop	{r4, pc}
 80015d8:	4353      	muls	r3, r2
 80015da:	f503 71b4 	add.w	r1, r3, #360	; 0x168
 80015de:	4401      	add	r1, r0
 80015e0:	4403      	add	r3, r0
 80015e2:	2000      	movs	r0, #0
 80015e4:	f883 0169 	strb.w	r0, [r3, #361]	; 0x169
 80015e8:	e7e7      	b.n	80015ba <HAL_PCD_EP_Close+0x1c>
 80015ea:	2002      	movs	r0, #2
 80015ec:	e7f3      	b.n	80015d6 <HAL_PCD_EP_Close+0x38>

080015ee <HAL_PCD_EP_Receive>:
 80015ee:	b570      	push	{r4, r5, r6, lr}
 80015f0:	f001 0507 	and.w	r5, r1, #7
 80015f4:	2128      	movs	r1, #40	; 0x28
 80015f6:	2600      	movs	r6, #0
 80015f8:	4369      	muls	r1, r5
 80015fa:	1844      	adds	r4, r0, r1
 80015fc:	f501 71b4 	add.w	r1, r1, #360	; 0x168
 8001600:	4401      	add	r1, r0
 8001602:	e9c4 235f 	strd	r2, r3, [r4, #380]	; 0x17c
 8001606:	f8c4 6184 	str.w	r6, [r4, #388]	; 0x184
 800160a:	f884 6169 	strb.w	r6, [r4, #361]	; 0x169
 800160e:	f884 5168 	strb.w	r5, [r4, #360]	; 0x168
 8001612:	6800      	ldr	r0, [r0, #0]
 8001614:	f001 fc02 	bl	8002e1c <USB_EPStartXfer>
 8001618:	4630      	mov	r0, r6
 800161a:	bd70      	pop	{r4, r5, r6, pc}

0800161c <HAL_PCD_EP_GetRxCount>:
 800161c:	2328      	movs	r3, #40	; 0x28
 800161e:	f001 0107 	and.w	r1, r1, #7
 8001622:	fb03 0001 	mla	r0, r3, r1, r0
 8001626:	f8d0 0184 	ldr.w	r0, [r0, #388]	; 0x184
 800162a:	4770      	bx	lr

0800162c <HAL_PCD_EP_Transmit>:
 800162c:	b570      	push	{r4, r5, r6, lr}
 800162e:	f001 0507 	and.w	r5, r1, #7
 8001632:	2128      	movs	r1, #40	; 0x28
 8001634:	fb01 0405 	mla	r4, r1, r5, r0
 8001638:	2600      	movs	r6, #0
 800163a:	e9c4 230f 	strd	r2, r3, [r4, #60]	; 0x3c
 800163e:	2201      	movs	r2, #1
 8001640:	fb05 1101 	mla	r1, r5, r1, r1
 8001644:	f884 204c 	strb.w	r2, [r4, #76]	; 0x4c
 8001648:	4401      	add	r1, r0
 800164a:	64a3      	str	r3, [r4, #72]	; 0x48
 800164c:	6466      	str	r6, [r4, #68]	; 0x44
 800164e:	f884 2029 	strb.w	r2, [r4, #41]	; 0x29
 8001652:	f884 5028 	strb.w	r5, [r4, #40]	; 0x28
 8001656:	6800      	ldr	r0, [r0, #0]
 8001658:	f001 fbe0 	bl	8002e1c <USB_EPStartXfer>
 800165c:	4630      	mov	r0, r6
 800165e:	bd70      	pop	{r4, r5, r6, pc}

08001660 <HAL_PCD_EP_SetStall>:
 8001660:	b538      	push	{r3, r4, r5, lr}
 8001662:	6843      	ldr	r3, [r0, #4]
 8001664:	f001 0507 	and.w	r5, r1, #7
 8001668:	429d      	cmp	r5, r3
 800166a:	4604      	mov	r4, r0
 800166c:	d828      	bhi.n	80016c0 <HAL_PCD_EP_SetStall+0x60>
 800166e:	f011 0f80 	tst.w	r1, #128	; 0x80
 8001672:	f04f 0328 	mov.w	r3, #40	; 0x28
 8001676:	d01a      	beq.n	80016ae <HAL_PCD_EP_SetStall+0x4e>
 8001678:	2201      	movs	r2, #1
 800167a:	fb05 3103 	mla	r1, r5, r3, r3
 800167e:	4401      	add	r1, r0
 8001680:	704a      	strb	r2, [r1, #1]
 8001682:	2301      	movs	r3, #1
 8001684:	700d      	strb	r5, [r1, #0]
 8001686:	708b      	strb	r3, [r1, #2]
 8001688:	f894 22a8 	ldrb.w	r2, [r4, #680]	; 0x2a8
 800168c:	429a      	cmp	r2, r3
 800168e:	d019      	beq.n	80016c4 <HAL_PCD_EP_SetStall+0x64>
 8001690:	6820      	ldr	r0, [r4, #0]
 8001692:	f884 32a8 	strb.w	r3, [r4, #680]	; 0x2a8
 8001696:	f001 fb38 	bl	8002d0a <USB_EPSetStall>
 800169a:	b925      	cbnz	r5, 80016a6 <HAL_PCD_EP_SetStall+0x46>
 800169c:	6820      	ldr	r0, [r4, #0]
 800169e:	f504 712c 	add.w	r1, r4, #688	; 0x2b0
 80016a2:	f001 fba9 	bl	8002df8 <USB_EP0_OutStart>
 80016a6:	2000      	movs	r0, #0
 80016a8:	f884 02a8 	strb.w	r0, [r4, #680]	; 0x2a8
 80016ac:	bd38      	pop	{r3, r4, r5, pc}
 80016ae:	2200      	movs	r2, #0
 80016b0:	434b      	muls	r3, r1
 80016b2:	f503 71b4 	add.w	r1, r3, #360	; 0x168
 80016b6:	4403      	add	r3, r0
 80016b8:	4401      	add	r1, r0
 80016ba:	f883 2169 	strb.w	r2, [r3, #361]	; 0x169
 80016be:	e7e0      	b.n	8001682 <HAL_PCD_EP_SetStall+0x22>
 80016c0:	2001      	movs	r0, #1
 80016c2:	e7f3      	b.n	80016ac <HAL_PCD_EP_SetStall+0x4c>
 80016c4:	2002      	movs	r0, #2
 80016c6:	e7f1      	b.n	80016ac <HAL_PCD_EP_SetStall+0x4c>

080016c8 <HAL_PCD_EP_ClrStall>:
 80016c8:	b538      	push	{r3, r4, r5, lr}
 80016ca:	6843      	ldr	r3, [r0, #4]
 80016cc:	f001 020f 	and.w	r2, r1, #15
 80016d0:	429a      	cmp	r2, r3
 80016d2:	4604      	mov	r4, r0
 80016d4:	d825      	bhi.n	8001722 <HAL_PCD_EP_ClrStall+0x5a>
 80016d6:	f011 0f80 	tst.w	r1, #128	; 0x80
 80016da:	f04f 0328 	mov.w	r3, #40	; 0x28
 80016de:	f001 0207 	and.w	r2, r1, #7
 80016e2:	d015      	beq.n	8001710 <HAL_PCD_EP_ClrStall+0x48>
 80016e4:	fb02 3103 	mla	r1, r2, r3, r3
 80016e8:	4401      	add	r1, r0
 80016ea:	2001      	movs	r0, #1
 80016ec:	7048      	strb	r0, [r1, #1]
 80016ee:	2500      	movs	r5, #0
 80016f0:	700a      	strb	r2, [r1, #0]
 80016f2:	708d      	strb	r5, [r1, #2]
 80016f4:	f894 32a8 	ldrb.w	r3, [r4, #680]	; 0x2a8
 80016f8:	2b01      	cmp	r3, #1
 80016fa:	d014      	beq.n	8001726 <HAL_PCD_EP_ClrStall+0x5e>
 80016fc:	2301      	movs	r3, #1
 80016fe:	6820      	ldr	r0, [r4, #0]
 8001700:	f884 32a8 	strb.w	r3, [r4, #680]	; 0x2a8
 8001704:	f001 fb21 	bl	8002d4a <USB_EPClearStall>
 8001708:	4628      	mov	r0, r5
 800170a:	f884 52a8 	strb.w	r5, [r4, #680]	; 0x2a8
 800170e:	bd38      	pop	{r3, r4, r5, pc}
 8001710:	4353      	muls	r3, r2
 8001712:	f503 71b4 	add.w	r1, r3, #360	; 0x168
 8001716:	4401      	add	r1, r0
 8001718:	4403      	add	r3, r0
 800171a:	2000      	movs	r0, #0
 800171c:	f883 0169 	strb.w	r0, [r3, #361]	; 0x169
 8001720:	e7e5      	b.n	80016ee <HAL_PCD_EP_ClrStall+0x26>
 8001722:	2001      	movs	r0, #1
 8001724:	e7f3      	b.n	800170e <HAL_PCD_EP_ClrStall+0x46>
 8001726:	2002      	movs	r0, #2
 8001728:	e7f1      	b.n	800170e <HAL_PCD_EP_ClrStall+0x46>

0800172a <HAL_PCDEx_PMAConfig>:
 800172a:	b510      	push	{r4, lr}
 800172c:	2428      	movs	r4, #40	; 0x28
 800172e:	f011 0f80 	tst.w	r1, #128	; 0x80
 8001732:	bf1b      	ittet	ne
 8001734:	f001 0107 	andne.w	r1, r1, #7
 8001738:	fb01 4104 	mlane	r1, r1, r4, r4
 800173c:	fb04 0001 	mlaeq	r0, r4, r1, r0
 8001740:	1840      	addne	r0, r0, r1
 8001742:	bf08      	it	eq
 8001744:	f500 70b4 	addeq.w	r0, r0, #360	; 0x168
 8001748:	b299      	uxth	r1, r3
 800174a:	b91a      	cbnz	r2, 8001754 <HAL_PCDEx_PMAConfig+0x2a>
 800174c:	7302      	strb	r2, [r0, #12]
 800174e:	80c1      	strh	r1, [r0, #6]
 8001750:	2000      	movs	r0, #0
 8001752:	bd10      	pop	{r4, pc}
 8001754:	2201      	movs	r2, #1
 8001756:	6083      	str	r3, [r0, #8]
 8001758:	7302      	strb	r2, [r0, #12]
 800175a:	e7f9      	b.n	8001750 <HAL_PCDEx_PMAConfig+0x26>

0800175c <HAL_PWR_EnableBkUpAccess>:
 800175c:	2201      	movs	r2, #1
 800175e:	4b01      	ldr	r3, [pc, #4]	; (8001764 <HAL_PWR_EnableBkUpAccess+0x8>)
 8001760:	621a      	str	r2, [r3, #32]
 8001762:	4770      	bx	lr
 8001764:	420e0000 	.word	0x420e0000

08001768 <HAL_RCC_OscConfig>:
 8001768:	e92d 41f3 	stmdb	sp!, {r0, r1, r4, r5, r6, r7, r8, lr}
 800176c:	4605      	mov	r5, r0
 800176e:	b338      	cbz	r0, 80017c0 <HAL_RCC_OscConfig+0x58>
 8001770:	6803      	ldr	r3, [r0, #0]
 8001772:	07db      	lsls	r3, r3, #31
 8001774:	d410      	bmi.n	8001798 <HAL_RCC_OscConfig+0x30>
 8001776:	682b      	ldr	r3, [r5, #0]
 8001778:	079f      	lsls	r7, r3, #30
 800177a:	d45e      	bmi.n	800183a <HAL_RCC_OscConfig+0xd2>
 800177c:	682b      	ldr	r3, [r5, #0]
 800177e:	0719      	lsls	r1, r3, #28
 8001780:	f100 8095 	bmi.w	80018ae <HAL_RCC_OscConfig+0x146>
 8001784:	682b      	ldr	r3, [r5, #0]
 8001786:	075a      	lsls	r2, r3, #29
 8001788:	f100 80c1 	bmi.w	800190e <HAL_RCC_OscConfig+0x1a6>
 800178c:	69e8      	ldr	r0, [r5, #28]
 800178e:	2800      	cmp	r0, #0
 8001790:	f040 812c 	bne.w	80019ec <HAL_RCC_OscConfig+0x284>
 8001794:	2000      	movs	r0, #0
 8001796:	e029      	b.n	80017ec <HAL_RCC_OscConfig+0x84>
 8001798:	4c90      	ldr	r4, [pc, #576]	; (80019dc <HAL_RCC_OscConfig+0x274>)
 800179a:	6863      	ldr	r3, [r4, #4]
 800179c:	f003 030c 	and.w	r3, r3, #12
 80017a0:	2b04      	cmp	r3, #4
 80017a2:	d007      	beq.n	80017b4 <HAL_RCC_OscConfig+0x4c>
 80017a4:	6863      	ldr	r3, [r4, #4]
 80017a6:	f003 030c 	and.w	r3, r3, #12
 80017aa:	2b08      	cmp	r3, #8
 80017ac:	d10a      	bne.n	80017c4 <HAL_RCC_OscConfig+0x5c>
 80017ae:	6863      	ldr	r3, [r4, #4]
 80017b0:	03de      	lsls	r6, r3, #15
 80017b2:	d507      	bpl.n	80017c4 <HAL_RCC_OscConfig+0x5c>
 80017b4:	6823      	ldr	r3, [r4, #0]
 80017b6:	039c      	lsls	r4, r3, #14
 80017b8:	d5dd      	bpl.n	8001776 <HAL_RCC_OscConfig+0xe>
 80017ba:	686b      	ldr	r3, [r5, #4]
 80017bc:	2b00      	cmp	r3, #0
 80017be:	d1da      	bne.n	8001776 <HAL_RCC_OscConfig+0xe>
 80017c0:	2001      	movs	r0, #1
 80017c2:	e013      	b.n	80017ec <HAL_RCC_OscConfig+0x84>
 80017c4:	686b      	ldr	r3, [r5, #4]
 80017c6:	f5b3 3f80 	cmp.w	r3, #65536	; 0x10000
 80017ca:	d112      	bne.n	80017f2 <HAL_RCC_OscConfig+0x8a>
 80017cc:	6823      	ldr	r3, [r4, #0]
 80017ce:	f443 3380 	orr.w	r3, r3, #65536	; 0x10000
 80017d2:	6023      	str	r3, [r4, #0]
 80017d4:	f7ff f800 	bl	80007d8 <HAL_GetTick>
 80017d8:	4606      	mov	r6, r0
 80017da:	6823      	ldr	r3, [r4, #0]
 80017dc:	0398      	lsls	r0, r3, #14
 80017de:	d4ca      	bmi.n	8001776 <HAL_RCC_OscConfig+0xe>
 80017e0:	f7fe fffa 	bl	80007d8 <HAL_GetTick>
 80017e4:	1b80      	subs	r0, r0, r6
 80017e6:	2864      	cmp	r0, #100	; 0x64
 80017e8:	d9f7      	bls.n	80017da <HAL_RCC_OscConfig+0x72>
 80017ea:	2003      	movs	r0, #3
 80017ec:	b002      	add	sp, #8
 80017ee:	e8bd 81f0 	ldmia.w	sp!, {r4, r5, r6, r7, r8, pc}
 80017f2:	b99b      	cbnz	r3, 800181c <HAL_RCC_OscConfig+0xb4>
 80017f4:	6823      	ldr	r3, [r4, #0]
 80017f6:	f423 3380 	bic.w	r3, r3, #65536	; 0x10000
 80017fa:	6023      	str	r3, [r4, #0]
 80017fc:	6823      	ldr	r3, [r4, #0]
 80017fe:	f423 2380 	bic.w	r3, r3, #262144	; 0x40000
 8001802:	6023      	str	r3, [r4, #0]
 8001804:	f7fe ffe8 	bl	80007d8 <HAL_GetTick>
 8001808:	4606      	mov	r6, r0
 800180a:	6823      	ldr	r3, [r4, #0]
 800180c:	0399      	lsls	r1, r3, #14
 800180e:	d5b2      	bpl.n	8001776 <HAL_RCC_OscConfig+0xe>
 8001810:	f7fe ffe2 	bl	80007d8 <HAL_GetTick>
 8001814:	1b80      	subs	r0, r0, r6
 8001816:	2864      	cmp	r0, #100	; 0x64
 8001818:	d9f7      	bls.n	800180a <HAL_RCC_OscConfig+0xa2>
 800181a:	e7e6      	b.n	80017ea <HAL_RCC_OscConfig+0x82>
 800181c:	f5b3 2fa0 	cmp.w	r3, #327680	; 0x50000
 8001820:	6823      	ldr	r3, [r4, #0]
 8001822:	d103      	bne.n	800182c <HAL_RCC_OscConfig+0xc4>
 8001824:	f443 2380 	orr.w	r3, r3, #262144	; 0x40000
 8001828:	6023      	str	r3, [r4, #0]
 800182a:	e7cf      	b.n	80017cc <HAL_RCC_OscConfig+0x64>
 800182c:	f423 3380 	bic.w	r3, r3, #65536	; 0x10000
 8001830:	6023      	str	r3, [r4, #0]
 8001832:	6823      	ldr	r3, [r4, #0]
 8001834:	f423 2380 	bic.w	r3, r3, #262144	; 0x40000
 8001838:	e7cb      	b.n	80017d2 <HAL_RCC_OscConfig+0x6a>
 800183a:	4c68      	ldr	r4, [pc, #416]	; (80019dc <HAL_RCC_OscConfig+0x274>)
 800183c:	6863      	ldr	r3, [r4, #4]
 800183e:	f013 0f0c 	tst.w	r3, #12
 8001842:	d007      	beq.n	8001854 <HAL_RCC_OscConfig+0xec>
 8001844:	6863      	ldr	r3, [r4, #4]
 8001846:	f003 030c 	and.w	r3, r3, #12
 800184a:	2b08      	cmp	r3, #8
 800184c:	d110      	bne.n	8001870 <HAL_RCC_OscConfig+0x108>
 800184e:	6863      	ldr	r3, [r4, #4]
 8001850:	03da      	lsls	r2, r3, #15
 8001852:	d40d      	bmi.n	8001870 <HAL_RCC_OscConfig+0x108>
 8001854:	6823      	ldr	r3, [r4, #0]
 8001856:	079b      	lsls	r3, r3, #30
 8001858:	d502      	bpl.n	8001860 <HAL_RCC_OscConfig+0xf8>
 800185a:	692b      	ldr	r3, [r5, #16]
 800185c:	2b01      	cmp	r3, #1
 800185e:	d1af      	bne.n	80017c0 <HAL_RCC_OscConfig+0x58>
 8001860:	6823      	ldr	r3, [r4, #0]
 8001862:	696a      	ldr	r2, [r5, #20]
 8001864:	f023 03f8 	bic.w	r3, r3, #248	; 0xf8
 8001868:	ea43 03c2 	orr.w	r3, r3, r2, lsl #3
 800186c:	6023      	str	r3, [r4, #0]
 800186e:	e785      	b.n	800177c <HAL_RCC_OscConfig+0x14>
 8001870:	692a      	ldr	r2, [r5, #16]
 8001872:	4b5b      	ldr	r3, [pc, #364]	; (80019e0 <HAL_RCC_OscConfig+0x278>)
 8001874:	b16a      	cbz	r2, 8001892 <HAL_RCC_OscConfig+0x12a>
 8001876:	2201      	movs	r2, #1
 8001878:	601a      	str	r2, [r3, #0]
 800187a:	f7fe ffad 	bl	80007d8 <HAL_GetTick>
 800187e:	4606      	mov	r6, r0
 8001880:	6823      	ldr	r3, [r4, #0]
 8001882:	079f      	lsls	r7, r3, #30
 8001884:	d4ec      	bmi.n	8001860 <HAL_RCC_OscConfig+0xf8>
 8001886:	f7fe ffa7 	bl	80007d8 <HAL_GetTick>
 800188a:	1b80      	subs	r0, r0, r6
 800188c:	2802      	cmp	r0, #2
 800188e:	d9f7      	bls.n	8001880 <HAL_RCC_OscConfig+0x118>
 8001890:	e7ab      	b.n	80017ea <HAL_RCC_OscConfig+0x82>
 8001892:	601a      	str	r2, [r3, #0]
 8001894:	f7fe ffa0 	bl	80007d8 <HAL_GetTick>
 8001898:	4606      	mov	r6, r0
 800189a:	6823      	ldr	r3, [r4, #0]
 800189c:	0798      	lsls	r0, r3, #30
 800189e:	f57f af6d 	bpl.w	800177c <HAL_RCC_OscConfig+0x14>
 80018a2:	f7fe ff99 	bl	80007d8 <HAL_GetTick>
 80018a6:	1b80      	subs	r0, r0, r6
 80018a8:	2802      	cmp	r0, #2
 80018aa:	d9f6      	bls.n	800189a <HAL_RCC_OscConfig+0x132>
 80018ac:	e79d      	b.n	80017ea <HAL_RCC_OscConfig+0x82>
 80018ae:	69aa      	ldr	r2, [r5, #24]
 80018b0:	4e4a      	ldr	r6, [pc, #296]	; (80019dc <HAL_RCC_OscConfig+0x274>)
 80018b2:	4b4b      	ldr	r3, [pc, #300]	; (80019e0 <HAL_RCC_OscConfig+0x278>)
 80018b4:	b1e2      	cbz	r2, 80018f0 <HAL_RCC_OscConfig+0x188>
 80018b6:	2201      	movs	r2, #1
 80018b8:	f8c3 2480 	str.w	r2, [r3, #1152]	; 0x480
 80018bc:	f7fe ff8c 	bl	80007d8 <HAL_GetTick>
 80018c0:	4604      	mov	r4, r0
 80018c2:	6a73      	ldr	r3, [r6, #36]	; 0x24
 80018c4:	079b      	lsls	r3, r3, #30
 80018c6:	d50d      	bpl.n	80018e4 <HAL_RCC_OscConfig+0x17c>
 80018c8:	f44f 52fa 	mov.w	r2, #8000	; 0x1f40
 80018cc:	4b45      	ldr	r3, [pc, #276]	; (80019e4 <HAL_RCC_OscConfig+0x27c>)
 80018ce:	681b      	ldr	r3, [r3, #0]
 80018d0:	fbb3 f3f2 	udiv	r3, r3, r2
 80018d4:	9301      	str	r3, [sp, #4]
 80018d6:	bf00      	nop
 80018d8:	9b01      	ldr	r3, [sp, #4]
 80018da:	1e5a      	subs	r2, r3, #1
 80018dc:	9201      	str	r2, [sp, #4]
 80018de:	2b00      	cmp	r3, #0
 80018e0:	d1f9      	bne.n	80018d6 <HAL_RCC_OscConfig+0x16e>
 80018e2:	e74f      	b.n	8001784 <HAL_RCC_OscConfig+0x1c>
 80018e4:	f7fe ff78 	bl	80007d8 <HAL_GetTick>
 80018e8:	1b00      	subs	r0, r0, r4
 80018ea:	2802      	cmp	r0, #2
 80018ec:	d9e9      	bls.n	80018c2 <HAL_RCC_OscConfig+0x15a>
 80018ee:	e77c      	b.n	80017ea <HAL_RCC_OscConfig+0x82>
 80018f0:	f8c3 2480 	str.w	r2, [r3, #1152]	; 0x480
 80018f4:	f7fe ff70 	bl	80007d8 <HAL_GetTick>
 80018f8:	4604      	mov	r4, r0
 80018fa:	6a73      	ldr	r3, [r6, #36]	; 0x24
 80018fc:	079f      	lsls	r7, r3, #30
 80018fe:	f57f af41 	bpl.w	8001784 <HAL_RCC_OscConfig+0x1c>
 8001902:	f7fe ff69 	bl	80007d8 <HAL_GetTick>
 8001906:	1b00      	subs	r0, r0, r4
 8001908:	2802      	cmp	r0, #2
 800190a:	d9f6      	bls.n	80018fa <HAL_RCC_OscConfig+0x192>
 800190c:	e76d      	b.n	80017ea <HAL_RCC_OscConfig+0x82>
 800190e:	4c33      	ldr	r4, [pc, #204]	; (80019dc <HAL_RCC_OscConfig+0x274>)
 8001910:	69e3      	ldr	r3, [r4, #28]
 8001912:	00d8      	lsls	r0, r3, #3
 8001914:	d424      	bmi.n	8001960 <HAL_RCC_OscConfig+0x1f8>
 8001916:	2701      	movs	r7, #1
 8001918:	69e3      	ldr	r3, [r4, #28]
 800191a:	f043 5380 	orr.w	r3, r3, #268435456	; 0x10000000
 800191e:	61e3      	str	r3, [r4, #28]
 8001920:	69e3      	ldr	r3, [r4, #28]
 8001922:	f003 5380 	and.w	r3, r3, #268435456	; 0x10000000
 8001926:	9300      	str	r3, [sp, #0]
 8001928:	9b00      	ldr	r3, [sp, #0]
 800192a:	4e2f      	ldr	r6, [pc, #188]	; (80019e8 <HAL_RCC_OscConfig+0x280>)
 800192c:	6833      	ldr	r3, [r6, #0]
 800192e:	05d9      	lsls	r1, r3, #23
 8001930:	d518      	bpl.n	8001964 <HAL_RCC_OscConfig+0x1fc>
 8001932:	68eb      	ldr	r3, [r5, #12]
 8001934:	2b01      	cmp	r3, #1
 8001936:	d126      	bne.n	8001986 <HAL_RCC_OscConfig+0x21e>
 8001938:	6a23      	ldr	r3, [r4, #32]
 800193a:	f043 0301 	orr.w	r3, r3, #1
 800193e:	6223      	str	r3, [r4, #32]
 8001940:	f7fe ff4a 	bl	80007d8 <HAL_GetTick>
 8001944:	f241 3888 	movw	r8, #5000	; 0x1388
 8001948:	4606      	mov	r6, r0
 800194a:	6a23      	ldr	r3, [r4, #32]
 800194c:	079b      	lsls	r3, r3, #30
 800194e:	d53f      	bpl.n	80019d0 <HAL_RCC_OscConfig+0x268>
 8001950:	2f00      	cmp	r7, #0
 8001952:	f43f af1b 	beq.w	800178c <HAL_RCC_OscConfig+0x24>
 8001956:	69e3      	ldr	r3, [r4, #28]
 8001958:	f023 5380 	bic.w	r3, r3, #268435456	; 0x10000000
 800195c:	61e3      	str	r3, [r4, #28]
 800195e:	e715      	b.n	800178c <HAL_RCC_OscConfig+0x24>
 8001960:	2700      	movs	r7, #0
 8001962:	e7e2      	b.n	800192a <HAL_RCC_OscConfig+0x1c2>
 8001964:	6833      	ldr	r3, [r6, #0]
 8001966:	f443 7380 	orr.w	r3, r3, #256	; 0x100
 800196a:	6033      	str	r3, [r6, #0]
 800196c:	f7fe ff34 	bl	80007d8 <HAL_GetTick>
 8001970:	4680      	mov	r8, r0
 8001972:	6833      	ldr	r3, [r6, #0]
 8001974:	05da      	lsls	r2, r3, #23
 8001976:	d4dc      	bmi.n	8001932 <HAL_RCC_OscConfig+0x1ca>
 8001978:	f7fe ff2e 	bl	80007d8 <HAL_GetTick>
 800197c:	eba0 0008 	sub.w	r0, r0, r8
 8001980:	2864      	cmp	r0, #100	; 0x64
 8001982:	d9f6      	bls.n	8001972 <HAL_RCC_OscConfig+0x20a>
 8001984:	e731      	b.n	80017ea <HAL_RCC_OscConfig+0x82>
 8001986:	b9ab      	cbnz	r3, 80019b4 <HAL_RCC_OscConfig+0x24c>
 8001988:	6a23      	ldr	r3, [r4, #32]
 800198a:	f241 3888 	movw	r8, #5000	; 0x1388
 800198e:	f023 0301 	bic.w	r3, r3, #1
 8001992:	6223      	str	r3, [r4, #32]
 8001994:	6a23      	ldr	r3, [r4, #32]
 8001996:	f023 0304 	bic.w	r3, r3, #4
 800199a:	6223      	str	r3, [r4, #32]
 800199c:	f7fe ff1c 	bl	80007d8 <HAL_GetTick>
 80019a0:	4606      	mov	r6, r0
 80019a2:	6a23      	ldr	r3, [r4, #32]
 80019a4:	0798      	lsls	r0, r3, #30
 80019a6:	d5d3      	bpl.n	8001950 <HAL_RCC_OscConfig+0x1e8>
 80019a8:	f7fe ff16 	bl	80007d8 <HAL_GetTick>
 80019ac:	1b80      	subs	r0, r0, r6
 80019ae:	4540      	cmp	r0, r8
 80019b0:	d9f7      	bls.n	80019a2 <HAL_RCC_OscConfig+0x23a>
 80019b2:	e71a      	b.n	80017ea <HAL_RCC_OscConfig+0x82>
 80019b4:	2b05      	cmp	r3, #5
 80019b6:	6a23      	ldr	r3, [r4, #32]
 80019b8:	d103      	bne.n	80019c2 <HAL_RCC_OscConfig+0x25a>
 80019ba:	f043 0304 	orr.w	r3, r3, #4
 80019be:	6223      	str	r3, [r4, #32]
 80019c0:	e7ba      	b.n	8001938 <HAL_RCC_OscConfig+0x1d0>
 80019c2:	f023 0301 	bic.w	r3, r3, #1
 80019c6:	6223      	str	r3, [r4, #32]
 80019c8:	6a23      	ldr	r3, [r4, #32]
 80019ca:	f023 0304 	bic.w	r3, r3, #4
 80019ce:	e7b6      	b.n	800193e <HAL_RCC_OscConfig+0x1d6>
 80019d0:	f7fe ff02 	bl	80007d8 <HAL_GetTick>
 80019d4:	1b80      	subs	r0, r0, r6
 80019d6:	4540      	cmp	r0, r8
 80019d8:	d9b7      	bls.n	800194a <HAL_RCC_OscConfig+0x1e2>
 80019da:	e706      	b.n	80017ea <HAL_RCC_OscConfig+0x82>
 80019dc:	40021000 	.word	0x40021000
 80019e0:	42420000 	.word	0x42420000
 80019e4:	20000000 	.word	0x20000000
 80019e8:	40007000 	.word	0x40007000
 80019ec:	4c2a      	ldr	r4, [pc, #168]	; (8001a98 <HAL_RCC_OscConfig+0x330>)
 80019ee:	6863      	ldr	r3, [r4, #4]
 80019f0:	f003 030c 	and.w	r3, r3, #12
 80019f4:	2b08      	cmp	r3, #8
 80019f6:	d03e      	beq.n	8001a76 <HAL_RCC_OscConfig+0x30e>
 80019f8:	2200      	movs	r2, #0
 80019fa:	4b28      	ldr	r3, [pc, #160]	; (8001a9c <HAL_RCC_OscConfig+0x334>)
 80019fc:	2802      	cmp	r0, #2
 80019fe:	661a      	str	r2, [r3, #96]	; 0x60
 8001a00:	d12c      	bne.n	8001a5c <HAL_RCC_OscConfig+0x2f4>
 8001a02:	f7fe fee9 	bl	80007d8 <HAL_GetTick>
 8001a06:	4606      	mov	r6, r0
 8001a08:	6823      	ldr	r3, [r4, #0]
 8001a0a:	0199      	lsls	r1, r3, #6
 8001a0c:	d420      	bmi.n	8001a50 <HAL_RCC_OscConfig+0x2e8>
 8001a0e:	6a2b      	ldr	r3, [r5, #32]
 8001a10:	f5b3 3f80 	cmp.w	r3, #65536	; 0x10000
 8001a14:	d105      	bne.n	8001a22 <HAL_RCC_OscConfig+0x2ba>
 8001a16:	6862      	ldr	r2, [r4, #4]
 8001a18:	68a9      	ldr	r1, [r5, #8]
 8001a1a:	f422 3200 	bic.w	r2, r2, #131072	; 0x20000
 8001a1e:	430a      	orrs	r2, r1
 8001a20:	6062      	str	r2, [r4, #4]
 8001a22:	6a69      	ldr	r1, [r5, #36]	; 0x24
 8001a24:	6862      	ldr	r2, [r4, #4]
 8001a26:	430b      	orrs	r3, r1
 8001a28:	f422 1274 	bic.w	r2, r2, #3997696	; 0x3d0000
 8001a2c:	4313      	orrs	r3, r2
 8001a2e:	2201      	movs	r2, #1
 8001a30:	6063      	str	r3, [r4, #4]
 8001a32:	4b1a      	ldr	r3, [pc, #104]	; (8001a9c <HAL_RCC_OscConfig+0x334>)
 8001a34:	661a      	str	r2, [r3, #96]	; 0x60
 8001a36:	f7fe fecf 	bl	80007d8 <HAL_GetTick>
 8001a3a:	4605      	mov	r5, r0
 8001a3c:	6823      	ldr	r3, [r4, #0]
 8001a3e:	019a      	lsls	r2, r3, #6
 8001a40:	f53f aea8 	bmi.w	8001794 <HAL_RCC_OscConfig+0x2c>
 8001a44:	f7fe fec8 	bl	80007d8 <HAL_GetTick>
 8001a48:	1b40      	subs	r0, r0, r5
 8001a4a:	2802      	cmp	r0, #2
 8001a4c:	d9f6      	bls.n	8001a3c <HAL_RCC_OscConfig+0x2d4>
 8001a4e:	e6cc      	b.n	80017ea <HAL_RCC_OscConfig+0x82>
 8001a50:	f7fe fec2 	bl	80007d8 <HAL_GetTick>
 8001a54:	1b80      	subs	r0, r0, r6
 8001a56:	2802      	cmp	r0, #2
 8001a58:	d9d6      	bls.n	8001a08 <HAL_RCC_OscConfig+0x2a0>
 8001a5a:	e6c6      	b.n	80017ea <HAL_RCC_OscConfig+0x82>
 8001a5c:	f7fe febc 	bl	80007d8 <HAL_GetTick>
 8001a60:	4605      	mov	r5, r0
 8001a62:	6823      	ldr	r3, [r4, #0]
 8001a64:	019b      	lsls	r3, r3, #6
 8001a66:	f57f ae95 	bpl.w	8001794 <HAL_RCC_OscConfig+0x2c>
 8001a6a:	f7fe feb5 	bl	80007d8 <HAL_GetTick>
 8001a6e:	1b40      	subs	r0, r0, r5
 8001a70:	2802      	cmp	r0, #2
 8001a72:	d9f6      	bls.n	8001a62 <HAL_RCC_OscConfig+0x2fa>
 8001a74:	e6b9      	b.n	80017ea <HAL_RCC_OscConfig+0x82>
 8001a76:	2801      	cmp	r0, #1
 8001a78:	f43f aeb8 	beq.w	80017ec <HAL_RCC_OscConfig+0x84>
 8001a7c:	6863      	ldr	r3, [r4, #4]
 8001a7e:	6a2a      	ldr	r2, [r5, #32]
 8001a80:	f403 3180 	and.w	r1, r3, #65536	; 0x10000
 8001a84:	4291      	cmp	r1, r2
 8001a86:	f47f ae9b 	bne.w	80017c0 <HAL_RCC_OscConfig+0x58>
 8001a8a:	6a6a      	ldr	r2, [r5, #36]	; 0x24
 8001a8c:	f403 1370 	and.w	r3, r3, #3932160	; 0x3c0000
 8001a90:	4293      	cmp	r3, r2
 8001a92:	f43f ae7f 	beq.w	8001794 <HAL_RCC_OscConfig+0x2c>
 8001a96:	e693      	b.n	80017c0 <HAL_RCC_OscConfig+0x58>
 8001a98:	40021000 	.word	0x40021000
 8001a9c:	42420000 	.word	0x42420000

08001aa0 <HAL_RCC_GetSysClockFreq>:
 8001aa0:	b530      	push	{r4, r5, lr}
 8001aa2:	4b18      	ldr	r3, [pc, #96]	; (8001b04 <HAL_RCC_GetSysClockFreq+0x64>)
 8001aa4:	b087      	sub	sp, #28
 8001aa6:	ac02      	add	r4, sp, #8
 8001aa8:	f103 0510 	add.w	r5, r3, #16
 8001aac:	4622      	mov	r2, r4
 8001aae:	6818      	ldr	r0, [r3, #0]
 8001ab0:	6859      	ldr	r1, [r3, #4]
 8001ab2:	3308      	adds	r3, #8
 8001ab4:	c203      	stmia	r2!, {r0, r1}
 8001ab6:	42ab      	cmp	r3, r5
 8001ab8:	4614      	mov	r4, r2
 8001aba:	d1f7      	bne.n	8001aac <HAL_RCC_GetSysClockFreq+0xc>
 8001abc:	f240 2301 	movw	r3, #513	; 0x201
 8001ac0:	4911      	ldr	r1, [pc, #68]	; (8001b08 <HAL_RCC_GetSysClockFreq+0x68>)
 8001ac2:	f8ad 3004 	strh.w	r3, [sp, #4]
 8001ac6:	684b      	ldr	r3, [r1, #4]
 8001ac8:	f003 020c 	and.w	r2, r3, #12
 8001acc:	2a08      	cmp	r2, #8
 8001ace:	d117      	bne.n	8001b00 <HAL_RCC_GetSysClockFreq+0x60>
 8001ad0:	f3c3 4283 	ubfx	r2, r3, #18, #4
 8001ad4:	3218      	adds	r2, #24
 8001ad6:	446a      	add	r2, sp
 8001ad8:	03db      	lsls	r3, r3, #15
 8001ada:	f812 0c10 	ldrb.w	r0, [r2, #-16]
 8001ade:	d50c      	bpl.n	8001afa <HAL_RCC_GetSysClockFreq+0x5a>
 8001ae0:	684b      	ldr	r3, [r1, #4]
 8001ae2:	4a0a      	ldr	r2, [pc, #40]	; (8001b0c <HAL_RCC_GetSysClockFreq+0x6c>)
 8001ae4:	f3c3 4340 	ubfx	r3, r3, #17, #1
 8001ae8:	4350      	muls	r0, r2
 8001aea:	3318      	adds	r3, #24
 8001aec:	446b      	add	r3, sp
 8001aee:	f813 3c14 	ldrb.w	r3, [r3, #-20]
 8001af2:	fbb0 f0f3 	udiv	r0, r0, r3
 8001af6:	b007      	add	sp, #28
 8001af8:	bd30      	pop	{r4, r5, pc}
 8001afa:	4b05      	ldr	r3, [pc, #20]	; (8001b10 <HAL_RCC_GetSysClockFreq+0x70>)
 8001afc:	4358      	muls	r0, r3
 8001afe:	e7fa      	b.n	8001af6 <HAL_RCC_GetSysClockFreq+0x56>
 8001b00:	4802      	ldr	r0, [pc, #8]	; (8001b0c <HAL_RCC_GetSysClockFreq+0x6c>)
 8001b02:	e7f8      	b.n	8001af6 <HAL_RCC_GetSysClockFreq+0x56>
 8001b04:	08009340 	.word	0x08009340
 8001b08:	40021000 	.word	0x40021000
 8001b0c:	007a1200 	.word	0x007a1200
 8001b10:	003d0900 	.word	0x003d0900

08001b14 <HAL_RCC_ClockConfig>:
 8001b14:	e92d 41f0 	stmdb	sp!, {r4, r5, r6, r7, r8, lr}
 8001b18:	460d      	mov	r5, r1
 8001b1a:	4604      	mov	r4, r0
 8001b1c:	b910      	cbnz	r0, 8001b24 <HAL_RCC_ClockConfig+0x10>
 8001b1e:	2001      	movs	r0, #1
 8001b20:	e8bd 81f0 	ldmia.w	sp!, {r4, r5, r6, r7, r8, pc}
 8001b24:	4a44      	ldr	r2, [pc, #272]	; (8001c38 <HAL_RCC_ClockConfig+0x124>)
 8001b26:	6813      	ldr	r3, [r2, #0]
 8001b28:	f003 0307 	and.w	r3, r3, #7
 8001b2c:	428b      	cmp	r3, r1
 8001b2e:	d328      	bcc.n	8001b82 <HAL_RCC_ClockConfig+0x6e>
 8001b30:	6821      	ldr	r1, [r4, #0]
 8001b32:	078e      	lsls	r6, r1, #30
 8001b34:	d430      	bmi.n	8001b98 <HAL_RCC_ClockConfig+0x84>
 8001b36:	07ca      	lsls	r2, r1, #31
 8001b38:	d443      	bmi.n	8001bc2 <HAL_RCC_ClockConfig+0xae>
 8001b3a:	4a3f      	ldr	r2, [pc, #252]	; (8001c38 <HAL_RCC_ClockConfig+0x124>)
 8001b3c:	6813      	ldr	r3, [r2, #0]
 8001b3e:	f003 0307 	and.w	r3, r3, #7
 8001b42:	42ab      	cmp	r3, r5
 8001b44:	d865      	bhi.n	8001c12 <HAL_RCC_ClockConfig+0xfe>
 8001b46:	6822      	ldr	r2, [r4, #0]
 8001b48:	4d3c      	ldr	r5, [pc, #240]	; (8001c3c <HAL_RCC_ClockConfig+0x128>)
 8001b4a:	f012 0f04 	tst.w	r2, #4
 8001b4e:	d16c      	bne.n	8001c2a <HAL_RCC_ClockConfig+0x116>
 8001b50:	0713      	lsls	r3, r2, #28
 8001b52:	d506      	bpl.n	8001b62 <HAL_RCC_ClockConfig+0x4e>
 8001b54:	686b      	ldr	r3, [r5, #4]
 8001b56:	6922      	ldr	r2, [r4, #16]
 8001b58:	f423 5360 	bic.w	r3, r3, #14336	; 0x3800
 8001b5c:	ea43 03c2 	orr.w	r3, r3, r2, lsl #3
 8001b60:	606b      	str	r3, [r5, #4]
 8001b62:	f7ff ff9d 	bl	8001aa0 <HAL_RCC_GetSysClockFreq>
 8001b66:	686b      	ldr	r3, [r5, #4]
 8001b68:	4a35      	ldr	r2, [pc, #212]	; (8001c40 <HAL_RCC_ClockConfig+0x12c>)
 8001b6a:	f3c3 1303 	ubfx	r3, r3, #4, #4
 8001b6e:	5cd3      	ldrb	r3, [r2, r3]
 8001b70:	40d8      	lsrs	r0, r3
 8001b72:	4b34      	ldr	r3, [pc, #208]	; (8001c44 <HAL_RCC_ClockConfig+0x130>)
 8001b74:	6018      	str	r0, [r3, #0]
 8001b76:	4b34      	ldr	r3, [pc, #208]	; (8001c48 <HAL_RCC_ClockConfig+0x134>)
 8001b78:	6818      	ldr	r0, [r3, #0]
 8001b7a:	f7fe fd41 	bl	8000600 <HAL_InitTick>
 8001b7e:	2000      	movs	r0, #0
 8001b80:	e7ce      	b.n	8001b20 <HAL_RCC_ClockConfig+0xc>
 8001b82:	6813      	ldr	r3, [r2, #0]
 8001b84:	f023 0307 	bic.w	r3, r3, #7
 8001b88:	430b      	orrs	r3, r1
 8001b8a:	6013      	str	r3, [r2, #0]
 8001b8c:	6813      	ldr	r3, [r2, #0]
 8001b8e:	f003 0307 	and.w	r3, r3, #7
 8001b92:	428b      	cmp	r3, r1
 8001b94:	d1c3      	bne.n	8001b1e <HAL_RCC_ClockConfig+0xa>
 8001b96:	e7cb      	b.n	8001b30 <HAL_RCC_ClockConfig+0x1c>
 8001b98:	4b28      	ldr	r3, [pc, #160]	; (8001c3c <HAL_RCC_ClockConfig+0x128>)
 8001b9a:	f011 0f04 	tst.w	r1, #4
 8001b9e:	bf1e      	ittt	ne
 8001ba0:	685a      	ldrne	r2, [r3, #4]
 8001ba2:	f442 62e0 	orrne.w	r2, r2, #1792	; 0x700
 8001ba6:	605a      	strne	r2, [r3, #4]
 8001ba8:	0708      	lsls	r0, r1, #28
 8001baa:	bf42      	ittt	mi
 8001bac:	685a      	ldrmi	r2, [r3, #4]
 8001bae:	f442 5260 	orrmi.w	r2, r2, #14336	; 0x3800
 8001bb2:	605a      	strmi	r2, [r3, #4]
 8001bb4:	685a      	ldr	r2, [r3, #4]
 8001bb6:	68a0      	ldr	r0, [r4, #8]
 8001bb8:	f022 02f0 	bic.w	r2, r2, #240	; 0xf0
 8001bbc:	4302      	orrs	r2, r0
 8001bbe:	605a      	str	r2, [r3, #4]
 8001bc0:	e7b9      	b.n	8001b36 <HAL_RCC_ClockConfig+0x22>
 8001bc2:	6862      	ldr	r2, [r4, #4]
 8001bc4:	4e1d      	ldr	r6, [pc, #116]	; (8001c3c <HAL_RCC_ClockConfig+0x128>)
 8001bc6:	2a01      	cmp	r2, #1
 8001bc8:	6833      	ldr	r3, [r6, #0]
 8001bca:	d11a      	bne.n	8001c02 <HAL_RCC_ClockConfig+0xee>
 8001bcc:	f413 3f00 	tst.w	r3, #131072	; 0x20000
 8001bd0:	d0a5      	beq.n	8001b1e <HAL_RCC_ClockConfig+0xa>
 8001bd2:	6873      	ldr	r3, [r6, #4]
 8001bd4:	f241 3888 	movw	r8, #5000	; 0x1388
 8001bd8:	f023 0303 	bic.w	r3, r3, #3
 8001bdc:	4313      	orrs	r3, r2
 8001bde:	6073      	str	r3, [r6, #4]
 8001be0:	f7fe fdfa 	bl	80007d8 <HAL_GetTick>
 8001be4:	4607      	mov	r7, r0
 8001be6:	6873      	ldr	r3, [r6, #4]
 8001be8:	6862      	ldr	r2, [r4, #4]
 8001bea:	f003 030c 	and.w	r3, r3, #12
 8001bee:	ebb3 0f82 	cmp.w	r3, r2, lsl #2
 8001bf2:	d0a2      	beq.n	8001b3a <HAL_RCC_ClockConfig+0x26>
 8001bf4:	f7fe fdf0 	bl	80007d8 <HAL_GetTick>
 8001bf8:	1bc0      	subs	r0, r0, r7
 8001bfa:	4540      	cmp	r0, r8
 8001bfc:	d9f3      	bls.n	8001be6 <HAL_RCC_ClockConfig+0xd2>
 8001bfe:	2003      	movs	r0, #3
 8001c00:	e78e      	b.n	8001b20 <HAL_RCC_ClockConfig+0xc>
 8001c02:	2a02      	cmp	r2, #2
 8001c04:	d102      	bne.n	8001c0c <HAL_RCC_ClockConfig+0xf8>
 8001c06:	f013 7f00 	tst.w	r3, #33554432	; 0x2000000
 8001c0a:	e7e1      	b.n	8001bd0 <HAL_RCC_ClockConfig+0xbc>
 8001c0c:	f013 0f02 	tst.w	r3, #2
 8001c10:	e7de      	b.n	8001bd0 <HAL_RCC_ClockConfig+0xbc>
 8001c12:	6813      	ldr	r3, [r2, #0]
 8001c14:	f023 0307 	bic.w	r3, r3, #7
 8001c18:	432b      	orrs	r3, r5
 8001c1a:	6013      	str	r3, [r2, #0]
 8001c1c:	6813      	ldr	r3, [r2, #0]
 8001c1e:	f003 0307 	and.w	r3, r3, #7
 8001c22:	42ab      	cmp	r3, r5
 8001c24:	f47f af7b 	bne.w	8001b1e <HAL_RCC_ClockConfig+0xa>
 8001c28:	e78d      	b.n	8001b46 <HAL_RCC_ClockConfig+0x32>
 8001c2a:	686b      	ldr	r3, [r5, #4]
 8001c2c:	68e1      	ldr	r1, [r4, #12]
 8001c2e:	f423 63e0 	bic.w	r3, r3, #1792	; 0x700
 8001c32:	430b      	orrs	r3, r1
 8001c34:	606b      	str	r3, [r5, #4]
 8001c36:	e78b      	b.n	8001b50 <HAL_RCC_ClockConfig+0x3c>
 8001c38:	40022000 	.word	0x40022000
 8001c3c:	40021000 	.word	0x40021000
 8001c40:	08009328 	.word	0x08009328
 8001c44:	20000000 	.word	0x20000000
 8001c48:	20000008 	.word	0x20000008

08001c4c <HAL_RCC_GetPCLK1Freq>:
 8001c4c:	4b04      	ldr	r3, [pc, #16]	; (8001c60 <HAL_RCC_GetPCLK1Freq+0x14>)
 8001c4e:	4a05      	ldr	r2, [pc, #20]	; (8001c64 <HAL_RCC_GetPCLK1Freq+0x18>)
 8001c50:	685b      	ldr	r3, [r3, #4]
 8001c52:	f3c3 2302 	ubfx	r3, r3, #8, #3
 8001c56:	5cd3      	ldrb	r3, [r2, r3]
 8001c58:	4a03      	ldr	r2, [pc, #12]	; (8001c68 <HAL_RCC_GetPCLK1Freq+0x1c>)
 8001c5a:	6810      	ldr	r0, [r2, #0]
 8001c5c:	40d8      	lsrs	r0, r3
 8001c5e:	4770      	bx	lr
 8001c60:	40021000 	.word	0x40021000
 8001c64:	08009338 	.word	0x08009338
 8001c68:	20000000 	.word	0x20000000

08001c6c <HAL_RCC_GetPCLK2Freq>:
 8001c6c:	4b04      	ldr	r3, [pc, #16]	; (8001c80 <HAL_RCC_GetPCLK2Freq+0x14>)
 8001c6e:	4a05      	ldr	r2, [pc, #20]	; (8001c84 <HAL_RCC_GetPCLK2Freq+0x18>)
 8001c70:	685b      	ldr	r3, [r3, #4]
 8001c72:	f3c3 23c2 	ubfx	r3, r3, #11, #3
 8001c76:	5cd3      	ldrb	r3, [r2, r3]
 8001c78:	4a03      	ldr	r2, [pc, #12]	; (8001c88 <HAL_RCC_GetPCLK2Freq+0x1c>)
 8001c7a:	6810      	ldr	r0, [r2, #0]
 8001c7c:	40d8      	lsrs	r0, r3
 8001c7e:	4770      	bx	lr
 8001c80:	40021000 	.word	0x40021000
 8001c84:	08009338 	.word	0x08009338
 8001c88:	20000000 	.word	0x20000000

08001c8c <HAL_RCC_GetClockConfig>:
 8001c8c:	230f      	movs	r3, #15
 8001c8e:	6003      	str	r3, [r0, #0]
 8001c90:	4b0b      	ldr	r3, [pc, #44]	; (8001cc0 <HAL_RCC_GetClockConfig+0x34>)
 8001c92:	685a      	ldr	r2, [r3, #4]
 8001c94:	f002 0203 	and.w	r2, r2, #3
 8001c98:	6042      	str	r2, [r0, #4]
 8001c9a:	685a      	ldr	r2, [r3, #4]
 8001c9c:	f002 02f0 	and.w	r2, r2, #240	; 0xf0
 8001ca0:	6082      	str	r2, [r0, #8]
 8001ca2:	685a      	ldr	r2, [r3, #4]
 8001ca4:	f402 62e0 	and.w	r2, r2, #1792	; 0x700
 8001ca8:	60c2      	str	r2, [r0, #12]
 8001caa:	685b      	ldr	r3, [r3, #4]
 8001cac:	08db      	lsrs	r3, r3, #3
 8001cae:	f403 63e0 	and.w	r3, r3, #1792	; 0x700
 8001cb2:	6103      	str	r3, [r0, #16]
 8001cb4:	4b03      	ldr	r3, [pc, #12]	; (8001cc4 <HAL_RCC_GetClockConfig+0x38>)
 8001cb6:	681b      	ldr	r3, [r3, #0]
 8001cb8:	f003 0307 	and.w	r3, r3, #7
 8001cbc:	600b      	str	r3, [r1, #0]
 8001cbe:	4770      	bx	lr
 8001cc0:	40021000 	.word	0x40021000
 8001cc4:	40022000 	.word	0x40022000

08001cc8 <HAL_RCCEx_PeriphCLKConfig>:
 8001cc8:	6803      	ldr	r3, [r0, #0]
 8001cca:	e92d 41f3 	stmdb	sp!, {r0, r1, r4, r5, r6, r7, r8, lr}
 8001cce:	07d9      	lsls	r1, r3, #31
 8001cd0:	4605      	mov	r5, r0
 8001cd2:	d520      	bpl.n	8001d16 <HAL_RCCEx_PeriphCLKConfig+0x4e>
 8001cd4:	4c36      	ldr	r4, [pc, #216]	; (8001db0 <HAL_RCCEx_PeriphCLKConfig+0xe8>)
 8001cd6:	69e3      	ldr	r3, [r4, #28]
 8001cd8:	00da      	lsls	r2, r3, #3
 8001cda:	d432      	bmi.n	8001d42 <HAL_RCCEx_PeriphCLKConfig+0x7a>
 8001cdc:	2601      	movs	r6, #1
 8001cde:	69e3      	ldr	r3, [r4, #28]
 8001ce0:	f043 5380 	orr.w	r3, r3, #268435456	; 0x10000000
 8001ce4:	61e3      	str	r3, [r4, #28]
 8001ce6:	69e3      	ldr	r3, [r4, #28]
 8001ce8:	f003 5380 	and.w	r3, r3, #268435456	; 0x10000000
 8001cec:	9301      	str	r3, [sp, #4]
 8001cee:	9b01      	ldr	r3, [sp, #4]
 8001cf0:	4f30      	ldr	r7, [pc, #192]	; (8001db4 <HAL_RCCEx_PeriphCLKConfig+0xec>)
 8001cf2:	683b      	ldr	r3, [r7, #0]
 8001cf4:	05db      	lsls	r3, r3, #23
 8001cf6:	d526      	bpl.n	8001d46 <HAL_RCCEx_PeriphCLKConfig+0x7e>
 8001cf8:	6a23      	ldr	r3, [r4, #32]
 8001cfa:	f413 7340 	ands.w	r3, r3, #768	; 0x300
 8001cfe:	d136      	bne.n	8001d6e <HAL_RCCEx_PeriphCLKConfig+0xa6>
 8001d00:	6a23      	ldr	r3, [r4, #32]
 8001d02:	686a      	ldr	r2, [r5, #4]
 8001d04:	f423 7340 	bic.w	r3, r3, #768	; 0x300
 8001d08:	4313      	orrs	r3, r2
 8001d0a:	6223      	str	r3, [r4, #32]
 8001d0c:	b11e      	cbz	r6, 8001d16 <HAL_RCCEx_PeriphCLKConfig+0x4e>
 8001d0e:	69e3      	ldr	r3, [r4, #28]
 8001d10:	f023 5380 	bic.w	r3, r3, #268435456	; 0x10000000
 8001d14:	61e3      	str	r3, [r4, #28]
 8001d16:	6828      	ldr	r0, [r5, #0]
 8001d18:	0783      	lsls	r3, r0, #30
 8001d1a:	d506      	bpl.n	8001d2a <HAL_RCCEx_PeriphCLKConfig+0x62>
 8001d1c:	4924      	ldr	r1, [pc, #144]	; (8001db0 <HAL_RCCEx_PeriphCLKConfig+0xe8>)
 8001d1e:	68ab      	ldr	r3, [r5, #8]
 8001d20:	684a      	ldr	r2, [r1, #4]
 8001d22:	f422 4240 	bic.w	r2, r2, #49152	; 0xc000
 8001d26:	431a      	orrs	r2, r3
 8001d28:	604a      	str	r2, [r1, #4]
 8001d2a:	f010 0010 	ands.w	r0, r0, #16
 8001d2e:	d01b      	beq.n	8001d68 <HAL_RCCEx_PeriphCLKConfig+0xa0>
 8001d30:	4a1f      	ldr	r2, [pc, #124]	; (8001db0 <HAL_RCCEx_PeriphCLKConfig+0xe8>)
 8001d32:	68e9      	ldr	r1, [r5, #12]
 8001d34:	6853      	ldr	r3, [r2, #4]
 8001d36:	2000      	movs	r0, #0
 8001d38:	f423 0380 	bic.w	r3, r3, #4194304	; 0x400000
 8001d3c:	430b      	orrs	r3, r1
 8001d3e:	6053      	str	r3, [r2, #4]
 8001d40:	e012      	b.n	8001d68 <HAL_RCCEx_PeriphCLKConfig+0xa0>
 8001d42:	2600      	movs	r6, #0
 8001d44:	e7d4      	b.n	8001cf0 <HAL_RCCEx_PeriphCLKConfig+0x28>
 8001d46:	683b      	ldr	r3, [r7, #0]
 8001d48:	f443 7380 	orr.w	r3, r3, #256	; 0x100
 8001d4c:	603b      	str	r3, [r7, #0]
 8001d4e:	f7fe fd43 	bl	80007d8 <HAL_GetTick>
 8001d52:	4680      	mov	r8, r0
 8001d54:	683b      	ldr	r3, [r7, #0]
 8001d56:	05d8      	lsls	r0, r3, #23
 8001d58:	d4ce      	bmi.n	8001cf8 <HAL_RCCEx_PeriphCLKConfig+0x30>
 8001d5a:	f7fe fd3d 	bl	80007d8 <HAL_GetTick>
 8001d5e:	eba0 0008 	sub.w	r0, r0, r8
 8001d62:	2864      	cmp	r0, #100	; 0x64
 8001d64:	d9f6      	bls.n	8001d54 <HAL_RCCEx_PeriphCLKConfig+0x8c>
 8001d66:	2003      	movs	r0, #3
 8001d68:	b002      	add	sp, #8
 8001d6a:	e8bd 81f0 	ldmia.w	sp!, {r4, r5, r6, r7, r8, pc}
 8001d6e:	686a      	ldr	r2, [r5, #4]
 8001d70:	f402 7240 	and.w	r2, r2, #768	; 0x300
 8001d74:	429a      	cmp	r2, r3
 8001d76:	d0c3      	beq.n	8001d00 <HAL_RCCEx_PeriphCLKConfig+0x38>
 8001d78:	2001      	movs	r0, #1
 8001d7a:	4a0f      	ldr	r2, [pc, #60]	; (8001db8 <HAL_RCCEx_PeriphCLKConfig+0xf0>)
 8001d7c:	6a23      	ldr	r3, [r4, #32]
 8001d7e:	f8c2 0440 	str.w	r0, [r2, #1088]	; 0x440
 8001d82:	2000      	movs	r0, #0
 8001d84:	f423 7140 	bic.w	r1, r3, #768	; 0x300
 8001d88:	f8c2 0440 	str.w	r0, [r2, #1088]	; 0x440
 8001d8c:	6221      	str	r1, [r4, #32]
 8001d8e:	07d9      	lsls	r1, r3, #31
 8001d90:	d5b6      	bpl.n	8001d00 <HAL_RCCEx_PeriphCLKConfig+0x38>
 8001d92:	f7fe fd21 	bl	80007d8 <HAL_GetTick>
 8001d96:	f241 3888 	movw	r8, #5000	; 0x1388
 8001d9a:	4607      	mov	r7, r0
 8001d9c:	6a23      	ldr	r3, [r4, #32]
 8001d9e:	079a      	lsls	r2, r3, #30
 8001da0:	d4ae      	bmi.n	8001d00 <HAL_RCCEx_PeriphCLKConfig+0x38>
 8001da2:	f7fe fd19 	bl	80007d8 <HAL_GetTick>
 8001da6:	1bc0      	subs	r0, r0, r7
 8001da8:	4540      	cmp	r0, r8
 8001daa:	d9f7      	bls.n	8001d9c <HAL_RCCEx_PeriphCLKConfig+0xd4>
 8001dac:	e7db      	b.n	8001d66 <HAL_RCCEx_PeriphCLKConfig+0x9e>
 8001dae:	bf00      	nop
 8001db0:	40021000 	.word	0x40021000
 8001db4:	40007000 	.word	0x40007000
 8001db8:	42420000 	.word	0x42420000

08001dbc <HAL_RCCEx_GetPeriphCLKFreq>:
 8001dbc:	4602      	mov	r2, r0
 8001dbe:	b570      	push	{r4, r5, r6, lr}
 8001dc0:	4b33      	ldr	r3, [pc, #204]	; (8001e90 <HAL_RCCEx_GetPeriphCLKFreq+0xd4>)
 8001dc2:	b086      	sub	sp, #24
 8001dc4:	ad02      	add	r5, sp, #8
 8001dc6:	f103 0610 	add.w	r6, r3, #16
 8001dca:	462c      	mov	r4, r5
 8001dcc:	6818      	ldr	r0, [r3, #0]
 8001dce:	6859      	ldr	r1, [r3, #4]
 8001dd0:	3308      	adds	r3, #8
 8001dd2:	c403      	stmia	r4!, {r0, r1}
 8001dd4:	42b3      	cmp	r3, r6
 8001dd6:	4625      	mov	r5, r4
 8001dd8:	d1f7      	bne.n	8001dca <HAL_RCCEx_GetPeriphCLKFreq+0xe>
 8001dda:	f240 2301 	movw	r3, #513	; 0x201
 8001dde:	2a02      	cmp	r2, #2
 8001de0:	f8ad 3004 	strh.w	r3, [sp, #4]
 8001de4:	d047      	beq.n	8001e76 <HAL_RCCEx_GetPeriphCLKFreq+0xba>
 8001de6:	2a10      	cmp	r2, #16
 8001de8:	d003      	beq.n	8001df2 <HAL_RCCEx_GetPeriphCLKFreq+0x36>
 8001dea:	2a01      	cmp	r2, #1
 8001dec:	d024      	beq.n	8001e38 <HAL_RCCEx_GetPeriphCLKFreq+0x7c>
 8001dee:	2000      	movs	r0, #0
 8001df0:	e036      	b.n	8001e60 <HAL_RCCEx_GetPeriphCLKFreq+0xa4>
 8001df2:	4a28      	ldr	r2, [pc, #160]	; (8001e94 <HAL_RCCEx_GetPeriphCLKFreq+0xd8>)
 8001df4:	6851      	ldr	r1, [r2, #4]
 8001df6:	6810      	ldr	r0, [r2, #0]
 8001df8:	f010 7080 	ands.w	r0, r0, #16777216	; 0x1000000
 8001dfc:	d030      	beq.n	8001e60 <HAL_RCCEx_GetPeriphCLKFreq+0xa4>
 8001dfe:	f3c1 4383 	ubfx	r3, r1, #18, #4
 8001e02:	3318      	adds	r3, #24
 8001e04:	446b      	add	r3, sp
 8001e06:	03c9      	lsls	r1, r1, #15
 8001e08:	f813 0c10 	ldrb.w	r0, [r3, #-16]
 8001e0c:	bf49      	itett	mi
 8001e0e:	6853      	ldrmi	r3, [r2, #4]
 8001e10:	4b21      	ldrpl	r3, [pc, #132]	; (8001e98 <HAL_RCCEx_GetPeriphCLKFreq+0xdc>)
 8001e12:	f3c3 4340 	ubfxmi	r3, r3, #17, #1
 8001e16:	3318      	addmi	r3, #24
 8001e18:	bf41      	itttt	mi
 8001e1a:	446b      	addmi	r3, sp
 8001e1c:	f813 1c14 	ldrbmi.w	r1, [r3, #-20]
 8001e20:	4b1e      	ldrmi	r3, [pc, #120]	; (8001e9c <HAL_RCCEx_GetPeriphCLKFreq+0xe0>)
 8001e22:	fbb3 f3f1 	udivmi	r3, r3, r1
 8001e26:	4358      	muls	r0, r3
 8001e28:	6853      	ldr	r3, [r2, #4]
 8001e2a:	025b      	lsls	r3, r3, #9
 8001e2c:	d418      	bmi.n	8001e60 <HAL_RCCEx_GetPeriphCLKFreq+0xa4>
 8001e2e:	2303      	movs	r3, #3
 8001e30:	0040      	lsls	r0, r0, #1
 8001e32:	fbb0 f0f3 	udiv	r0, r0, r3
 8001e36:	e013      	b.n	8001e60 <HAL_RCCEx_GetPeriphCLKFreq+0xa4>
 8001e38:	f240 3102 	movw	r1, #770	; 0x302
 8001e3c:	4a15      	ldr	r2, [pc, #84]	; (8001e94 <HAL_RCCEx_GetPeriphCLKFreq+0xd8>)
 8001e3e:	6a13      	ldr	r3, [r2, #32]
 8001e40:	4019      	ands	r1, r3
 8001e42:	f5b1 7f81 	cmp.w	r1, #258	; 0x102
 8001e46:	d01f      	beq.n	8001e88 <HAL_RCCEx_GetPeriphCLKFreq+0xcc>
 8001e48:	f403 7340 	and.w	r3, r3, #768	; 0x300
 8001e4c:	f5b3 7f00 	cmp.w	r3, #512	; 0x200
 8001e50:	d108      	bne.n	8001e64 <HAL_RCCEx_GetPeriphCLKFreq+0xa8>
 8001e52:	f649 4340 	movw	r3, #40000	; 0x9c40
 8001e56:	6a50      	ldr	r0, [r2, #36]	; 0x24
 8001e58:	f010 0002 	ands.w	r0, r0, #2
 8001e5c:	bf18      	it	ne
 8001e5e:	4618      	movne	r0, r3
 8001e60:	b006      	add	sp, #24
 8001e62:	bd70      	pop	{r4, r5, r6, pc}
 8001e64:	f5b3 7f40 	cmp.w	r3, #768	; 0x300
 8001e68:	d1c1      	bne.n	8001dee <HAL_RCCEx_GetPeriphCLKFreq+0x32>
 8001e6a:	6810      	ldr	r0, [r2, #0]
 8001e6c:	f24f 4324 	movw	r3, #62500	; 0xf424
 8001e70:	f410 3000 	ands.w	r0, r0, #131072	; 0x20000
 8001e74:	e7f2      	b.n	8001e5c <HAL_RCCEx_GetPeriphCLKFreq+0xa0>
 8001e76:	f7ff fef9 	bl	8001c6c <HAL_RCC_GetPCLK2Freq>
 8001e7a:	4b06      	ldr	r3, [pc, #24]	; (8001e94 <HAL_RCCEx_GetPeriphCLKFreq+0xd8>)
 8001e7c:	685b      	ldr	r3, [r3, #4]
 8001e7e:	f3c3 3381 	ubfx	r3, r3, #14, #2
 8001e82:	3301      	adds	r3, #1
 8001e84:	005b      	lsls	r3, r3, #1
 8001e86:	e7d4      	b.n	8001e32 <HAL_RCCEx_GetPeriphCLKFreq+0x76>
 8001e88:	f44f 4000 	mov.w	r0, #32768	; 0x8000
 8001e8c:	e7e8      	b.n	8001e60 <HAL_RCCEx_GetPeriphCLKFreq+0xa4>
 8001e8e:	bf00      	nop
 8001e90:	08009340 	.word	0x08009340
 8001e94:	40021000 	.word	0x40021000
 8001e98:	003d0900 	.word	0x003d0900
 8001e9c:	007a1200 	.word	0x007a1200

08001ea0 <RTC_EnterInitMode>:
 8001ea0:	b538      	push	{r3, r4, r5, lr}
 8001ea2:	4604      	mov	r4, r0
 8001ea4:	f7fe fc98 	bl	80007d8 <HAL_GetTick>
 8001ea8:	4605      	mov	r5, r0
 8001eaa:	6823      	ldr	r3, [r4, #0]
 8001eac:	685a      	ldr	r2, [r3, #4]
 8001eae:	0692      	lsls	r2, r2, #26
 8001eb0:	d505      	bpl.n	8001ebe <RTC_EnterInitMode+0x1e>
 8001eb2:	2000      	movs	r0, #0
 8001eb4:	685a      	ldr	r2, [r3, #4]
 8001eb6:	f042 0210 	orr.w	r2, r2, #16
 8001eba:	605a      	str	r2, [r3, #4]
 8001ebc:	bd38      	pop	{r3, r4, r5, pc}
 8001ebe:	f7fe fc8b 	bl	80007d8 <HAL_GetTick>
 8001ec2:	1b40      	subs	r0, r0, r5
 8001ec4:	f5b0 7f7a 	cmp.w	r0, #1000	; 0x3e8
 8001ec8:	d9ef      	bls.n	8001eaa <RTC_EnterInitMode+0xa>
 8001eca:	2003      	movs	r0, #3
 8001ecc:	e7f6      	b.n	8001ebc <RTC_EnterInitMode+0x1c>

08001ece <RTC_ExitInitMode>:
 8001ece:	6802      	ldr	r2, [r0, #0]
 8001ed0:	b538      	push	{r3, r4, r5, lr}
 8001ed2:	6853      	ldr	r3, [r2, #4]
 8001ed4:	4604      	mov	r4, r0
 8001ed6:	f023 0310 	bic.w	r3, r3, #16
 8001eda:	6053      	str	r3, [r2, #4]
 8001edc:	f7fe fc7c 	bl	80007d8 <HAL_GetTick>
 8001ee0:	4605      	mov	r5, r0
 8001ee2:	6823      	ldr	r3, [r4, #0]
 8001ee4:	685b      	ldr	r3, [r3, #4]
 8001ee6:	069b      	lsls	r3, r3, #26
 8001ee8:	d501      	bpl.n	8001eee <RTC_ExitInitMode+0x20>
 8001eea:	2000      	movs	r0, #0
 8001eec:	bd38      	pop	{r3, r4, r5, pc}
 8001eee:	f7fe fc73 	bl	80007d8 <HAL_GetTick>
 8001ef2:	1b40      	subs	r0, r0, r5
 8001ef4:	f5b0 7f7a 	cmp.w	r0, #1000	; 0x3e8
 8001ef8:	d9f3      	bls.n	8001ee2 <RTC_ExitInitMode+0x14>
 8001efa:	2003      	movs	r0, #3
 8001efc:	e7f6      	b.n	8001eec <RTC_ExitInitMode+0x1e>

08001efe <HAL_RTC_WaitForSynchro>:
 8001efe:	b538      	push	{r3, r4, r5, lr}
 8001f00:	4604      	mov	r4, r0
 8001f02:	b1a8      	cbz	r0, 8001f30 <HAL_RTC_WaitForSynchro+0x32>
 8001f04:	6802      	ldr	r2, [r0, #0]
 8001f06:	6853      	ldr	r3, [r2, #4]
 8001f08:	f023 0308 	bic.w	r3, r3, #8
 8001f0c:	6053      	str	r3, [r2, #4]
 8001f0e:	f7fe fc63 	bl	80007d8 <HAL_GetTick>
 8001f12:	4605      	mov	r5, r0
 8001f14:	6823      	ldr	r3, [r4, #0]
 8001f16:	685b      	ldr	r3, [r3, #4]
 8001f18:	071b      	lsls	r3, r3, #28
 8001f1a:	d501      	bpl.n	8001f20 <HAL_RTC_WaitForSynchro+0x22>
 8001f1c:	2000      	movs	r0, #0
 8001f1e:	bd38      	pop	{r3, r4, r5, pc}
 8001f20:	f7fe fc5a 	bl	80007d8 <HAL_GetTick>
 8001f24:	1b40      	subs	r0, r0, r5
 8001f26:	f5b0 7f7a 	cmp.w	r0, #1000	; 0x3e8
 8001f2a:	d9f3      	bls.n	8001f14 <HAL_RTC_WaitForSynchro+0x16>
 8001f2c:	2003      	movs	r0, #3
 8001f2e:	e7f6      	b.n	8001f1e <HAL_RTC_WaitForSynchro+0x20>
 8001f30:	2001      	movs	r0, #1
 8001f32:	e7f4      	b.n	8001f1e <HAL_RTC_WaitForSynchro+0x20>

08001f34 <HAL_RTC_Init>:
 8001f34:	b510      	push	{r4, lr}
 8001f36:	4604      	mov	r4, r0
 8001f38:	b170      	cbz	r0, 8001f58 <HAL_RTC_Init+0x24>
 8001f3a:	7c43      	ldrb	r3, [r0, #17]
 8001f3c:	f003 02ff 	and.w	r2, r3, #255	; 0xff
 8001f40:	b913      	cbnz	r3, 8001f48 <HAL_RTC_Init+0x14>
 8001f42:	7402      	strb	r2, [r0, #16]
 8001f44:	f7fe fa68 	bl	8000418 <HAL_RTC_MspInit>
 8001f48:	2302      	movs	r3, #2
 8001f4a:	4620      	mov	r0, r4
 8001f4c:	7463      	strb	r3, [r4, #17]
 8001f4e:	f7ff ffd6 	bl	8001efe <HAL_RTC_WaitForSynchro>
 8001f52:	b118      	cbz	r0, 8001f5c <HAL_RTC_Init+0x28>
 8001f54:	2304      	movs	r3, #4
 8001f56:	7463      	strb	r3, [r4, #17]
 8001f58:	2001      	movs	r0, #1
 8001f5a:	e036      	b.n	8001fca <HAL_RTC_Init+0x96>
 8001f5c:	4620      	mov	r0, r4
 8001f5e:	f7ff ff9f 	bl	8001ea0 <RTC_EnterInitMode>
 8001f62:	2800      	cmp	r0, #0
 8001f64:	d1f6      	bne.n	8001f54 <HAL_RTC_Init+0x20>
 8001f66:	6822      	ldr	r2, [r4, #0]
 8001f68:	68a0      	ldr	r0, [r4, #8]
 8001f6a:	6853      	ldr	r3, [r2, #4]
 8001f6c:	f023 0307 	bic.w	r3, r3, #7
 8001f70:	6053      	str	r3, [r2, #4]
 8001f72:	4a16      	ldr	r2, [pc, #88]	; (8001fcc <HAL_RTC_Init+0x98>)
 8001f74:	b118      	cbz	r0, 8001f7e <HAL_RTC_Init+0x4a>
 8001f76:	6b11      	ldr	r1, [r2, #48]	; 0x30
 8001f78:	f021 0101 	bic.w	r1, r1, #1
 8001f7c:	6311      	str	r1, [r2, #48]	; 0x30
 8001f7e:	6ad3      	ldr	r3, [r2, #44]	; 0x2c
 8001f80:	f423 7360 	bic.w	r3, r3, #896	; 0x380
 8001f84:	4303      	orrs	r3, r0
 8001f86:	62d3      	str	r3, [r2, #44]	; 0x2c
 8001f88:	6860      	ldr	r0, [r4, #4]
 8001f8a:	1c43      	adds	r3, r0, #1
 8001f8c:	d105      	bne.n	8001f9a <HAL_RTC_Init+0x66>
 8001f8e:	2001      	movs	r0, #1
 8001f90:	f7ff ff14 	bl	8001dbc <HAL_RCCEx_GetPeriphCLKFreq>
 8001f94:	2800      	cmp	r0, #0
 8001f96:	d0dd      	beq.n	8001f54 <HAL_RTC_Init+0x20>
 8001f98:	3801      	subs	r0, #1
 8001f9a:	6822      	ldr	r2, [r4, #0]
 8001f9c:	6893      	ldr	r3, [r2, #8]
 8001f9e:	f023 030f 	bic.w	r3, r3, #15
 8001fa2:	ea43 4310 	orr.w	r3, r3, r0, lsr #16
 8001fa6:	6093      	str	r3, [r2, #8]
 8001fa8:	68d3      	ldr	r3, [r2, #12]
 8001faa:	b280      	uxth	r0, r0
 8001fac:	0c1b      	lsrs	r3, r3, #16
 8001fae:	041b      	lsls	r3, r3, #16
 8001fb0:	4318      	orrs	r0, r3
 8001fb2:	60d0      	str	r0, [r2, #12]
 8001fb4:	4620      	mov	r0, r4
 8001fb6:	f7ff ff8a 	bl	8001ece <RTC_ExitInitMode>
 8001fba:	2301      	movs	r3, #1
 8001fbc:	b110      	cbz	r0, 8001fc4 <HAL_RTC_Init+0x90>
 8001fbe:	2204      	movs	r2, #4
 8001fc0:	7462      	strb	r2, [r4, #17]
 8001fc2:	e7c9      	b.n	8001f58 <HAL_RTC_Init+0x24>
 8001fc4:	7363      	strb	r3, [r4, #13]
 8001fc6:	81e3      	strh	r3, [r4, #14]
 8001fc8:	7463      	strb	r3, [r4, #17]
 8001fca:	bd10      	pop	{r4, pc}
 8001fcc:	40006c00 	.word	0x40006c00

08001fd0 <SPI_WaitFlagStateUntilTimeout.constprop.0>:
 8001fd0:	e92d 41f3 	stmdb	sp!, {r0, r1, r4, r5, r6, r7, r8, lr}
 8001fd4:	461c      	mov	r4, r3
 8001fd6:	4616      	mov	r6, r2
 8001fd8:	460f      	mov	r7, r1
 8001fda:	4605      	mov	r5, r0
 8001fdc:	f7fe fbfc 	bl	80007d8 <HAL_GetTick>
 8001fe0:	4434      	add	r4, r6
 8001fe2:	1a24      	subs	r4, r4, r0
 8001fe4:	f7fe fbf8 	bl	80007d8 <HAL_GetTick>
 8001fe8:	4680      	mov	r8, r0
 8001fea:	4b23      	ldr	r3, [pc, #140]	; (8002078 <SPI_WaitFlagStateUntilTimeout.constprop.0+0xa8>)
 8001fec:	681b      	ldr	r3, [r3, #0]
 8001fee:	f3c3 33cb 	ubfx	r3, r3, #15, #12
 8001ff2:	4363      	muls	r3, r4
 8001ff4:	682a      	ldr	r2, [r5, #0]
 8001ff6:	9301      	str	r3, [sp, #4]
 8001ff8:	6893      	ldr	r3, [r2, #8]
 8001ffa:	ea37 0303 	bics.w	r3, r7, r3
 8001ffe:	d001      	beq.n	8002004 <SPI_WaitFlagStateUntilTimeout.constprop.0+0x34>
 8002000:	2000      	movs	r0, #0
 8002002:	e02e      	b.n	8002062 <SPI_WaitFlagStateUntilTimeout.constprop.0+0x92>
 8002004:	1c73      	adds	r3, r6, #1
 8002006:	d0f7      	beq.n	8001ff8 <SPI_WaitFlagStateUntilTimeout.constprop.0+0x28>
 8002008:	f7fe fbe6 	bl	80007d8 <HAL_GetTick>
 800200c:	eba0 0008 	sub.w	r0, r0, r8
 8002010:	42a0      	cmp	r0, r4
 8002012:	d329      	bcc.n	8002068 <SPI_WaitFlagStateUntilTimeout.constprop.0+0x98>
 8002014:	682b      	ldr	r3, [r5, #0]
 8002016:	685a      	ldr	r2, [r3, #4]
 8002018:	f022 02e0 	bic.w	r2, r2, #224	; 0xe0
 800201c:	605a      	str	r2, [r3, #4]
 800201e:	686a      	ldr	r2, [r5, #4]
 8002020:	f5b2 7f82 	cmp.w	r2, #260	; 0x104
 8002024:	d10a      	bne.n	800203c <SPI_WaitFlagStateUntilTimeout.constprop.0+0x6c>
 8002026:	68aa      	ldr	r2, [r5, #8]
 8002028:	f5b2 4f00 	cmp.w	r2, #32768	; 0x8000
 800202c:	d002      	beq.n	8002034 <SPI_WaitFlagStateUntilTimeout.constprop.0+0x64>
 800202e:	f5b2 6f80 	cmp.w	r2, #1024	; 0x400
 8002032:	d103      	bne.n	800203c <SPI_WaitFlagStateUntilTimeout.constprop.0+0x6c>
 8002034:	681a      	ldr	r2, [r3, #0]
 8002036:	f022 0240 	bic.w	r2, r2, #64	; 0x40
 800203a:	601a      	str	r2, [r3, #0]
 800203c:	6aaa      	ldr	r2, [r5, #40]	; 0x28
 800203e:	f5b2 5f00 	cmp.w	r2, #8192	; 0x2000
 8002042:	d107      	bne.n	8002054 <SPI_WaitFlagStateUntilTimeout.constprop.0+0x84>
 8002044:	681a      	ldr	r2, [r3, #0]
 8002046:	f422 5200 	bic.w	r2, r2, #8192	; 0x2000
 800204a:	601a      	str	r2, [r3, #0]
 800204c:	681a      	ldr	r2, [r3, #0]
 800204e:	f442 5200 	orr.w	r2, r2, #8192	; 0x2000
 8002052:	601a      	str	r2, [r3, #0]
 8002054:	2301      	movs	r3, #1
 8002056:	f885 3051 	strb.w	r3, [r5, #81]	; 0x51
 800205a:	2300      	movs	r3, #0
 800205c:	2003      	movs	r0, #3
 800205e:	f885 3050 	strb.w	r3, [r5, #80]	; 0x50
 8002062:	b002      	add	sp, #8
 8002064:	e8bd 81f0 	ldmia.w	sp!, {r4, r5, r6, r7, r8, pc}
 8002068:	9b01      	ldr	r3, [sp, #4]
 800206a:	2b00      	cmp	r3, #0
 800206c:	9b01      	ldr	r3, [sp, #4]
 800206e:	bf08      	it	eq
 8002070:	2400      	moveq	r4, #0
 8002072:	3b01      	subs	r3, #1
 8002074:	e7be      	b.n	8001ff4 <SPI_WaitFlagStateUntilTimeout.constprop.0+0x24>
 8002076:	bf00      	nop
 8002078:	20000000 	.word	0x20000000

0800207c <SPI_EndRxTransaction>:
 800207c:	b538      	push	{r3, r4, r5, lr}
 800207e:	4613      	mov	r3, r2
 8002080:	6842      	ldr	r2, [r0, #4]
 8002082:	4604      	mov	r4, r0
 8002084:	f5b2 7f82 	cmp.w	r2, #260	; 0x104
 8002088:	d116      	bne.n	80020b8 <SPI_EndRxTransaction+0x3c>
 800208a:	6882      	ldr	r2, [r0, #8]
 800208c:	f5b2 4f00 	cmp.w	r2, #32768	; 0x8000
 8002090:	d002      	beq.n	8002098 <SPI_EndRxTransaction+0x1c>
 8002092:	f5b2 6f80 	cmp.w	r2, #1024	; 0x400
 8002096:	d10f      	bne.n	80020b8 <SPI_EndRxTransaction+0x3c>
 8002098:	6825      	ldr	r5, [r4, #0]
 800209a:	f5b2 6f80 	cmp.w	r2, #1024	; 0x400
 800209e:	6828      	ldr	r0, [r5, #0]
 80020a0:	f020 0040 	bic.w	r0, r0, #64	; 0x40
 80020a4:	6028      	str	r0, [r5, #0]
 80020a6:	d107      	bne.n	80020b8 <SPI_EndRxTransaction+0x3c>
 80020a8:	460a      	mov	r2, r1
 80020aa:	2101      	movs	r1, #1
 80020ac:	4620      	mov	r0, r4
 80020ae:	f7ff ff8f 	bl	8001fd0 <SPI_WaitFlagStateUntilTimeout.constprop.0>
 80020b2:	b920      	cbnz	r0, 80020be <SPI_EndRxTransaction+0x42>
 80020b4:	2000      	movs	r0, #0
 80020b6:	bd38      	pop	{r3, r4, r5, pc}
 80020b8:	460a      	mov	r2, r1
 80020ba:	2180      	movs	r1, #128	; 0x80
 80020bc:	e7f6      	b.n	80020ac <SPI_EndRxTransaction+0x30>
 80020be:	6d63      	ldr	r3, [r4, #84]	; 0x54
 80020c0:	2003      	movs	r0, #3
 80020c2:	f043 0320 	orr.w	r3, r3, #32
 80020c6:	6563      	str	r3, [r4, #84]	; 0x54
 80020c8:	e7f5      	b.n	80020b6 <SPI_EndRxTransaction+0x3a>

080020ca <SPI_EndRxTxTransaction>:
 80020ca:	b510      	push	{r4, lr}
 80020cc:	4613      	mov	r3, r2
 80020ce:	460a      	mov	r2, r1
 80020d0:	2180      	movs	r1, #128	; 0x80
 80020d2:	4604      	mov	r4, r0
 80020d4:	f7ff ff7c 	bl	8001fd0 <SPI_WaitFlagStateUntilTimeout.constprop.0>
 80020d8:	b120      	cbz	r0, 80020e4 <SPI_EndRxTxTransaction+0x1a>
 80020da:	2003      	movs	r0, #3
 80020dc:	6d63      	ldr	r3, [r4, #84]	; 0x54
 80020de:	f043 0320 	orr.w	r3, r3, #32
 80020e2:	6563      	str	r3, [r4, #84]	; 0x54
 80020e4:	bd10      	pop	{r4, pc}

080020e6 <HAL_SPI_Init>:
 80020e6:	b510      	push	{r4, lr}
 80020e8:	4604      	mov	r4, r0
 80020ea:	2800      	cmp	r0, #0
 80020ec:	d051      	beq.n	8002192 <HAL_SPI_Init+0xac>
 80020ee:	6a43      	ldr	r3, [r0, #36]	; 0x24
 80020f0:	2b00      	cmp	r3, #0
 80020f2:	d14a      	bne.n	800218a <HAL_SPI_Init+0xa4>
 80020f4:	6842      	ldr	r2, [r0, #4]
 80020f6:	f5b2 7f82 	cmp.w	r2, #260	; 0x104
 80020fa:	d000      	beq.n	80020fe <HAL_SPI_Init+0x18>
 80020fc:	61c3      	str	r3, [r0, #28]
 80020fe:	2300      	movs	r3, #0
 8002100:	62a3      	str	r3, [r4, #40]	; 0x28
 8002102:	f894 3051 	ldrb.w	r3, [r4, #81]	; 0x51
 8002106:	f003 02ff 	and.w	r2, r3, #255	; 0xff
 800210a:	b923      	cbnz	r3, 8002116 <HAL_SPI_Init+0x30>
 800210c:	4620      	mov	r0, r4
 800210e:	f884 2050 	strb.w	r2, [r4, #80]	; 0x50
 8002112:	f7fe f9e3 	bl	80004dc <HAL_SPI_MspInit>
 8002116:	2302      	movs	r3, #2
 8002118:	6822      	ldr	r2, [r4, #0]
 800211a:	f884 3051 	strb.w	r3, [r4, #81]	; 0x51
 800211e:	6813      	ldr	r3, [r2, #0]
 8002120:	68a0      	ldr	r0, [r4, #8]
 8002122:	f023 0340 	bic.w	r3, r3, #64	; 0x40
 8002126:	6013      	str	r3, [r2, #0]
 8002128:	6863      	ldr	r3, [r4, #4]
 800212a:	f400 4004 	and.w	r0, r0, #33792	; 0x8400
 800212e:	f403 7382 	and.w	r3, r3, #260	; 0x104
 8002132:	4303      	orrs	r3, r0
 8002134:	68e0      	ldr	r0, [r4, #12]
 8002136:	69a1      	ldr	r1, [r4, #24]
 8002138:	f400 6000 	and.w	r0, r0, #2048	; 0x800
 800213c:	4303      	orrs	r3, r0
 800213e:	6920      	ldr	r0, [r4, #16]
 8002140:	f000 0002 	and.w	r0, r0, #2
 8002144:	4303      	orrs	r3, r0
 8002146:	6960      	ldr	r0, [r4, #20]
 8002148:	f000 0001 	and.w	r0, r0, #1
 800214c:	4303      	orrs	r3, r0
 800214e:	f401 7000 	and.w	r0, r1, #512	; 0x200
 8002152:	4303      	orrs	r3, r0
 8002154:	69e0      	ldr	r0, [r4, #28]
 8002156:	0c09      	lsrs	r1, r1, #16
 8002158:	f000 0038 	and.w	r0, r0, #56	; 0x38
 800215c:	4303      	orrs	r3, r0
 800215e:	6a20      	ldr	r0, [r4, #32]
 8002160:	f001 0104 	and.w	r1, r1, #4
 8002164:	f000 0080 	and.w	r0, r0, #128	; 0x80
 8002168:	4303      	orrs	r3, r0
 800216a:	6aa0      	ldr	r0, [r4, #40]	; 0x28
 800216c:	f400 5000 	and.w	r0, r0, #8192	; 0x2000
 8002170:	4303      	orrs	r3, r0
 8002172:	6013      	str	r3, [r2, #0]
 8002174:	6051      	str	r1, [r2, #4]
 8002176:	69d3      	ldr	r3, [r2, #28]
 8002178:	2000      	movs	r0, #0
 800217a:	f423 6300 	bic.w	r3, r3, #2048	; 0x800
 800217e:	61d3      	str	r3, [r2, #28]
 8002180:	2301      	movs	r3, #1
 8002182:	6560      	str	r0, [r4, #84]	; 0x54
 8002184:	f884 3051 	strb.w	r3, [r4, #81]	; 0x51
 8002188:	bd10      	pop	{r4, pc}
 800218a:	2300      	movs	r3, #0
 800218c:	e9c0 3304 	strd	r3, r3, [r0, #16]
 8002190:	e7b5      	b.n	80020fe <HAL_SPI_Init+0x18>
 8002192:	2001      	movs	r0, #1
 8002194:	e7f8      	b.n	8002188 <HAL_SPI_Init+0xa2>

08002196 <HAL_SPI_Transmit>:
 8002196:	e92d 41f3 	stmdb	sp!, {r0, r1, r4, r5, r6, r7, r8, lr}
 800219a:	461e      	mov	r6, r3
 800219c:	f890 3050 	ldrb.w	r3, [r0, #80]	; 0x50
 80021a0:	4604      	mov	r4, r0
 80021a2:	2b01      	cmp	r3, #1
 80021a4:	460d      	mov	r5, r1
 80021a6:	4617      	mov	r7, r2
 80021a8:	f000 80a0 	beq.w	80022ec <HAL_SPI_Transmit+0x156>
 80021ac:	2301      	movs	r3, #1
 80021ae:	f880 3050 	strb.w	r3, [r0, #80]	; 0x50
 80021b2:	f7fe fb11 	bl	80007d8 <HAL_GetTick>
 80021b6:	f894 3051 	ldrb.w	r3, [r4, #81]	; 0x51
 80021ba:	4680      	mov	r8, r0
 80021bc:	2b01      	cmp	r3, #1
 80021be:	b2d8      	uxtb	r0, r3
 80021c0:	f040 8092 	bne.w	80022e8 <HAL_SPI_Transmit+0x152>
 80021c4:	2d00      	cmp	r5, #0
 80021c6:	d05d      	beq.n	8002284 <HAL_SPI_Transmit+0xee>
 80021c8:	2f00      	cmp	r7, #0
 80021ca:	d05b      	beq.n	8002284 <HAL_SPI_Transmit+0xee>
 80021cc:	2303      	movs	r3, #3
 80021ce:	f884 3051 	strb.w	r3, [r4, #81]	; 0x51
 80021d2:	2300      	movs	r3, #0
 80021d4:	68a2      	ldr	r2, [r4, #8]
 80021d6:	6563      	str	r3, [r4, #84]	; 0x54
 80021d8:	f5b2 4f00 	cmp.w	r2, #32768	; 0x8000
 80021dc:	e9c4 3310 	strd	r3, r3, [r4, #64]	; 0x40
 80021e0:	86e7      	strh	r7, [r4, #54]	; 0x36
 80021e2:	63a3      	str	r3, [r4, #56]	; 0x38
 80021e4:	87a3      	strh	r3, [r4, #60]	; 0x3c
 80021e6:	87e3      	strh	r3, [r4, #62]	; 0x3e
 80021e8:	6325      	str	r5, [r4, #48]	; 0x30
 80021ea:	6823      	ldr	r3, [r4, #0]
 80021ec:	86a7      	strh	r7, [r4, #52]	; 0x34
 80021ee:	d107      	bne.n	8002200 <HAL_SPI_Transmit+0x6a>
 80021f0:	681a      	ldr	r2, [r3, #0]
 80021f2:	f022 0240 	bic.w	r2, r2, #64	; 0x40
 80021f6:	601a      	str	r2, [r3, #0]
 80021f8:	681a      	ldr	r2, [r3, #0]
 80021fa:	f442 4280 	orr.w	r2, r2, #16384	; 0x4000
 80021fe:	601a      	str	r2, [r3, #0]
 8002200:	681a      	ldr	r2, [r3, #0]
 8002202:	68e1      	ldr	r1, [r4, #12]
 8002204:	0652      	lsls	r2, r2, #25
 8002206:	bf5e      	ittt	pl
 8002208:	681a      	ldrpl	r2, [r3, #0]
 800220a:	f042 0240 	orrpl.w	r2, r2, #64	; 0x40
 800220e:	601a      	strpl	r2, [r3, #0]
 8002210:	f5b1 6f00 	cmp.w	r1, #2048	; 0x800
 8002214:	6862      	ldr	r2, [r4, #4]
 8002216:	d141      	bne.n	800229c <HAL_SPI_Transmit+0x106>
 8002218:	b10a      	cbz	r2, 800221e <HAL_SPI_Transmit+0x88>
 800221a:	2f01      	cmp	r7, #1
 800221c:	d107      	bne.n	800222e <HAL_SPI_Transmit+0x98>
 800221e:	f835 2b02 	ldrh.w	r2, [r5], #2
 8002222:	60da      	str	r2, [r3, #12]
 8002224:	6325      	str	r5, [r4, #48]	; 0x30
 8002226:	8ee3      	ldrh	r3, [r4, #54]	; 0x36
 8002228:	3b01      	subs	r3, #1
 800222a:	b29b      	uxth	r3, r3
 800222c:	86e3      	strh	r3, [r4, #54]	; 0x36
 800222e:	8ee3      	ldrh	r3, [r4, #54]	; 0x36
 8002230:	b29b      	uxth	r3, r3
 8002232:	b9a3      	cbnz	r3, 800225e <HAL_SPI_Transmit+0xc8>
 8002234:	4642      	mov	r2, r8
 8002236:	4631      	mov	r1, r6
 8002238:	4620      	mov	r0, r4
 800223a:	f7ff ff46 	bl	80020ca <SPI_EndRxTxTransaction>
 800223e:	2800      	cmp	r0, #0
 8002240:	d14f      	bne.n	80022e2 <HAL_SPI_Transmit+0x14c>
 8002242:	68a3      	ldr	r3, [r4, #8]
 8002244:	b933      	cbnz	r3, 8002254 <HAL_SPI_Transmit+0xbe>
 8002246:	9301      	str	r3, [sp, #4]
 8002248:	6823      	ldr	r3, [r4, #0]
 800224a:	68da      	ldr	r2, [r3, #12]
 800224c:	9201      	str	r2, [sp, #4]
 800224e:	689b      	ldr	r3, [r3, #8]
 8002250:	9301      	str	r3, [sp, #4]
 8002252:	9b01      	ldr	r3, [sp, #4]
 8002254:	6d60      	ldr	r0, [r4, #84]	; 0x54
 8002256:	3800      	subs	r0, #0
 8002258:	bf18      	it	ne
 800225a:	2001      	movne	r0, #1
 800225c:	e012      	b.n	8002284 <HAL_SPI_Transmit+0xee>
 800225e:	6822      	ldr	r2, [r4, #0]
 8002260:	6893      	ldr	r3, [r2, #8]
 8002262:	0798      	lsls	r0, r3, #30
 8002264:	d505      	bpl.n	8002272 <HAL_SPI_Transmit+0xdc>
 8002266:	6b23      	ldr	r3, [r4, #48]	; 0x30
 8002268:	f833 1b02 	ldrh.w	r1, [r3], #2
 800226c:	60d1      	str	r1, [r2, #12]
 800226e:	6323      	str	r3, [r4, #48]	; 0x30
 8002270:	e7d9      	b.n	8002226 <HAL_SPI_Transmit+0x90>
 8002272:	f7fe fab1 	bl	80007d8 <HAL_GetTick>
 8002276:	eba0 0008 	sub.w	r0, r0, r8
 800227a:	42b0      	cmp	r0, r6
 800227c:	d30b      	bcc.n	8002296 <HAL_SPI_Transmit+0x100>
 800227e:	1c71      	adds	r1, r6, #1
 8002280:	d0d5      	beq.n	800222e <HAL_SPI_Transmit+0x98>
 8002282:	2003      	movs	r0, #3
 8002284:	2301      	movs	r3, #1
 8002286:	f884 3051 	strb.w	r3, [r4, #81]	; 0x51
 800228a:	2300      	movs	r3, #0
 800228c:	f884 3050 	strb.w	r3, [r4, #80]	; 0x50
 8002290:	b002      	add	sp, #8
 8002292:	e8bd 81f0 	ldmia.w	sp!, {r4, r5, r6, r7, r8, pc}
 8002296:	2e00      	cmp	r6, #0
 8002298:	d1c9      	bne.n	800222e <HAL_SPI_Transmit+0x98>
 800229a:	e7f2      	b.n	8002282 <HAL_SPI_Transmit+0xec>
 800229c:	b10a      	cbz	r2, 80022a2 <HAL_SPI_Transmit+0x10c>
 800229e:	2f01      	cmp	r7, #1
 80022a0:	d108      	bne.n	80022b4 <HAL_SPI_Transmit+0x11e>
 80022a2:	782a      	ldrb	r2, [r5, #0]
 80022a4:	731a      	strb	r2, [r3, #12]
 80022a6:	6b23      	ldr	r3, [r4, #48]	; 0x30
 80022a8:	3301      	adds	r3, #1
 80022aa:	6323      	str	r3, [r4, #48]	; 0x30
 80022ac:	8ee3      	ldrh	r3, [r4, #54]	; 0x36
 80022ae:	3b01      	subs	r3, #1
 80022b0:	b29b      	uxth	r3, r3
 80022b2:	86e3      	strh	r3, [r4, #54]	; 0x36
 80022b4:	8ee3      	ldrh	r3, [r4, #54]	; 0x36
 80022b6:	b29b      	uxth	r3, r3
 80022b8:	2b00      	cmp	r3, #0
 80022ba:	d0bb      	beq.n	8002234 <HAL_SPI_Transmit+0x9e>
 80022bc:	6823      	ldr	r3, [r4, #0]
 80022be:	689a      	ldr	r2, [r3, #8]
 80022c0:	0792      	lsls	r2, r2, #30
 80022c2:	d502      	bpl.n	80022ca <HAL_SPI_Transmit+0x134>
 80022c4:	6b22      	ldr	r2, [r4, #48]	; 0x30
 80022c6:	7812      	ldrb	r2, [r2, #0]
 80022c8:	e7ec      	b.n	80022a4 <HAL_SPI_Transmit+0x10e>
 80022ca:	f7fe fa85 	bl	80007d8 <HAL_GetTick>
 80022ce:	eba0 0008 	sub.w	r0, r0, r8
 80022d2:	42b0      	cmp	r0, r6
 80022d4:	d302      	bcc.n	80022dc <HAL_SPI_Transmit+0x146>
 80022d6:	1c73      	adds	r3, r6, #1
 80022d8:	d0ec      	beq.n	80022b4 <HAL_SPI_Transmit+0x11e>
 80022da:	e7d2      	b.n	8002282 <HAL_SPI_Transmit+0xec>
 80022dc:	2e00      	cmp	r6, #0
 80022de:	d1e9      	bne.n	80022b4 <HAL_SPI_Transmit+0x11e>
 80022e0:	e7cf      	b.n	8002282 <HAL_SPI_Transmit+0xec>
 80022e2:	2320      	movs	r3, #32
 80022e4:	6563      	str	r3, [r4, #84]	; 0x54
 80022e6:	e7ac      	b.n	8002242 <HAL_SPI_Transmit+0xac>
 80022e8:	2002      	movs	r0, #2
 80022ea:	e7cb      	b.n	8002284 <HAL_SPI_Transmit+0xee>
 80022ec:	2002      	movs	r0, #2
 80022ee:	e7cf      	b.n	8002290 <HAL_SPI_Transmit+0xfa>

080022f0 <HAL_SPI_TransmitReceive>:
 80022f0:	e92d 43f7 	stmdb	sp!, {r0, r1, r2, r4, r5, r6, r7, r8, r9, lr}
 80022f4:	461e      	mov	r6, r3
 80022f6:	f890 3050 	ldrb.w	r3, [r0, #80]	; 0x50
 80022fa:	4604      	mov	r4, r0
 80022fc:	2b01      	cmp	r3, #1
 80022fe:	460d      	mov	r5, r1
 8002300:	4691      	mov	r9, r2
 8002302:	9f0a      	ldr	r7, [sp, #40]	; 0x28
 8002304:	f000 80e6 	beq.w	80024d4 <HAL_SPI_TransmitReceive+0x1e4>
 8002308:	2301      	movs	r3, #1
 800230a:	f880 3050 	strb.w	r3, [r0, #80]	; 0x50
 800230e:	f7fe fa63 	bl	80007d8 <HAL_GetTick>
 8002312:	f894 3051 	ldrb.w	r3, [r4, #81]	; 0x51
 8002316:	4680      	mov	r8, r0
 8002318:	2b01      	cmp	r3, #1
 800231a:	6862      	ldr	r2, [r4, #4]
 800231c:	b2d9      	uxtb	r1, r3
 800231e:	d00a      	beq.n	8002336 <HAL_SPI_TransmitReceive+0x46>
 8002320:	f5b2 7f82 	cmp.w	r2, #260	; 0x104
 8002324:	f040 80d4 	bne.w	80024d0 <HAL_SPI_TransmitReceive+0x1e0>
 8002328:	68a3      	ldr	r3, [r4, #8]
 800232a:	2b00      	cmp	r3, #0
 800232c:	f040 80d0 	bne.w	80024d0 <HAL_SPI_TransmitReceive+0x1e0>
 8002330:	2904      	cmp	r1, #4
 8002332:	f040 80cd 	bne.w	80024d0 <HAL_SPI_TransmitReceive+0x1e0>
 8002336:	2d00      	cmp	r5, #0
 8002338:	d040      	beq.n	80023bc <HAL_SPI_TransmitReceive+0xcc>
 800233a:	f1b9 0f00 	cmp.w	r9, #0
 800233e:	d03d      	beq.n	80023bc <HAL_SPI_TransmitReceive+0xcc>
 8002340:	2e00      	cmp	r6, #0
 8002342:	d03b      	beq.n	80023bc <HAL_SPI_TransmitReceive+0xcc>
 8002344:	f894 3051 	ldrb.w	r3, [r4, #81]	; 0x51
 8002348:	f8c4 9038 	str.w	r9, [r4, #56]	; 0x38
 800234c:	2b04      	cmp	r3, #4
 800234e:	bf1c      	itt	ne
 8002350:	2305      	movne	r3, #5
 8002352:	f884 3051 	strbne.w	r3, [r4, #81]	; 0x51
 8002356:	2300      	movs	r3, #0
 8002358:	6563      	str	r3, [r4, #84]	; 0x54
 800235a:	e9c4 3310 	strd	r3, r3, [r4, #64]	; 0x40
 800235e:	6823      	ldr	r3, [r4, #0]
 8002360:	87e6      	strh	r6, [r4, #62]	; 0x3e
 8002362:	86e6      	strh	r6, [r4, #54]	; 0x36
 8002364:	6819      	ldr	r1, [r3, #0]
 8002366:	87a6      	strh	r6, [r4, #60]	; 0x3c
 8002368:	0649      	lsls	r1, r1, #25
 800236a:	bf58      	it	pl
 800236c:	6819      	ldrpl	r1, [r3, #0]
 800236e:	6325      	str	r5, [r4, #48]	; 0x30
 8002370:	bf58      	it	pl
 8002372:	f041 0140 	orrpl.w	r1, r1, #64	; 0x40
 8002376:	86a6      	strh	r6, [r4, #52]	; 0x34
 8002378:	bf58      	it	pl
 800237a:	6019      	strpl	r1, [r3, #0]
 800237c:	68e1      	ldr	r1, [r4, #12]
 800237e:	f5b1 6f00 	cmp.w	r1, #2048	; 0x800
 8002382:	d152      	bne.n	800242a <HAL_SPI_TransmitReceive+0x13a>
 8002384:	b10a      	cbz	r2, 800238a <HAL_SPI_TransmitReceive+0x9a>
 8002386:	2e01      	cmp	r6, #1
 8002388:	d107      	bne.n	800239a <HAL_SPI_TransmitReceive+0xaa>
 800238a:	f835 2b02 	ldrh.w	r2, [r5], #2
 800238e:	60da      	str	r2, [r3, #12]
 8002390:	8ee3      	ldrh	r3, [r4, #54]	; 0x36
 8002392:	6325      	str	r5, [r4, #48]	; 0x30
 8002394:	3b01      	subs	r3, #1
 8002396:	b29b      	uxth	r3, r3
 8002398:	86e3      	strh	r3, [r4, #54]	; 0x36
 800239a:	2501      	movs	r5, #1
 800239c:	8ee3      	ldrh	r3, [r4, #54]	; 0x36
 800239e:	b29b      	uxth	r3, r3
 80023a0:	b973      	cbnz	r3, 80023c0 <HAL_SPI_TransmitReceive+0xd0>
 80023a2:	8fe3      	ldrh	r3, [r4, #62]	; 0x3e
 80023a4:	b29b      	uxth	r3, r3
 80023a6:	b95b      	cbnz	r3, 80023c0 <HAL_SPI_TransmitReceive+0xd0>
 80023a8:	4642      	mov	r2, r8
 80023aa:	4639      	mov	r1, r7
 80023ac:	4620      	mov	r0, r4
 80023ae:	f7ff fe8c 	bl	80020ca <SPI_EndRxTxTransaction>
 80023b2:	2800      	cmp	r0, #0
 80023b4:	f000 8081 	beq.w	80024ba <HAL_SPI_TransmitReceive+0x1ca>
 80023b8:	2320      	movs	r3, #32
 80023ba:	6563      	str	r3, [r4, #84]	; 0x54
 80023bc:	2001      	movs	r0, #1
 80023be:	e02b      	b.n	8002418 <HAL_SPI_TransmitReceive+0x128>
 80023c0:	6821      	ldr	r1, [r4, #0]
 80023c2:	688b      	ldr	r3, [r1, #8]
 80023c4:	079e      	lsls	r6, r3, #30
 80023c6:	d50d      	bpl.n	80023e4 <HAL_SPI_TransmitReceive+0xf4>
 80023c8:	8ee3      	ldrh	r3, [r4, #54]	; 0x36
 80023ca:	b29b      	uxth	r3, r3
 80023cc:	b153      	cbz	r3, 80023e4 <HAL_SPI_TransmitReceive+0xf4>
 80023ce:	b14d      	cbz	r5, 80023e4 <HAL_SPI_TransmitReceive+0xf4>
 80023d0:	2500      	movs	r5, #0
 80023d2:	6b23      	ldr	r3, [r4, #48]	; 0x30
 80023d4:	f833 2b02 	ldrh.w	r2, [r3], #2
 80023d8:	60ca      	str	r2, [r1, #12]
 80023da:	6323      	str	r3, [r4, #48]	; 0x30
 80023dc:	8ee3      	ldrh	r3, [r4, #54]	; 0x36
 80023de:	3b01      	subs	r3, #1
 80023e0:	b29b      	uxth	r3, r3
 80023e2:	86e3      	strh	r3, [r4, #54]	; 0x36
 80023e4:	688a      	ldr	r2, [r1, #8]
 80023e6:	f012 0201 	ands.w	r2, r2, #1
 80023ea:	d00c      	beq.n	8002406 <HAL_SPI_TransmitReceive+0x116>
 80023ec:	8fe3      	ldrh	r3, [r4, #62]	; 0x3e
 80023ee:	b29b      	uxth	r3, r3
 80023f0:	b14b      	cbz	r3, 8002406 <HAL_SPI_TransmitReceive+0x116>
 80023f2:	4615      	mov	r5, r2
 80023f4:	68c9      	ldr	r1, [r1, #12]
 80023f6:	6ba3      	ldr	r3, [r4, #56]	; 0x38
 80023f8:	f823 1b02 	strh.w	r1, [r3], #2
 80023fc:	63a3      	str	r3, [r4, #56]	; 0x38
 80023fe:	8fe3      	ldrh	r3, [r4, #62]	; 0x3e
 8002400:	3b01      	subs	r3, #1
 8002402:	b29b      	uxth	r3, r3
 8002404:	87e3      	strh	r3, [r4, #62]	; 0x3e
 8002406:	f7fe f9e7 	bl	80007d8 <HAL_GetTick>
 800240a:	eba0 0008 	sub.w	r0, r0, r8
 800240e:	42b8      	cmp	r0, r7
 8002410:	d3c4      	bcc.n	800239c <HAL_SPI_TransmitReceive+0xac>
 8002412:	1c78      	adds	r0, r7, #1
 8002414:	d0c2      	beq.n	800239c <HAL_SPI_TransmitReceive+0xac>
 8002416:	2003      	movs	r0, #3
 8002418:	2301      	movs	r3, #1
 800241a:	f884 3051 	strb.w	r3, [r4, #81]	; 0x51
 800241e:	2300      	movs	r3, #0
 8002420:	f884 3050 	strb.w	r3, [r4, #80]	; 0x50
 8002424:	b003      	add	sp, #12
 8002426:	e8bd 83f0 	ldmia.w	sp!, {r4, r5, r6, r7, r8, r9, pc}
 800242a:	b10a      	cbz	r2, 8002430 <HAL_SPI_TransmitReceive+0x140>
 800242c:	2e01      	cmp	r6, #1
 800242e:	d108      	bne.n	8002442 <HAL_SPI_TransmitReceive+0x152>
 8002430:	782a      	ldrb	r2, [r5, #0]
 8002432:	731a      	strb	r2, [r3, #12]
 8002434:	6b23      	ldr	r3, [r4, #48]	; 0x30
 8002436:	3301      	adds	r3, #1
 8002438:	6323      	str	r3, [r4, #48]	; 0x30
 800243a:	8ee3      	ldrh	r3, [r4, #54]	; 0x36
 800243c:	3b01      	subs	r3, #1
 800243e:	b29b      	uxth	r3, r3
 8002440:	86e3      	strh	r3, [r4, #54]	; 0x36
 8002442:	2501      	movs	r5, #1
 8002444:	e02d      	b.n	80024a2 <HAL_SPI_TransmitReceive+0x1b2>
 8002446:	6822      	ldr	r2, [r4, #0]
 8002448:	6893      	ldr	r3, [r2, #8]
 800244a:	0799      	lsls	r1, r3, #30
 800244c:	d50e      	bpl.n	800246c <HAL_SPI_TransmitReceive+0x17c>
 800244e:	8ee3      	ldrh	r3, [r4, #54]	; 0x36
 8002450:	b29b      	uxth	r3, r3
 8002452:	b15b      	cbz	r3, 800246c <HAL_SPI_TransmitReceive+0x17c>
 8002454:	b155      	cbz	r5, 800246c <HAL_SPI_TransmitReceive+0x17c>
 8002456:	2500      	movs	r5, #0
 8002458:	6b23      	ldr	r3, [r4, #48]	; 0x30
 800245a:	781b      	ldrb	r3, [r3, #0]
 800245c:	7313      	strb	r3, [r2, #12]
 800245e:	6b23      	ldr	r3, [r4, #48]	; 0x30
 8002460:	3301      	adds	r3, #1
 8002462:	6323      	str	r3, [r4, #48]	; 0x30
 8002464:	8ee3      	ldrh	r3, [r4, #54]	; 0x36
 8002466:	3b01      	subs	r3, #1
 8002468:	b29b      	uxth	r3, r3
 800246a:	86e3      	strh	r3, [r4, #54]	; 0x36
 800246c:	6822      	ldr	r2, [r4, #0]
 800246e:	6891      	ldr	r1, [r2, #8]
 8002470:	f011 0101 	ands.w	r1, r1, #1
 8002474:	d00d      	beq.n	8002492 <HAL_SPI_TransmitReceive+0x1a2>
 8002476:	8fe3      	ldrh	r3, [r4, #62]	; 0x3e
 8002478:	b29b      	uxth	r3, r3
 800247a:	b153      	cbz	r3, 8002492 <HAL_SPI_TransmitReceive+0x1a2>
 800247c:	460d      	mov	r5, r1
 800247e:	68d2      	ldr	r2, [r2, #12]
 8002480:	6ba3      	ldr	r3, [r4, #56]	; 0x38
 8002482:	701a      	strb	r2, [r3, #0]
 8002484:	6ba3      	ldr	r3, [r4, #56]	; 0x38
 8002486:	3301      	adds	r3, #1
 8002488:	63a3      	str	r3, [r4, #56]	; 0x38
 800248a:	8fe3      	ldrh	r3, [r4, #62]	; 0x3e
 800248c:	3b01      	subs	r3, #1
 800248e:	b29b      	uxth	r3, r3
 8002490:	87e3      	strh	r3, [r4, #62]	; 0x3e
 8002492:	f7fe f9a1 	bl	80007d8 <HAL_GetTick>
 8002496:	eba0 0008 	sub.w	r0, r0, r8
 800249a:	42b8      	cmp	r0, r7
 800249c:	d30a      	bcc.n	80024b4 <HAL_SPI_TransmitReceive+0x1c4>
 800249e:	1c7b      	adds	r3, r7, #1
 80024a0:	d1b9      	bne.n	8002416 <HAL_SPI_TransmitReceive+0x126>
 80024a2:	8ee3      	ldrh	r3, [r4, #54]	; 0x36
 80024a4:	b29b      	uxth	r3, r3
 80024a6:	2b00      	cmp	r3, #0
 80024a8:	d1cd      	bne.n	8002446 <HAL_SPI_TransmitReceive+0x156>
 80024aa:	8fe3      	ldrh	r3, [r4, #62]	; 0x3e
 80024ac:	b29b      	uxth	r3, r3
 80024ae:	2b00      	cmp	r3, #0
 80024b0:	d1c9      	bne.n	8002446 <HAL_SPI_TransmitReceive+0x156>
 80024b2:	e779      	b.n	80023a8 <HAL_SPI_TransmitReceive+0xb8>
 80024b4:	2f00      	cmp	r7, #0
 80024b6:	d1f4      	bne.n	80024a2 <HAL_SPI_TransmitReceive+0x1b2>
 80024b8:	e7ad      	b.n	8002416 <HAL_SPI_TransmitReceive+0x126>
 80024ba:	68a3      	ldr	r3, [r4, #8]
 80024bc:	2b00      	cmp	r3, #0
 80024be:	d1ab      	bne.n	8002418 <HAL_SPI_TransmitReceive+0x128>
 80024c0:	6823      	ldr	r3, [r4, #0]
 80024c2:	9001      	str	r0, [sp, #4]
 80024c4:	68da      	ldr	r2, [r3, #12]
 80024c6:	9201      	str	r2, [sp, #4]
 80024c8:	689b      	ldr	r3, [r3, #8]
 80024ca:	9301      	str	r3, [sp, #4]
 80024cc:	9b01      	ldr	r3, [sp, #4]
 80024ce:	e7a3      	b.n	8002418 <HAL_SPI_TransmitReceive+0x128>
 80024d0:	2002      	movs	r0, #2
 80024d2:	e7a1      	b.n	8002418 <HAL_SPI_TransmitReceive+0x128>
 80024d4:	2002      	movs	r0, #2
 80024d6:	e7a5      	b.n	8002424 <HAL_SPI_TransmitReceive+0x134>

080024d8 <HAL_SPI_Receive>:
 80024d8:	e92d 43f7 	stmdb	sp!, {r0, r1, r2, r4, r5, r6, r7, r8, r9, lr}
 80024dc:	461d      	mov	r5, r3
 80024de:	6843      	ldr	r3, [r0, #4]
 80024e0:	4604      	mov	r4, r0
 80024e2:	f5b3 7f82 	cmp.w	r3, #260	; 0x104
 80024e6:	4689      	mov	r9, r1
 80024e8:	4617      	mov	r7, r2
 80024ea:	d10c      	bne.n	8002506 <HAL_SPI_Receive+0x2e>
 80024ec:	6883      	ldr	r3, [r0, #8]
 80024ee:	b953      	cbnz	r3, 8002506 <HAL_SPI_Receive+0x2e>
 80024f0:	2304      	movs	r3, #4
 80024f2:	f880 3051 	strb.w	r3, [r0, #81]	; 0x51
 80024f6:	4613      	mov	r3, r2
 80024f8:	9500      	str	r5, [sp, #0]
 80024fa:	460a      	mov	r2, r1
 80024fc:	f7ff fef8 	bl	80022f0 <HAL_SPI_TransmitReceive>
 8002500:	b003      	add	sp, #12
 8002502:	e8bd 83f0 	ldmia.w	sp!, {r4, r5, r6, r7, r8, r9, pc}
 8002506:	f894 3050 	ldrb.w	r3, [r4, #80]	; 0x50
 800250a:	2b01      	cmp	r3, #1
 800250c:	f000 8086 	beq.w	800261c <HAL_SPI_Receive+0x144>
 8002510:	2301      	movs	r3, #1
 8002512:	f884 3050 	strb.w	r3, [r4, #80]	; 0x50
 8002516:	f7fe f95f 	bl	80007d8 <HAL_GetTick>
 800251a:	f894 3051 	ldrb.w	r3, [r4, #81]	; 0x51
 800251e:	4680      	mov	r8, r0
 8002520:	2b01      	cmp	r3, #1
 8002522:	b2d8      	uxtb	r0, r3
 8002524:	d178      	bne.n	8002618 <HAL_SPI_Receive+0x140>
 8002526:	f1b9 0f00 	cmp.w	r9, #0
 800252a:	d05c      	beq.n	80025e6 <HAL_SPI_Receive+0x10e>
 800252c:	2f00      	cmp	r7, #0
 800252e:	d05a      	beq.n	80025e6 <HAL_SPI_Receive+0x10e>
 8002530:	2600      	movs	r6, #0
 8002532:	2304      	movs	r3, #4
 8002534:	68a2      	ldr	r2, [r4, #8]
 8002536:	f884 3051 	strb.w	r3, [r4, #81]	; 0x51
 800253a:	f5b2 4f00 	cmp.w	r2, #32768	; 0x8000
 800253e:	6566      	str	r6, [r4, #84]	; 0x54
 8002540:	e9c4 6610 	strd	r6, r6, [r4, #64]	; 0x40
 8002544:	87e7      	strh	r7, [r4, #62]	; 0x3e
 8002546:	6823      	ldr	r3, [r4, #0]
 8002548:	f8c4 9038 	str.w	r9, [r4, #56]	; 0x38
 800254c:	87a7      	strh	r7, [r4, #60]	; 0x3c
 800254e:	6326      	str	r6, [r4, #48]	; 0x30
 8002550:	86a6      	strh	r6, [r4, #52]	; 0x34
 8002552:	86e6      	strh	r6, [r4, #54]	; 0x36
 8002554:	d107      	bne.n	8002566 <HAL_SPI_Receive+0x8e>
 8002556:	681a      	ldr	r2, [r3, #0]
 8002558:	f022 0240 	bic.w	r2, r2, #64	; 0x40
 800255c:	601a      	str	r2, [r3, #0]
 800255e:	681a      	ldr	r2, [r3, #0]
 8002560:	f422 4280 	bic.w	r2, r2, #16384	; 0x4000
 8002564:	601a      	str	r2, [r3, #0]
 8002566:	681a      	ldr	r2, [r3, #0]
 8002568:	0656      	lsls	r6, r2, #25
 800256a:	bf5e      	ittt	pl
 800256c:	681a      	ldrpl	r2, [r3, #0]
 800256e:	f042 0240 	orrpl.w	r2, r2, #64	; 0x40
 8002572:	601a      	strpl	r2, [r3, #0]
 8002574:	68e3      	ldr	r3, [r4, #12]
 8002576:	b1f3      	cbz	r3, 80025b6 <HAL_SPI_Receive+0xde>
 8002578:	8fe3      	ldrh	r3, [r4, #62]	; 0x3e
 800257a:	b29b      	uxth	r3, r3
 800257c:	b1fb      	cbz	r3, 80025be <HAL_SPI_Receive+0xe6>
 800257e:	6823      	ldr	r3, [r4, #0]
 8002580:	689a      	ldr	r2, [r3, #8]
 8002582:	07d2      	lsls	r2, r2, #31
 8002584:	d539      	bpl.n	80025fa <HAL_SPI_Receive+0x122>
 8002586:	68da      	ldr	r2, [r3, #12]
 8002588:	6ba3      	ldr	r3, [r4, #56]	; 0x38
 800258a:	f823 2b02 	strh.w	r2, [r3], #2
 800258e:	63a3      	str	r3, [r4, #56]	; 0x38
 8002590:	8fe3      	ldrh	r3, [r4, #62]	; 0x3e
 8002592:	3b01      	subs	r3, #1
 8002594:	b29b      	uxth	r3, r3
 8002596:	87e3      	strh	r3, [r4, #62]	; 0x3e
 8002598:	e7ee      	b.n	8002578 <HAL_SPI_Receive+0xa0>
 800259a:	6823      	ldr	r3, [r4, #0]
 800259c:	689a      	ldr	r2, [r3, #8]
 800259e:	07d0      	lsls	r0, r2, #31
 80025a0:	d518      	bpl.n	80025d4 <HAL_SPI_Receive+0xfc>
 80025a2:	7b1b      	ldrb	r3, [r3, #12]
 80025a4:	6ba2      	ldr	r2, [r4, #56]	; 0x38
 80025a6:	7013      	strb	r3, [r2, #0]
 80025a8:	6ba3      	ldr	r3, [r4, #56]	; 0x38
 80025aa:	3301      	adds	r3, #1
 80025ac:	63a3      	str	r3, [r4, #56]	; 0x38
 80025ae:	8fe3      	ldrh	r3, [r4, #62]	; 0x3e
 80025b0:	3b01      	subs	r3, #1
 80025b2:	b29b      	uxth	r3, r3
 80025b4:	87e3      	strh	r3, [r4, #62]	; 0x3e
 80025b6:	8fe3      	ldrh	r3, [r4, #62]	; 0x3e
 80025b8:	b29b      	uxth	r3, r3
 80025ba:	2b00      	cmp	r3, #0
 80025bc:	d1ed      	bne.n	800259a <HAL_SPI_Receive+0xc2>
 80025be:	4642      	mov	r2, r8
 80025c0:	4629      	mov	r1, r5
 80025c2:	4620      	mov	r0, r4
 80025c4:	f7ff fd5a 	bl	800207c <SPI_EndRxTransaction>
 80025c8:	bb18      	cbnz	r0, 8002612 <HAL_SPI_Receive+0x13a>
 80025ca:	6d60      	ldr	r0, [r4, #84]	; 0x54
 80025cc:	3800      	subs	r0, #0
 80025ce:	bf18      	it	ne
 80025d0:	2001      	movne	r0, #1
 80025d2:	e008      	b.n	80025e6 <HAL_SPI_Receive+0x10e>
 80025d4:	f7fe f900 	bl	80007d8 <HAL_GetTick>
 80025d8:	eba0 0008 	sub.w	r0, r0, r8
 80025dc:	42a8      	cmp	r0, r5
 80025de:	d309      	bcc.n	80025f4 <HAL_SPI_Receive+0x11c>
 80025e0:	1c69      	adds	r1, r5, #1
 80025e2:	d0e8      	beq.n	80025b6 <HAL_SPI_Receive+0xde>
 80025e4:	2003      	movs	r0, #3
 80025e6:	2301      	movs	r3, #1
 80025e8:	f884 3051 	strb.w	r3, [r4, #81]	; 0x51
 80025ec:	2300      	movs	r3, #0
 80025ee:	f884 3050 	strb.w	r3, [r4, #80]	; 0x50
 80025f2:	e785      	b.n	8002500 <HAL_SPI_Receive+0x28>
 80025f4:	2d00      	cmp	r5, #0
 80025f6:	d1de      	bne.n	80025b6 <HAL_SPI_Receive+0xde>
 80025f8:	e7f4      	b.n	80025e4 <HAL_SPI_Receive+0x10c>
 80025fa:	f7fe f8ed 	bl	80007d8 <HAL_GetTick>
 80025fe:	eba0 0008 	sub.w	r0, r0, r8
 8002602:	42a8      	cmp	r0, r5
 8002604:	d302      	bcc.n	800260c <HAL_SPI_Receive+0x134>
 8002606:	1c6b      	adds	r3, r5, #1
 8002608:	d0b6      	beq.n	8002578 <HAL_SPI_Receive+0xa0>
 800260a:	e7eb      	b.n	80025e4 <HAL_SPI_Receive+0x10c>
 800260c:	2d00      	cmp	r5, #0
 800260e:	d1b3      	bne.n	8002578 <HAL_SPI_Receive+0xa0>
 8002610:	e7e8      	b.n	80025e4 <HAL_SPI_Receive+0x10c>
 8002612:	2320      	movs	r3, #32
 8002614:	6563      	str	r3, [r4, #84]	; 0x54
 8002616:	e7d8      	b.n	80025ca <HAL_SPI_Receive+0xf2>
 8002618:	2002      	movs	r0, #2
 800261a:	e7e4      	b.n	80025e6 <HAL_SPI_Receive+0x10e>
 800261c:	2002      	movs	r0, #2
 800261e:	e76f      	b.n	8002500 <HAL_SPI_Receive+0x28>

08002620 <HAL_TIM_Base_MspInit>:
 8002620:	4770      	bx	lr
	...

08002624 <HAL_TIM_Base_Start_IT>:
 8002624:	f890 303d 	ldrb.w	r3, [r0, #61]	; 0x3d
 8002628:	2b01      	cmp	r3, #1
 800262a:	d120      	bne.n	800266e <HAL_TIM_Base_Start_IT+0x4a>
 800262c:	2302      	movs	r3, #2
 800262e:	f880 303d 	strb.w	r3, [r0, #61]	; 0x3d
 8002632:	6803      	ldr	r3, [r0, #0]
 8002634:	68da      	ldr	r2, [r3, #12]
 8002636:	f042 0201 	orr.w	r2, r2, #1
 800263a:	60da      	str	r2, [r3, #12]
 800263c:	4a0d      	ldr	r2, [pc, #52]	; (8002674 <HAL_TIM_Base_Start_IT+0x50>)
 800263e:	4293      	cmp	r3, r2
 8002640:	d00a      	beq.n	8002658 <HAL_TIM_Base_Start_IT+0x34>
 8002642:	f1b3 4f80 	cmp.w	r3, #1073741824	; 0x40000000
 8002646:	d007      	beq.n	8002658 <HAL_TIM_Base_Start_IT+0x34>
 8002648:	f5a2 3294 	sub.w	r2, r2, #75776	; 0x12800
 800264c:	4293      	cmp	r3, r2
 800264e:	d003      	beq.n	8002658 <HAL_TIM_Base_Start_IT+0x34>
 8002650:	f502 6280 	add.w	r2, r2, #1024	; 0x400
 8002654:	4293      	cmp	r3, r2
 8002656:	d104      	bne.n	8002662 <HAL_TIM_Base_Start_IT+0x3e>
 8002658:	689a      	ldr	r2, [r3, #8]
 800265a:	f002 0207 	and.w	r2, r2, #7
 800265e:	2a06      	cmp	r2, #6
 8002660:	d003      	beq.n	800266a <HAL_TIM_Base_Start_IT+0x46>
 8002662:	681a      	ldr	r2, [r3, #0]
 8002664:	f042 0201 	orr.w	r2, r2, #1
 8002668:	601a      	str	r2, [r3, #0]
 800266a:	2000      	movs	r0, #0
 800266c:	4770      	bx	lr
 800266e:	2001      	movs	r0, #1
 8002670:	4770      	bx	lr
 8002672:	bf00      	nop
 8002674:	40012c00 	.word	0x40012c00

08002678 <HAL_TIM_OC_DelayElapsedCallback>:
 8002678:	4770      	bx	lr

0800267a <HAL_TIM_IC_CaptureCallback>:
 800267a:	4770      	bx	lr

0800267c <HAL_TIM_PWM_PulseFinishedCallback>:
 800267c:	4770      	bx	lr

0800267e <HAL_TIM_TriggerCallback>:
 800267e:	4770      	bx	lr

08002680 <HAL_TIM_IRQHandler>:
 8002680:	6803      	ldr	r3, [r0, #0]
 8002682:	b510      	push	{r4, lr}
 8002684:	691a      	ldr	r2, [r3, #16]
 8002686:	4604      	mov	r4, r0
 8002688:	0791      	lsls	r1, r2, #30
 800268a:	d50e      	bpl.n	80026aa <HAL_TIM_IRQHandler+0x2a>
 800268c:	68da      	ldr	r2, [r3, #12]
 800268e:	0792      	lsls	r2, r2, #30
 8002690:	d50b      	bpl.n	80026aa <HAL_TIM_IRQHandler+0x2a>
 8002692:	f06f 0202 	mvn.w	r2, #2
 8002696:	611a      	str	r2, [r3, #16]
 8002698:	2201      	movs	r2, #1
 800269a:	7702      	strb	r2, [r0, #28]
 800269c:	699b      	ldr	r3, [r3, #24]
 800269e:	079b      	lsls	r3, r3, #30
 80026a0:	d077      	beq.n	8002792 <HAL_TIM_IRQHandler+0x112>
 80026a2:	f7ff ffea 	bl	800267a <HAL_TIM_IC_CaptureCallback>
 80026a6:	2300      	movs	r3, #0
 80026a8:	7723      	strb	r3, [r4, #28]
 80026aa:	6823      	ldr	r3, [r4, #0]
 80026ac:	691a      	ldr	r2, [r3, #16]
 80026ae:	0750      	lsls	r0, r2, #29
 80026b0:	d510      	bpl.n	80026d4 <HAL_TIM_IRQHandler+0x54>
 80026b2:	68da      	ldr	r2, [r3, #12]
 80026b4:	0751      	lsls	r1, r2, #29
 80026b6:	d50d      	bpl.n	80026d4 <HAL_TIM_IRQHandler+0x54>
 80026b8:	f06f 0204 	mvn.w	r2, #4
 80026bc:	611a      	str	r2, [r3, #16]
 80026be:	2202      	movs	r2, #2
 80026c0:	7722      	strb	r2, [r4, #28]
 80026c2:	699b      	ldr	r3, [r3, #24]
 80026c4:	4620      	mov	r0, r4
 80026c6:	f413 7f40 	tst.w	r3, #768	; 0x300
 80026ca:	d068      	beq.n	800279e <HAL_TIM_IRQHandler+0x11e>
 80026cc:	f7ff ffd5 	bl	800267a <HAL_TIM_IC_CaptureCallback>
 80026d0:	2300      	movs	r3, #0
 80026d2:	7723      	strb	r3, [r4, #28]
 80026d4:	6823      	ldr	r3, [r4, #0]
 80026d6:	691a      	ldr	r2, [r3, #16]
 80026d8:	0712      	lsls	r2, r2, #28
 80026da:	d50f      	bpl.n	80026fc <HAL_TIM_IRQHandler+0x7c>
 80026dc:	68da      	ldr	r2, [r3, #12]
 80026de:	0710      	lsls	r0, r2, #28
 80026e0:	d50c      	bpl.n	80026fc <HAL_TIM_IRQHandler+0x7c>
 80026e2:	f06f 0208 	mvn.w	r2, #8
 80026e6:	611a      	str	r2, [r3, #16]
 80026e8:	2204      	movs	r2, #4
 80026ea:	7722      	strb	r2, [r4, #28]
 80026ec:	69db      	ldr	r3, [r3, #28]
 80026ee:	4620      	mov	r0, r4
 80026f0:	0799      	lsls	r1, r3, #30
 80026f2:	d05a      	beq.n	80027aa <HAL_TIM_IRQHandler+0x12a>
 80026f4:	f7ff ffc1 	bl	800267a <HAL_TIM_IC_CaptureCallback>
 80026f8:	2300      	movs	r3, #0
 80026fa:	7723      	strb	r3, [r4, #28]
 80026fc:	6823      	ldr	r3, [r4, #0]
 80026fe:	691a      	ldr	r2, [r3, #16]
 8002700:	06d2      	lsls	r2, r2, #27
 8002702:	d510      	bpl.n	8002726 <HAL_TIM_IRQHandler+0xa6>
 8002704:	68da      	ldr	r2, [r3, #12]
 8002706:	06d0      	lsls	r0, r2, #27
 8002708:	d50d      	bpl.n	8002726 <HAL_TIM_IRQHandler+0xa6>
 800270a:	f06f 0210 	mvn.w	r2, #16
 800270e:	611a      	str	r2, [r3, #16]
 8002710:	2208      	movs	r2, #8
 8002712:	7722      	strb	r2, [r4, #28]
 8002714:	69db      	ldr	r3, [r3, #28]
 8002716:	4620      	mov	r0, r4
 8002718:	f413 7f40 	tst.w	r3, #768	; 0x300
 800271c:	d04b      	beq.n	80027b6 <HAL_TIM_IRQHandler+0x136>
 800271e:	f7ff ffac 	bl	800267a <HAL_TIM_IC_CaptureCallback>
 8002722:	2300      	movs	r3, #0
 8002724:	7723      	strb	r3, [r4, #28]
 8002726:	6823      	ldr	r3, [r4, #0]
 8002728:	691a      	ldr	r2, [r3, #16]
 800272a:	07d1      	lsls	r1, r2, #31
 800272c:	d508      	bpl.n	8002740 <HAL_TIM_IRQHandler+0xc0>
 800272e:	68da      	ldr	r2, [r3, #12]
 8002730:	07d2      	lsls	r2, r2, #31
 8002732:	d505      	bpl.n	8002740 <HAL_TIM_IRQHandler+0xc0>
 8002734:	f06f 0201 	mvn.w	r2, #1
 8002738:	4620      	mov	r0, r4
 800273a:	611a      	str	r2, [r3, #16]
 800273c:	f7fd fdde 	bl	80002fc <HAL_TIM_PeriodElapsedCallback>
 8002740:	6823      	ldr	r3, [r4, #0]
 8002742:	691a      	ldr	r2, [r3, #16]
 8002744:	0610      	lsls	r0, r2, #24
 8002746:	d508      	bpl.n	800275a <HAL_TIM_IRQHandler+0xda>
 8002748:	68da      	ldr	r2, [r3, #12]
 800274a:	0611      	lsls	r1, r2, #24
 800274c:	d505      	bpl.n	800275a <HAL_TIM_IRQHandler+0xda>
 800274e:	f06f 0280 	mvn.w	r2, #128	; 0x80
 8002752:	4620      	mov	r0, r4
 8002754:	611a      	str	r2, [r3, #16]
 8002756:	f000 f89a 	bl	800288e <HAL_TIMEx_BreakCallback>
 800275a:	6823      	ldr	r3, [r4, #0]
 800275c:	691a      	ldr	r2, [r3, #16]
 800275e:	0652      	lsls	r2, r2, #25
 8002760:	d508      	bpl.n	8002774 <HAL_TIM_IRQHandler+0xf4>
 8002762:	68da      	ldr	r2, [r3, #12]
 8002764:	0650      	lsls	r0, r2, #25
 8002766:	d505      	bpl.n	8002774 <HAL_TIM_IRQHandler+0xf4>
 8002768:	f06f 0240 	mvn.w	r2, #64	; 0x40
 800276c:	4620      	mov	r0, r4
 800276e:	611a      	str	r2, [r3, #16]
 8002770:	f7ff ff85 	bl	800267e <HAL_TIM_TriggerCallback>
 8002774:	6823      	ldr	r3, [r4, #0]
 8002776:	691a      	ldr	r2, [r3, #16]
 8002778:	0691      	lsls	r1, r2, #26
 800277a:	d522      	bpl.n	80027c2 <HAL_TIM_IRQHandler+0x142>
 800277c:	68da      	ldr	r2, [r3, #12]
 800277e:	0692      	lsls	r2, r2, #26
 8002780:	d51f      	bpl.n	80027c2 <HAL_TIM_IRQHandler+0x142>
 8002782:	f06f 0220 	mvn.w	r2, #32
 8002786:	4620      	mov	r0, r4
 8002788:	e8bd 4010 	ldmia.w	sp!, {r4, lr}
 800278c:	611a      	str	r2, [r3, #16]
 800278e:	f000 b87d 	b.w	800288c <HAL_TIMEx_CommutCallback>
 8002792:	f7ff ff71 	bl	8002678 <HAL_TIM_OC_DelayElapsedCallback>
 8002796:	4620      	mov	r0, r4
 8002798:	f7ff ff70 	bl	800267c <HAL_TIM_PWM_PulseFinishedCallback>
 800279c:	e783      	b.n	80026a6 <HAL_TIM_IRQHandler+0x26>
 800279e:	f7ff ff6b 	bl	8002678 <HAL_TIM_OC_DelayElapsedCallback>
 80027a2:	4620      	mov	r0, r4
 80027a4:	f7ff ff6a 	bl	800267c <HAL_TIM_PWM_PulseFinishedCallback>
 80027a8:	e792      	b.n	80026d0 <HAL_TIM_IRQHandler+0x50>
 80027aa:	f7ff ff65 	bl	8002678 <HAL_TIM_OC_DelayElapsedCallback>
 80027ae:	4620      	mov	r0, r4
 80027b0:	f7ff ff64 	bl	800267c <HAL_TIM_PWM_PulseFinishedCallback>
 80027b4:	e7a0      	b.n	80026f8 <HAL_TIM_IRQHandler+0x78>
 80027b6:	f7ff ff5f 	bl	8002678 <HAL_TIM_OC_DelayElapsedCallback>
 80027ba:	4620      	mov	r0, r4
 80027bc:	f7ff ff5e 	bl	800267c <HAL_TIM_PWM_PulseFinishedCallback>
 80027c0:	e7af      	b.n	8002722 <HAL_TIM_IRQHandler+0xa2>
 80027c2:	bd10      	pop	{r4, pc}

080027c4 <TIM_Base_SetConfig>:
 80027c4:	4a1a      	ldr	r2, [pc, #104]	; (8002830 <TIM_Base_SetConfig+0x6c>)
 80027c6:	6803      	ldr	r3, [r0, #0]
 80027c8:	4290      	cmp	r0, r2
 80027ca:	d00a      	beq.n	80027e2 <TIM_Base_SetConfig+0x1e>
 80027cc:	f1b0 4f80 	cmp.w	r0, #1073741824	; 0x40000000
 80027d0:	d007      	beq.n	80027e2 <TIM_Base_SetConfig+0x1e>
 80027d2:	f5a2 3294 	sub.w	r2, r2, #75776	; 0x12800
 80027d6:	4290      	cmp	r0, r2
 80027d8:	d003      	beq.n	80027e2 <TIM_Base_SetConfig+0x1e>
 80027da:	f502 6280 	add.w	r2, r2, #1024	; 0x400
 80027de:	4290      	cmp	r0, r2
 80027e0:	d115      	bne.n	800280e <TIM_Base_SetConfig+0x4a>
 80027e2:	684a      	ldr	r2, [r1, #4]
 80027e4:	f023 0370 	bic.w	r3, r3, #112	; 0x70
 80027e8:	4313      	orrs	r3, r2
 80027ea:	4a11      	ldr	r2, [pc, #68]	; (8002830 <TIM_Base_SetConfig+0x6c>)
 80027ec:	4290      	cmp	r0, r2
 80027ee:	d00a      	beq.n	8002806 <TIM_Base_SetConfig+0x42>
 80027f0:	f1b0 4f80 	cmp.w	r0, #1073741824	; 0x40000000
 80027f4:	d007      	beq.n	8002806 <TIM_Base_SetConfig+0x42>
 80027f6:	f5a2 3294 	sub.w	r2, r2, #75776	; 0x12800
 80027fa:	4290      	cmp	r0, r2
 80027fc:	d003      	beq.n	8002806 <TIM_Base_SetConfig+0x42>
 80027fe:	f502 6280 	add.w	r2, r2, #1024	; 0x400
 8002802:	4290      	cmp	r0, r2
 8002804:	d103      	bne.n	800280e <TIM_Base_SetConfig+0x4a>
 8002806:	68ca      	ldr	r2, [r1, #12]
 8002808:	f423 7340 	bic.w	r3, r3, #768	; 0x300
 800280c:	4313      	orrs	r3, r2
 800280e:	694a      	ldr	r2, [r1, #20]
 8002810:	f023 0380 	bic.w	r3, r3, #128	; 0x80
 8002814:	4313      	orrs	r3, r2
 8002816:	6003      	str	r3, [r0, #0]
 8002818:	688b      	ldr	r3, [r1, #8]
 800281a:	62c3      	str	r3, [r0, #44]	; 0x2c
 800281c:	680b      	ldr	r3, [r1, #0]
 800281e:	6283      	str	r3, [r0, #40]	; 0x28
 8002820:	4b03      	ldr	r3, [pc, #12]	; (8002830 <TIM_Base_SetConfig+0x6c>)
 8002822:	4298      	cmp	r0, r3
 8002824:	bf04      	itt	eq
 8002826:	690b      	ldreq	r3, [r1, #16]
 8002828:	6303      	streq	r3, [r0, #48]	; 0x30
 800282a:	2301      	movs	r3, #1
 800282c:	6143      	str	r3, [r0, #20]
 800282e:	4770      	bx	lr
 8002830:	40012c00 	.word	0x40012c00

08002834 <HAL_TIM_Base_Init>:
 8002834:	b510      	push	{r4, lr}
 8002836:	4604      	mov	r4, r0
 8002838:	b330      	cbz	r0, 8002888 <HAL_TIM_Base_Init+0x54>
 800283a:	f890 303d 	ldrb.w	r3, [r0, #61]	; 0x3d
 800283e:	f003 02ff 	and.w	r2, r3, #255	; 0xff
 8002842:	b91b      	cbnz	r3, 800284c <HAL_TIM_Base_Init+0x18>
 8002844:	f880 203c 	strb.w	r2, [r0, #60]	; 0x3c
 8002848:	f7ff feea 	bl	8002620 <HAL_TIM_Base_MspInit>
 800284c:	2302      	movs	r3, #2
 800284e:	6820      	ldr	r0, [r4, #0]
 8002850:	f884 303d 	strb.w	r3, [r4, #61]	; 0x3d
 8002854:	1d21      	adds	r1, r4, #4
 8002856:	f7ff ffb5 	bl	80027c4 <TIM_Base_SetConfig>
 800285a:	2301      	movs	r3, #1
 800285c:	2000      	movs	r0, #0
 800285e:	f884 3046 	strb.w	r3, [r4, #70]	; 0x46
 8002862:	f884 303e 	strb.w	r3, [r4, #62]	; 0x3e
 8002866:	f884 303f 	strb.w	r3, [r4, #63]	; 0x3f
 800286a:	f884 3040 	strb.w	r3, [r4, #64]	; 0x40
 800286e:	f884 3041 	strb.w	r3, [r4, #65]	; 0x41
 8002872:	f884 3042 	strb.w	r3, [r4, #66]	; 0x42
 8002876:	f884 3043 	strb.w	r3, [r4, #67]	; 0x43
 800287a:	f884 3044 	strb.w	r3, [r4, #68]	; 0x44
 800287e:	f884 3045 	strb.w	r3, [r4, #69]	; 0x45
 8002882:	f884 303d 	strb.w	r3, [r4, #61]	; 0x3d
 8002886:	bd10      	pop	{r4, pc}
 8002888:	2001      	movs	r0, #1
 800288a:	e7fc      	b.n	8002886 <HAL_TIM_Base_Init+0x52>

0800288c <HAL_TIMEx_CommutCallback>:
 800288c:	4770      	bx	lr

0800288e <HAL_TIMEx_BreakCallback>:
 800288e:	4770      	bx	lr

08002890 <USB_CoreInit>:
 8002890:	b084      	sub	sp, #16
 8002892:	a801      	add	r0, sp, #4
 8002894:	e880 000e 	stmia.w	r0, {r1, r2, r3}
 8002898:	b004      	add	sp, #16
 800289a:	2000      	movs	r0, #0
 800289c:	4770      	bx	lr

0800289e <USB_EnableGlobalInt>:
 800289e:	4603      	mov	r3, r0
 80028a0:	f44f 423f 	mov.w	r2, #48896	; 0xbf00
 80028a4:	2000      	movs	r0, #0
 80028a6:	f8a3 0044 	strh.w	r0, [r3, #68]	; 0x44
 80028aa:	f8a3 2040 	strh.w	r2, [r3, #64]	; 0x40
 80028ae:	4770      	bx	lr

080028b0 <USB_DisableGlobalInt>:
 80028b0:	f8b0 3040 	ldrh.w	r3, [r0, #64]	; 0x40
 80028b4:	f423 537c 	bic.w	r3, r3, #16128	; 0x3f00
 80028b8:	045b      	lsls	r3, r3, #17
 80028ba:	0c5b      	lsrs	r3, r3, #17
 80028bc:	f8a0 3040 	strh.w	r3, [r0, #64]	; 0x40
 80028c0:	2000      	movs	r0, #0
 80028c2:	4770      	bx	lr

080028c4 <USB_SetCurrentMode>:
 80028c4:	2000      	movs	r0, #0
 80028c6:	4770      	bx	lr

080028c8 <USB_DevInit>:
 80028c8:	b084      	sub	sp, #16
 80028ca:	b510      	push	{r4, lr}
 80028cc:	4604      	mov	r4, r0
 80028ce:	a803      	add	r0, sp, #12
 80028d0:	e880 000e 	stmia.w	r0, {r1, r2, r3}
 80028d4:	2000      	movs	r0, #0
 80028d6:	2301      	movs	r3, #1
 80028d8:	f8a4 3040 	strh.w	r3, [r4, #64]	; 0x40
 80028dc:	f8a4 0040 	strh.w	r0, [r4, #64]	; 0x40
 80028e0:	f8a4 0044 	strh.w	r0, [r4, #68]	; 0x44
 80028e4:	f8a4 0050 	strh.w	r0, [r4, #80]	; 0x50
 80028e8:	e8bd 4010 	ldmia.w	sp!, {r4, lr}
 80028ec:	b004      	add	sp, #16
 80028ee:	4770      	bx	lr

080028f0 <USB_ActivateEndpoint>:
 80028f0:	b5f0      	push	{r4, r5, r6, r7, lr}
 80028f2:	780a      	ldrb	r2, [r1, #0]
 80028f4:	78cd      	ldrb	r5, [r1, #3]
 80028f6:	f830 4022 	ldrh.w	r4, [r0, r2, lsl #2]
 80028fa:	4603      	mov	r3, r0
 80028fc:	f424 44ec 	bic.w	r4, r4, #30208	; 0x7600
 8002900:	f024 0470 	bic.w	r4, r4, #112	; 0x70
 8002904:	0424      	lsls	r4, r4, #16
 8002906:	0c24      	lsrs	r4, r4, #16
 8002908:	2d03      	cmp	r5, #3
 800290a:	d848      	bhi.n	800299e <USB_ActivateEndpoint+0xae>
 800290c:	e8df f005 	tbb	[pc, r5]
 8002910:	40424402 	.word	0x40424402
 8002914:	4628      	mov	r0, r5
 8002916:	f444 7400 	orr.w	r4, r4, #512	; 0x200
 800291a:	f248 0680 	movw	r6, #32896	; 0x8080
 800291e:	4334      	orrs	r4, r6
 8002920:	f823 4022 	strh.w	r4, [r3, r2, lsl #2]
 8002924:	f833 4022 	ldrh.w	r4, [r3, r2, lsl #2]
 8002928:	4f8c      	ldr	r7, [pc, #560]	; (8002b5c <USB_ActivateEndpoint+0x26c>)
 800292a:	b2a4      	uxth	r4, r4
 800292c:	403c      	ands	r4, r7
 800292e:	4314      	orrs	r4, r2
 8002930:	4334      	orrs	r4, r6
 8002932:	f823 4022 	strh.w	r4, [r3, r2, lsl #2]
 8002936:	7b0c      	ldrb	r4, [r1, #12]
 8002938:	eb03 1c02 	add.w	ip, r3, r2, lsl #4
 800293c:	2c00      	cmp	r4, #0
 800293e:	d17b      	bne.n	8002a38 <USB_ActivateEndpoint+0x148>
 8002940:	88ce      	ldrh	r6, [r1, #6]
 8002942:	784c      	ldrb	r4, [r1, #1]
 8002944:	0876      	lsrs	r6, r6, #1
 8002946:	0076      	lsls	r6, r6, #1
 8002948:	b35c      	cbz	r4, 80029a2 <USB_ActivateEndpoint+0xb2>
 800294a:	f8b3 4050 	ldrh.w	r4, [r3, #80]	; 0x50
 800294e:	b2a4      	uxth	r4, r4
 8002950:	4464      	add	r4, ip
 8002952:	f8a4 6400 	strh.w	r6, [r4, #1024]	; 0x400
 8002956:	f833 1022 	ldrh.w	r1, [r3, r2, lsl #2]
 800295a:	064e      	lsls	r6, r1, #25
 800295c:	d509      	bpl.n	8002972 <USB_ActivateEndpoint+0x82>
 800295e:	f833 1022 	ldrh.w	r1, [r3, r2, lsl #2]
 8002962:	b289      	uxth	r1, r1
 8002964:	4039      	ands	r1, r7
 8002966:	f441 4100 	orr.w	r1, r1, #32768	; 0x8000
 800296a:	f041 01c0 	orr.w	r1, r1, #192	; 0xc0
 800296e:	f823 1022 	strh.w	r1, [r3, r2, lsl #2]
 8002972:	f833 1022 	ldrh.w	r1, [r3, r2, lsl #2]
 8002976:	4c7a      	ldr	r4, [pc, #488]	; (8002b60 <USB_ActivateEndpoint+0x270>)
 8002978:	b289      	uxth	r1, r1
 800297a:	2d01      	cmp	r5, #1
 800297c:	ea01 0104 	and.w	r1, r1, r4
 8002980:	d001      	beq.n	8002986 <USB_ActivateEndpoint+0x96>
 8002982:	f081 0120 	eor.w	r1, r1, #32
 8002986:	f441 4100 	orr.w	r1, r1, #32768	; 0x8000
 800298a:	f041 0180 	orr.w	r1, r1, #128	; 0x80
 800298e:	e0a9      	b.n	8002ae4 <USB_ActivateEndpoint+0x1f4>
 8002990:	f444 64c0 	orr.w	r4, r4, #1536	; 0x600
 8002994:	2000      	movs	r0, #0
 8002996:	e7c0      	b.n	800291a <USB_ActivateEndpoint+0x2a>
 8002998:	f444 6480 	orr.w	r4, r4, #1024	; 0x400
 800299c:	e7fa      	b.n	8002994 <USB_ActivateEndpoint+0xa4>
 800299e:	2001      	movs	r0, #1
 80029a0:	e7bb      	b.n	800291a <USB_ActivateEndpoint+0x2a>
 80029a2:	f8b3 4050 	ldrh.w	r4, [r3, #80]	; 0x50
 80029a6:	690d      	ldr	r5, [r1, #16]
 80029a8:	b2a4      	uxth	r4, r4
 80029aa:	4464      	add	r4, ip
 80029ac:	f8a4 6408 	strh.w	r6, [r4, #1032]	; 0x408
 80029b0:	f8b3 4050 	ldrh.w	r4, [r3, #80]	; 0x50
 80029b4:	b2a4      	uxth	r4, r4
 80029b6:	4464      	add	r4, ip
 80029b8:	bb6d      	cbnz	r5, 8002a16 <USB_ActivateEndpoint+0x126>
 80029ba:	f8b4 140c 	ldrh.w	r1, [r4, #1036]	; 0x40c
 80029be:	f421 41f8 	bic.w	r1, r1, #31744	; 0x7c00
 80029c2:	0409      	lsls	r1, r1, #16
 80029c4:	0c09      	lsrs	r1, r1, #16
 80029c6:	f8a4 140c 	strh.w	r1, [r4, #1036]	; 0x40c
 80029ca:	f8b4 140c 	ldrh.w	r1, [r4, #1036]	; 0x40c
 80029ce:	ea6f 4141 	mvn.w	r1, r1, lsl #17
 80029d2:	ea6f 4151 	mvn.w	r1, r1, lsr #17
 80029d6:	b289      	uxth	r1, r1
 80029d8:	f8a4 140c 	strh.w	r1, [r4, #1036]	; 0x40c
 80029dc:	f833 1022 	ldrh.w	r1, [r3, r2, lsl #2]
 80029e0:	044f      	lsls	r7, r1, #17
 80029e2:	d50d      	bpl.n	8002a00 <USB_ActivateEndpoint+0x110>
 80029e4:	f833 1022 	ldrh.w	r1, [r3, r2, lsl #2]
 80029e8:	f421 41e0 	bic.w	r1, r1, #28672	; 0x7000
 80029ec:	f021 0170 	bic.w	r1, r1, #112	; 0x70
 80029f0:	0409      	lsls	r1, r1, #16
 80029f2:	0c09      	lsrs	r1, r1, #16
 80029f4:	f441 4140 	orr.w	r1, r1, #49152	; 0xc000
 80029f8:	f041 0180 	orr.w	r1, r1, #128	; 0x80
 80029fc:	f823 1022 	strh.w	r1, [r3, r2, lsl #2]
 8002a00:	f833 1022 	ldrh.w	r1, [r3, r2, lsl #2]
 8002a04:	f421 4180 	bic.w	r1, r1, #16384	; 0x4000
 8002a08:	f021 0170 	bic.w	r1, r1, #112	; 0x70
 8002a0c:	0409      	lsls	r1, r1, #16
 8002a0e:	0c09      	lsrs	r1, r1, #16
 8002a10:	f481 5140 	eor.w	r1, r1, #12288	; 0x3000
 8002a14:	e7b7      	b.n	8002986 <USB_ActivateEndpoint+0x96>
 8002a16:	2d3e      	cmp	r5, #62	; 0x3e
 8002a18:	d805      	bhi.n	8002a26 <USB_ActivateEndpoint+0x136>
 8002a1a:	0869      	lsrs	r1, r5, #1
 8002a1c:	07ed      	lsls	r5, r5, #31
 8002a1e:	bf48      	it	mi
 8002a20:	3101      	addmi	r1, #1
 8002a22:	0289      	lsls	r1, r1, #10
 8002a24:	e7d7      	b.n	80029d6 <USB_ActivateEndpoint+0xe6>
 8002a26:	096e      	lsrs	r6, r5, #5
 8002a28:	06e9      	lsls	r1, r5, #27
 8002a2a:	494e      	ldr	r1, [pc, #312]	; (8002b64 <USB_ActivateEndpoint+0x274>)
 8002a2c:	bf08      	it	eq
 8002a2e:	f106 36ff 	addeq.w	r6, r6, #4294967295
 8002a32:	ea41 2186 	orr.w	r1, r1, r6, lsl #10
 8002a36:	e7ce      	b.n	80029d6 <USB_ActivateEndpoint+0xe6>
 8002a38:	f833 6022 	ldrh.w	r6, [r3, r2, lsl #2]
 8002a3c:	b2b6      	uxth	r6, r6
 8002a3e:	403e      	ands	r6, r7
 8002a40:	f446 4601 	orr.w	r6, r6, #33024	; 0x8100
 8002a44:	f046 0680 	orr.w	r6, r6, #128	; 0x80
 8002a48:	f823 6022 	strh.w	r6, [r3, r2, lsl #2]
 8002a4c:	f8b3 4050 	ldrh.w	r4, [r3, #80]	; 0x50
 8002a50:	890e      	ldrh	r6, [r1, #8]
 8002a52:	b2a4      	uxth	r4, r4
 8002a54:	0876      	lsrs	r6, r6, #1
 8002a56:	4464      	add	r4, ip
 8002a58:	0076      	lsls	r6, r6, #1
 8002a5a:	f8a4 6400 	strh.w	r6, [r4, #1024]	; 0x400
 8002a5e:	894e      	ldrh	r6, [r1, #10]
 8002a60:	f8b3 4050 	ldrh.w	r4, [r3, #80]	; 0x50
 8002a64:	0876      	lsrs	r6, r6, #1
 8002a66:	b2a4      	uxth	r4, r4
 8002a68:	4464      	add	r4, ip
 8002a6a:	0076      	lsls	r6, r6, #1
 8002a6c:	f8a4 6408 	strh.w	r6, [r4, #1032]	; 0x408
 8002a70:	7849      	ldrb	r1, [r1, #1]
 8002a72:	bbd1      	cbnz	r1, 8002aea <USB_ActivateEndpoint+0x1fa>
 8002a74:	f833 1022 	ldrh.w	r1, [r3, r2, lsl #2]
 8002a78:	044e      	lsls	r6, r1, #17
 8002a7a:	d509      	bpl.n	8002a90 <USB_ActivateEndpoint+0x1a0>
 8002a7c:	f833 1022 	ldrh.w	r1, [r3, r2, lsl #2]
 8002a80:	b289      	uxth	r1, r1
 8002a82:	4039      	ands	r1, r7
 8002a84:	f441 4140 	orr.w	r1, r1, #49152	; 0xc000
 8002a88:	f041 0180 	orr.w	r1, r1, #128	; 0x80
 8002a8c:	f823 1022 	strh.w	r1, [r3, r2, lsl #2]
 8002a90:	f833 1022 	ldrh.w	r1, [r3, r2, lsl #2]
 8002a94:	064d      	lsls	r5, r1, #25
 8002a96:	d50d      	bpl.n	8002ab4 <USB_ActivateEndpoint+0x1c4>
 8002a98:	f833 1022 	ldrh.w	r1, [r3, r2, lsl #2]
 8002a9c:	f421 41e0 	bic.w	r1, r1, #28672	; 0x7000
 8002aa0:	f021 0170 	bic.w	r1, r1, #112	; 0x70
 8002aa4:	0409      	lsls	r1, r1, #16
 8002aa6:	0c09      	lsrs	r1, r1, #16
 8002aa8:	f441 4100 	orr.w	r1, r1, #32768	; 0x8000
 8002aac:	f041 01c0 	orr.w	r1, r1, #192	; 0xc0
 8002ab0:	f823 1022 	strh.w	r1, [r3, r2, lsl #2]
 8002ab4:	f248 0480 	movw	r4, #32896	; 0x8080
 8002ab8:	f833 1022 	ldrh.w	r1, [r3, r2, lsl #2]
 8002abc:	f421 4180 	bic.w	r1, r1, #16384	; 0x4000
 8002ac0:	f021 0170 	bic.w	r1, r1, #112	; 0x70
 8002ac4:	0409      	lsls	r1, r1, #16
 8002ac6:	0c09      	lsrs	r1, r1, #16
 8002ac8:	f481 5140 	eor.w	r1, r1, #12288	; 0x3000
 8002acc:	4321      	orrs	r1, r4
 8002ace:	f823 1022 	strh.w	r1, [r3, r2, lsl #2]
 8002ad2:	f833 1022 	ldrh.w	r1, [r3, r2, lsl #2]
 8002ad6:	f421 41e0 	bic.w	r1, r1, #28672	; 0x7000
 8002ada:	f021 0140 	bic.w	r1, r1, #64	; 0x40
 8002ade:	0409      	lsls	r1, r1, #16
 8002ae0:	0c09      	lsrs	r1, r1, #16
 8002ae2:	4321      	orrs	r1, r4
 8002ae4:	f823 1022 	strh.w	r1, [r3, r2, lsl #2]
 8002ae8:	bdf0      	pop	{r4, r5, r6, r7, pc}
 8002aea:	f833 1022 	ldrh.w	r1, [r3, r2, lsl #2]
 8002aee:	044c      	lsls	r4, r1, #17
 8002af0:	d509      	bpl.n	8002b06 <USB_ActivateEndpoint+0x216>
 8002af2:	f833 1022 	ldrh.w	r1, [r3, r2, lsl #2]
 8002af6:	b289      	uxth	r1, r1
 8002af8:	4039      	ands	r1, r7
 8002afa:	f441 4140 	orr.w	r1, r1, #49152	; 0xc000
 8002afe:	f041 0180 	orr.w	r1, r1, #128	; 0x80
 8002b02:	f823 1022 	strh.w	r1, [r3, r2, lsl #2]
 8002b06:	f833 1022 	ldrh.w	r1, [r3, r2, lsl #2]
 8002b0a:	0649      	lsls	r1, r1, #25
 8002b0c:	d50d      	bpl.n	8002b2a <USB_ActivateEndpoint+0x23a>
 8002b0e:	f833 1022 	ldrh.w	r1, [r3, r2, lsl #2]
 8002b12:	f421 41e0 	bic.w	r1, r1, #28672	; 0x7000
 8002b16:	f021 0170 	bic.w	r1, r1, #112	; 0x70
 8002b1a:	0409      	lsls	r1, r1, #16
 8002b1c:	0c09      	lsrs	r1, r1, #16
 8002b1e:	f441 4100 	orr.w	r1, r1, #32768	; 0x8000
 8002b22:	f041 01c0 	orr.w	r1, r1, #192	; 0xc0
 8002b26:	f823 1022 	strh.w	r1, [r3, r2, lsl #2]
 8002b2a:	f833 1022 	ldrh.w	r1, [r3, r2, lsl #2]
 8002b2e:	4c0c      	ldr	r4, [pc, #48]	; (8002b60 <USB_ActivateEndpoint+0x270>)
 8002b30:	b289      	uxth	r1, r1
 8002b32:	4021      	ands	r1, r4
 8002b34:	2d01      	cmp	r5, #1
 8002b36:	bf18      	it	ne
 8002b38:	f081 0120 	eorne.w	r1, r1, #32
 8002b3c:	f441 4100 	orr.w	r1, r1, #32768	; 0x8000
 8002b40:	f041 0180 	orr.w	r1, r1, #128	; 0x80
 8002b44:	f823 1022 	strh.w	r1, [r3, r2, lsl #2]
 8002b48:	f833 1022 	ldrh.w	r1, [r3, r2, lsl #2]
 8002b4c:	f421 4180 	bic.w	r1, r1, #16384	; 0x4000
 8002b50:	f021 0170 	bic.w	r1, r1, #112	; 0x70
 8002b54:	0409      	lsls	r1, r1, #16
 8002b56:	0c09      	lsrs	r1, r1, #16
 8002b58:	e715      	b.n	8002986 <USB_ActivateEndpoint+0x96>
 8002b5a:	bf00      	nop
 8002b5c:	ffff8f8f 	.word	0xffff8f8f
 8002b60:	ffff8fbf 	.word	0xffff8fbf
 8002b64:	ffff8000 	.word	0xffff8000

08002b68 <USB_DeactivateEndpoint>:
 8002b68:	784a      	ldrb	r2, [r1, #1]
 8002b6a:	780b      	ldrb	r3, [r1, #0]
 8002b6c:	7b09      	ldrb	r1, [r1, #12]
 8002b6e:	bbd9      	cbnz	r1, 8002be8 <USB_DeactivateEndpoint+0x80>
 8002b70:	b30a      	cbz	r2, 8002bb6 <USB_DeactivateEndpoint+0x4e>
 8002b72:	f830 2023 	ldrh.w	r2, [r0, r3, lsl #2]
 8002b76:	0651      	lsls	r1, r2, #25
 8002b78:	d50d      	bpl.n	8002b96 <USB_DeactivateEndpoint+0x2e>
 8002b7a:	f830 2023 	ldrh.w	r2, [r0, r3, lsl #2]
 8002b7e:	f422 42e0 	bic.w	r2, r2, #28672	; 0x7000
 8002b82:	f022 0270 	bic.w	r2, r2, #112	; 0x70
 8002b86:	0412      	lsls	r2, r2, #16
 8002b88:	0c12      	lsrs	r2, r2, #16
 8002b8a:	f442 4200 	orr.w	r2, r2, #32768	; 0x8000
 8002b8e:	f042 02c0 	orr.w	r2, r2, #192	; 0xc0
 8002b92:	f820 2023 	strh.w	r2, [r0, r3, lsl #2]
 8002b96:	f830 2023 	ldrh.w	r2, [r0, r3, lsl #2]
 8002b9a:	f422 42e0 	bic.w	r2, r2, #28672	; 0x7000
 8002b9e:	f022 0240 	bic.w	r2, r2, #64	; 0x40
 8002ba2:	0412      	lsls	r2, r2, #16
 8002ba4:	0c12      	lsrs	r2, r2, #16
 8002ba6:	f442 4200 	orr.w	r2, r2, #32768	; 0x8000
 8002baa:	f042 0280 	orr.w	r2, r2, #128	; 0x80
 8002bae:	f820 2023 	strh.w	r2, [r0, r3, lsl #2]
 8002bb2:	2000      	movs	r0, #0
 8002bb4:	4770      	bx	lr
 8002bb6:	f830 2023 	ldrh.w	r2, [r0, r3, lsl #2]
 8002bba:	0452      	lsls	r2, r2, #17
 8002bbc:	d50d      	bpl.n	8002bda <USB_DeactivateEndpoint+0x72>
 8002bbe:	f830 2023 	ldrh.w	r2, [r0, r3, lsl #2]
 8002bc2:	f422 42e0 	bic.w	r2, r2, #28672	; 0x7000
 8002bc6:	f022 0270 	bic.w	r2, r2, #112	; 0x70
 8002bca:	0412      	lsls	r2, r2, #16
 8002bcc:	0c12      	lsrs	r2, r2, #16
 8002bce:	f442 4240 	orr.w	r2, r2, #49152	; 0xc000
 8002bd2:	f042 0280 	orr.w	r2, r2, #128	; 0x80
 8002bd6:	f820 2023 	strh.w	r2, [r0, r3, lsl #2]
 8002bda:	f830 2023 	ldrh.w	r2, [r0, r3, lsl #2]
 8002bde:	f422 4280 	bic.w	r2, r2, #16384	; 0x4000
 8002be2:	f022 0270 	bic.w	r2, r2, #112	; 0x70
 8002be6:	e7dc      	b.n	8002ba2 <USB_DeactivateEndpoint+0x3a>
 8002be8:	2a00      	cmp	r2, #0
 8002bea:	d148      	bne.n	8002c7e <USB_DeactivateEndpoint+0x116>
 8002bec:	f830 2023 	ldrh.w	r2, [r0, r3, lsl #2]
 8002bf0:	0451      	lsls	r1, r2, #17
 8002bf2:	d50d      	bpl.n	8002c10 <USB_DeactivateEndpoint+0xa8>
 8002bf4:	f830 2023 	ldrh.w	r2, [r0, r3, lsl #2]
 8002bf8:	f422 42e0 	bic.w	r2, r2, #28672	; 0x7000
 8002bfc:	f022 0270 	bic.w	r2, r2, #112	; 0x70
 8002c00:	0412      	lsls	r2, r2, #16
 8002c02:	0c12      	lsrs	r2, r2, #16
 8002c04:	f442 4240 	orr.w	r2, r2, #49152	; 0xc000
 8002c08:	f042 0280 	orr.w	r2, r2, #128	; 0x80
 8002c0c:	f820 2023 	strh.w	r2, [r0, r3, lsl #2]
 8002c10:	f830 2023 	ldrh.w	r2, [r0, r3, lsl #2]
 8002c14:	0652      	lsls	r2, r2, #25
 8002c16:	d50d      	bpl.n	8002c34 <USB_DeactivateEndpoint+0xcc>
 8002c18:	f830 2023 	ldrh.w	r2, [r0, r3, lsl #2]
 8002c1c:	f422 42e0 	bic.w	r2, r2, #28672	; 0x7000
 8002c20:	f022 0270 	bic.w	r2, r2, #112	; 0x70
 8002c24:	0412      	lsls	r2, r2, #16
 8002c26:	0c12      	lsrs	r2, r2, #16
 8002c28:	f442 4200 	orr.w	r2, r2, #32768	; 0x8000
 8002c2c:	f042 02c0 	orr.w	r2, r2, #192	; 0xc0
 8002c30:	f820 2023 	strh.w	r2, [r0, r3, lsl #2]
 8002c34:	f248 0180 	movw	r1, #32896	; 0x8080
 8002c38:	f830 2023 	ldrh.w	r2, [r0, r3, lsl #2]
 8002c3c:	f422 42e0 	bic.w	r2, r2, #28672	; 0x7000
 8002c40:	f022 0270 	bic.w	r2, r2, #112	; 0x70
 8002c44:	0412      	lsls	r2, r2, #16
 8002c46:	0c12      	lsrs	r2, r2, #16
 8002c48:	f442 4200 	orr.w	r2, r2, #32768	; 0x8000
 8002c4c:	f042 02c0 	orr.w	r2, r2, #192	; 0xc0
 8002c50:	f820 2023 	strh.w	r2, [r0, r3, lsl #2]
 8002c54:	f830 2023 	ldrh.w	r2, [r0, r3, lsl #2]
 8002c58:	f422 4280 	bic.w	r2, r2, #16384	; 0x4000
 8002c5c:	f022 0270 	bic.w	r2, r2, #112	; 0x70
 8002c60:	0412      	lsls	r2, r2, #16
 8002c62:	0c12      	lsrs	r2, r2, #16
 8002c64:	430a      	orrs	r2, r1
 8002c66:	f820 2023 	strh.w	r2, [r0, r3, lsl #2]
 8002c6a:	f830 2023 	ldrh.w	r2, [r0, r3, lsl #2]
 8002c6e:	f422 42e0 	bic.w	r2, r2, #28672	; 0x7000
 8002c72:	f022 0240 	bic.w	r2, r2, #64	; 0x40
 8002c76:	0412      	lsls	r2, r2, #16
 8002c78:	0c12      	lsrs	r2, r2, #16
 8002c7a:	430a      	orrs	r2, r1
 8002c7c:	e797      	b.n	8002bae <USB_DeactivateEndpoint+0x46>
 8002c7e:	f830 2023 	ldrh.w	r2, [r0, r3, lsl #2]
 8002c82:	0451      	lsls	r1, r2, #17
 8002c84:	d50d      	bpl.n	8002ca2 <USB_DeactivateEndpoint+0x13a>
 8002c86:	f830 2023 	ldrh.w	r2, [r0, r3, lsl #2]
 8002c8a:	f422 42e0 	bic.w	r2, r2, #28672	; 0x7000
 8002c8e:	f022 0270 	bic.w	r2, r2, #112	; 0x70
 8002c92:	0412      	lsls	r2, r2, #16
 8002c94:	0c12      	lsrs	r2, r2, #16
 8002c96:	f442 4240 	orr.w	r2, r2, #49152	; 0xc000
 8002c9a:	f042 0280 	orr.w	r2, r2, #128	; 0x80
 8002c9e:	f820 2023 	strh.w	r2, [r0, r3, lsl #2]
 8002ca2:	f830 2023 	ldrh.w	r2, [r0, r3, lsl #2]
 8002ca6:	0652      	lsls	r2, r2, #25
 8002ca8:	d50d      	bpl.n	8002cc6 <USB_DeactivateEndpoint+0x15e>
 8002caa:	f830 2023 	ldrh.w	r2, [r0, r3, lsl #2]
 8002cae:	f422 42e0 	bic.w	r2, r2, #28672	; 0x7000
 8002cb2:	f022 0270 	bic.w	r2, r2, #112	; 0x70
 8002cb6:	0412      	lsls	r2, r2, #16
 8002cb8:	0c12      	lsrs	r2, r2, #16
 8002cba:	f442 4200 	orr.w	r2, r2, #32768	; 0x8000
 8002cbe:	f042 02c0 	orr.w	r2, r2, #192	; 0xc0
 8002cc2:	f820 2023 	strh.w	r2, [r0, r3, lsl #2]
 8002cc6:	f248 0180 	movw	r1, #32896	; 0x8080
 8002cca:	f830 2023 	ldrh.w	r2, [r0, r3, lsl #2]
 8002cce:	f422 42e0 	bic.w	r2, r2, #28672	; 0x7000
 8002cd2:	f022 0270 	bic.w	r2, r2, #112	; 0x70
 8002cd6:	0412      	lsls	r2, r2, #16
 8002cd8:	0c12      	lsrs	r2, r2, #16
 8002cda:	f442 4240 	orr.w	r2, r2, #49152	; 0xc000
 8002cde:	f042 0280 	orr.w	r2, r2, #128	; 0x80
 8002ce2:	f820 2023 	strh.w	r2, [r0, r3, lsl #2]
 8002ce6:	f830 2023 	ldrh.w	r2, [r0, r3, lsl #2]
 8002cea:	f422 42e0 	bic.w	r2, r2, #28672	; 0x7000
 8002cee:	f022 0240 	bic.w	r2, r2, #64	; 0x40
 8002cf2:	0412      	lsls	r2, r2, #16
 8002cf4:	0c12      	lsrs	r2, r2, #16
 8002cf6:	430a      	orrs	r2, r1
 8002cf8:	f820 2023 	strh.w	r2, [r0, r3, lsl #2]
 8002cfc:	f830 2023 	ldrh.w	r2, [r0, r3, lsl #2]
 8002d00:	f422 4280 	bic.w	r2, r2, #16384	; 0x4000
 8002d04:	f022 0270 	bic.w	r2, r2, #112	; 0x70
 8002d08:	e7b5      	b.n	8002c76 <USB_DeactivateEndpoint+0x10e>

08002d0a <USB_EPSetStall>:
 8002d0a:	784b      	ldrb	r3, [r1, #1]
 8002d0c:	780a      	ldrb	r2, [r1, #0]
 8002d0e:	b18b      	cbz	r3, 8002d34 <USB_EPSetStall+0x2a>
 8002d10:	f830 3022 	ldrh.w	r3, [r0, r2, lsl #2]
 8002d14:	f423 43e0 	bic.w	r3, r3, #28672	; 0x7000
 8002d18:	f023 0340 	bic.w	r3, r3, #64	; 0x40
 8002d1c:	041b      	lsls	r3, r3, #16
 8002d1e:	0c1b      	lsrs	r3, r3, #16
 8002d20:	f083 0310 	eor.w	r3, r3, #16
 8002d24:	f443 4300 	orr.w	r3, r3, #32768	; 0x8000
 8002d28:	f043 0380 	orr.w	r3, r3, #128	; 0x80
 8002d2c:	f820 3022 	strh.w	r3, [r0, r2, lsl #2]
 8002d30:	2000      	movs	r0, #0
 8002d32:	4770      	bx	lr
 8002d34:	f830 3022 	ldrh.w	r3, [r0, r2, lsl #2]
 8002d38:	f423 4380 	bic.w	r3, r3, #16384	; 0x4000
 8002d3c:	f023 0370 	bic.w	r3, r3, #112	; 0x70
 8002d40:	041b      	lsls	r3, r3, #16
 8002d42:	0c1b      	lsrs	r3, r3, #16
 8002d44:	f483 5380 	eor.w	r3, r3, #4096	; 0x1000
 8002d48:	e7ec      	b.n	8002d24 <USB_EPSetStall+0x1a>

08002d4a <USB_EPClearStall>:
 8002d4a:	7b0b      	ldrb	r3, [r1, #12]
 8002d4c:	bb3b      	cbnz	r3, 8002d9e <USB_EPClearStall+0x54>
 8002d4e:	784b      	ldrb	r3, [r1, #1]
 8002d50:	780a      	ldrb	r2, [r1, #0]
 8002d52:	b333      	cbz	r3, 8002da2 <USB_EPClearStall+0x58>
 8002d54:	f830 3022 	ldrh.w	r3, [r0, r2, lsl #2]
 8002d58:	065b      	lsls	r3, r3, #25
 8002d5a:	d50d      	bpl.n	8002d78 <USB_EPClearStall+0x2e>
 8002d5c:	f830 3022 	ldrh.w	r3, [r0, r2, lsl #2]
 8002d60:	f423 43e0 	bic.w	r3, r3, #28672	; 0x7000
 8002d64:	f023 0370 	bic.w	r3, r3, #112	; 0x70
 8002d68:	041b      	lsls	r3, r3, #16
 8002d6a:	0c1b      	lsrs	r3, r3, #16
 8002d6c:	f443 4300 	orr.w	r3, r3, #32768	; 0x8000
 8002d70:	f043 03c0 	orr.w	r3, r3, #192	; 0xc0
 8002d74:	f820 3022 	strh.w	r3, [r0, r2, lsl #2]
 8002d78:	78cb      	ldrb	r3, [r1, #3]
 8002d7a:	2b01      	cmp	r3, #1
 8002d7c:	d00f      	beq.n	8002d9e <USB_EPClearStall+0x54>
 8002d7e:	f830 3022 	ldrh.w	r3, [r0, r2, lsl #2]
 8002d82:	f423 43e0 	bic.w	r3, r3, #28672	; 0x7000
 8002d86:	f023 0340 	bic.w	r3, r3, #64	; 0x40
 8002d8a:	041b      	lsls	r3, r3, #16
 8002d8c:	0c1b      	lsrs	r3, r3, #16
 8002d8e:	f083 0320 	eor.w	r3, r3, #32
 8002d92:	f443 4300 	orr.w	r3, r3, #32768	; 0x8000
 8002d96:	f043 0380 	orr.w	r3, r3, #128	; 0x80
 8002d9a:	f820 3022 	strh.w	r3, [r0, r2, lsl #2]
 8002d9e:	2000      	movs	r0, #0
 8002da0:	4770      	bx	lr
 8002da2:	f830 3022 	ldrh.w	r3, [r0, r2, lsl #2]
 8002da6:	045b      	lsls	r3, r3, #17
 8002da8:	d50d      	bpl.n	8002dc6 <USB_EPClearStall+0x7c>
 8002daa:	f830 3022 	ldrh.w	r3, [r0, r2, lsl #2]
 8002dae:	f423 43e0 	bic.w	r3, r3, #28672	; 0x7000
 8002db2:	f023 0370 	bic.w	r3, r3, #112	; 0x70
 8002db6:	041b      	lsls	r3, r3, #16
 8002db8:	0c1b      	lsrs	r3, r3, #16
 8002dba:	f443 4340 	orr.w	r3, r3, #49152	; 0xc000
 8002dbe:	f043 0380 	orr.w	r3, r3, #128	; 0x80
 8002dc2:	f820 3022 	strh.w	r3, [r0, r2, lsl #2]
 8002dc6:	f830 3022 	ldrh.w	r3, [r0, r2, lsl #2]
 8002dca:	f423 4380 	bic.w	r3, r3, #16384	; 0x4000
 8002dce:	f023 0370 	bic.w	r3, r3, #112	; 0x70
 8002dd2:	041b      	lsls	r3, r3, #16
 8002dd4:	0c1b      	lsrs	r3, r3, #16
 8002dd6:	f483 5340 	eor.w	r3, r3, #12288	; 0x3000
 8002dda:	e7da      	b.n	8002d92 <USB_EPClearStall+0x48>

08002ddc <USB_SetDevAddress>:
 8002ddc:	b911      	cbnz	r1, 8002de4 <USB_SetDevAddress+0x8>
 8002dde:	2380      	movs	r3, #128	; 0x80
 8002de0:	f8a0 304c 	strh.w	r3, [r0, #76]	; 0x4c
 8002de4:	2000      	movs	r0, #0
 8002de6:	4770      	bx	lr

08002de8 <USB_DevConnect>:
 8002de8:	2000      	movs	r0, #0
 8002dea:	4770      	bx	lr

08002dec <USB_DevDisconnect>:
 8002dec:	2000      	movs	r0, #0
 8002dee:	4770      	bx	lr

08002df0 <USB_ReadInterrupts>:
 8002df0:	f8b0 0044 	ldrh.w	r0, [r0, #68]	; 0x44
 8002df4:	b280      	uxth	r0, r0
 8002df6:	4770      	bx	lr

08002df8 <USB_EP0_OutStart>:
 8002df8:	2000      	movs	r0, #0
 8002dfa:	4770      	bx	lr

08002dfc <USB_WritePMA>:
 8002dfc:	eb00 0242 	add.w	r2, r0, r2, lsl #1
 8002e00:	3301      	adds	r3, #1
 8002e02:	f502 6280 	add.w	r2, r2, #1024	; 0x400
 8002e06:	085b      	lsrs	r3, r3, #1
 8002e08:	eb02 0383 	add.w	r3, r2, r3, lsl #2
 8002e0c:	429a      	cmp	r2, r3
 8002e0e:	d100      	bne.n	8002e12 <USB_WritePMA+0x16>
 8002e10:	4770      	bx	lr
 8002e12:	f831 0b02 	ldrh.w	r0, [r1], #2
 8002e16:	f822 0b04 	strh.w	r0, [r2], #4
 8002e1a:	e7f7      	b.n	8002e0c <USB_WritePMA+0x10>

08002e1c <USB_EPStartXfer>:
 8002e1c:	b5f8      	push	{r3, r4, r5, r6, r7, lr}
 8002e1e:	460c      	mov	r4, r1
 8002e20:	7849      	ldrb	r1, [r1, #1]
 8002e22:	4605      	mov	r5, r0
 8002e24:	2901      	cmp	r1, #1
 8002e26:	7b22      	ldrb	r2, [r4, #12]
 8002e28:	f040 818e 	bne.w	8003148 <USB_EPStartXfer+0x32c>
 8002e2c:	f8d4 e010 	ldr.w	lr, [r4, #16]
 8002e30:	69a6      	ldr	r6, [r4, #24]
 8002e32:	6961      	ldr	r1, [r4, #20]
 8002e34:	4576      	cmp	r6, lr
 8002e36:	bf28      	it	cs
 8002e38:	4676      	movcs	r6, lr
 8002e3a:	bb02      	cbnz	r2, 8002e7e <USB_EPStartXfer+0x62>
 8002e3c:	b2b6      	uxth	r6, r6
 8002e3e:	88e2      	ldrh	r2, [r4, #6]
 8002e40:	4633      	mov	r3, r6
 8002e42:	f7ff ffdb 	bl	8002dfc <USB_WritePMA>
 8002e46:	f8b5 2050 	ldrh.w	r2, [r5, #80]	; 0x50
 8002e4a:	7821      	ldrb	r1, [r4, #0]
 8002e4c:	b290      	uxth	r0, r2
 8002e4e:	f205 4204 	addw	r2, r5, #1028	; 0x404
 8002e52:	0109      	lsls	r1, r1, #4
 8002e54:	4402      	add	r2, r0
 8002e56:	528e      	strh	r6, [r1, r2]
 8002e58:	7822      	ldrb	r2, [r4, #0]
 8002e5a:	f835 3022 	ldrh.w	r3, [r5, r2, lsl #2]
 8002e5e:	f423 43e0 	bic.w	r3, r3, #28672	; 0x7000
 8002e62:	f023 0340 	bic.w	r3, r3, #64	; 0x40
 8002e66:	041b      	lsls	r3, r3, #16
 8002e68:	0c1b      	lsrs	r3, r3, #16
 8002e6a:	f083 0330 	eor.w	r3, r3, #48	; 0x30
 8002e6e:	2000      	movs	r0, #0
 8002e70:	f443 4300 	orr.w	r3, r3, #32768	; 0x8000
 8002e74:	f043 0380 	orr.w	r3, r3, #128	; 0x80
 8002e78:	f825 3022 	strh.w	r3, [r5, r2, lsl #2]
 8002e7c:	bdf8      	pop	{r3, r4, r5, r6, r7, pc}
 8002e7e:	78e2      	ldrb	r2, [r4, #3]
 8002e80:	7827      	ldrb	r7, [r4, #0]
 8002e82:	2a02      	cmp	r2, #2
 8002e84:	6a23      	ldr	r3, [r4, #32]
 8002e86:	f830 2027 	ldrh.w	r2, [r0, r7, lsl #2]
 8002e8a:	ea4f 1c07 	mov.w	ip, r7, lsl #4
 8002e8e:	f040 80bb 	bne.w	8003008 <USB_EPStartXfer+0x1ec>
 8002e92:	459e      	cmp	lr, r3
 8002e94:	f080 809f 	bcs.w	8002fd6 <USB_EPStartXfer+0x1ba>
 8002e98:	f422 42e0 	bic.w	r2, r2, #28672	; 0x7000
 8002e9c:	f022 0270 	bic.w	r2, r2, #112	; 0x70
 8002ea0:	0412      	lsls	r2, r2, #16
 8002ea2:	0c12      	lsrs	r2, r2, #16
 8002ea4:	f442 4201 	orr.w	r2, r2, #33024	; 0x8100
 8002ea8:	f042 0280 	orr.w	r2, r2, #128	; 0x80
 8002eac:	f820 2027 	strh.w	r2, [r0, r7, lsl #2]
 8002eb0:	f830 7027 	ldrh.w	r7, [r0, r7, lsl #2]
 8002eb4:	1b9b      	subs	r3, r3, r6
 8002eb6:	f017 0740 	ands.w	r7, r7, #64	; 0x40
 8002eba:	6223      	str	r3, [r4, #32]
 8002ebc:	f8b0 2050 	ldrh.w	r2, [r0, #80]	; 0x50
 8002ec0:	b2b3      	uxth	r3, r6
 8002ec2:	d044      	beq.n	8002f4e <USB_EPStartXfer+0x132>
 8002ec4:	b297      	uxth	r7, r2
 8002ec6:	f200 420c 	addw	r2, r0, #1036	; 0x40c
 8002eca:	443a      	add	r2, r7
 8002ecc:	f822 300c 	strh.w	r3, [r2, ip]
 8002ed0:	8962      	ldrh	r2, [r4, #10]
 8002ed2:	f7ff ff93 	bl	8002dfc <USB_WritePMA>
 8002ed6:	6a22      	ldr	r2, [r4, #32]
 8002ed8:	6923      	ldr	r3, [r4, #16]
 8002eda:	6961      	ldr	r1, [r4, #20]
 8002edc:	429a      	cmp	r2, r3
 8002ede:	bf8a      	itet	hi
 8002ee0:	1b93      	subhi	r3, r2, r6
 8002ee2:	2300      	movls	r3, #0
 8002ee4:	4632      	movhi	r2, r6
 8002ee6:	7860      	ldrb	r0, [r4, #1]
 8002ee8:	4431      	add	r1, r6
 8002eea:	6223      	str	r3, [r4, #32]
 8002eec:	6161      	str	r1, [r4, #20]
 8002eee:	b293      	uxth	r3, r2
 8002ef0:	2800      	cmp	r0, #0
 8002ef2:	f040 80d7 	bne.w	80030a4 <USB_EPStartXfer+0x288>
 8002ef6:	f8b5 0050 	ldrh.w	r0, [r5, #80]	; 0x50
 8002efa:	7826      	ldrb	r6, [r4, #0]
 8002efc:	b280      	uxth	r0, r0
 8002efe:	f205 4704 	addw	r7, r5, #1028	; 0x404
 8002f02:	0136      	lsls	r6, r6, #4
 8002f04:	4438      	add	r0, r7
 8002f06:	b96a      	cbnz	r2, 8002f24 <USB_EPStartXfer+0x108>
 8002f08:	5a32      	ldrh	r2, [r6, r0]
 8002f0a:	f422 42f8 	bic.w	r2, r2, #31744	; 0x7c00
 8002f0e:	0412      	lsls	r2, r2, #16
 8002f10:	0c12      	lsrs	r2, r2, #16
 8002f12:	5232      	strh	r2, [r6, r0]
 8002f14:	5a32      	ldrh	r2, [r6, r0]
 8002f16:	ea6f 4242 	mvn.w	r2, r2, lsl #17
 8002f1a:	ea6f 4252 	mvn.w	r2, r2, lsr #17
 8002f1e:	b292      	uxth	r2, r2
 8002f20:	5232      	strh	r2, [r6, r0]
 8002f22:	e008      	b.n	8002f36 <USB_EPStartXfer+0x11a>
 8002f24:	2a3e      	cmp	r2, #62	; 0x3e
 8002f26:	d809      	bhi.n	8002f3c <USB_EPStartXfer+0x120>
 8002f28:	0857      	lsrs	r7, r2, #1
 8002f2a:	07d2      	lsls	r2, r2, #31
 8002f2c:	bf48      	it	mi
 8002f2e:	3701      	addmi	r7, #1
 8002f30:	02bf      	lsls	r7, r7, #10
 8002f32:	b2bf      	uxth	r7, r7
 8002f34:	5237      	strh	r7, [r6, r0]
 8002f36:	8922      	ldrh	r2, [r4, #8]
 8002f38:	4628      	mov	r0, r5
 8002f3a:	e062      	b.n	8003002 <USB_EPStartXfer+0x1e6>
 8002f3c:	0957      	lsrs	r7, r2, #5
 8002f3e:	06d2      	lsls	r2, r2, #27
 8002f40:	4a91      	ldr	r2, [pc, #580]	; (8003188 <USB_EPStartXfer+0x36c>)
 8002f42:	bf08      	it	eq
 8002f44:	f107 37ff 	addeq.w	r7, r7, #4294967295
 8002f48:	ea42 2287 	orr.w	r2, r2, r7, lsl #10
 8002f4c:	e7e7      	b.n	8002f1e <USB_EPStartXfer+0x102>
 8002f4e:	fa1f fe82 	uxth.w	lr, r2
 8002f52:	f200 4204 	addw	r2, r0, #1028	; 0x404
 8002f56:	4472      	add	r2, lr
 8002f58:	f822 300c 	strh.w	r3, [r2, ip]
 8002f5c:	8922      	ldrh	r2, [r4, #8]
 8002f5e:	f7ff ff4d 	bl	8002dfc <USB_WritePMA>
 8002f62:	6a22      	ldr	r2, [r4, #32]
 8002f64:	6923      	ldr	r3, [r4, #16]
 8002f66:	6961      	ldr	r1, [r4, #20]
 8002f68:	429a      	cmp	r2, r3
 8002f6a:	bf84      	itt	hi
 8002f6c:	1b97      	subhi	r7, r2, r6
 8002f6e:	4632      	movhi	r2, r6
 8002f70:	7860      	ldrb	r0, [r4, #1]
 8002f72:	4431      	add	r1, r6
 8002f74:	6161      	str	r1, [r4, #20]
 8002f76:	6227      	str	r7, [r4, #32]
 8002f78:	b293      	uxth	r3, r2
 8002f7a:	2800      	cmp	r0, #0
 8002f7c:	f040 80d7 	bne.w	800312e <USB_EPStartXfer+0x312>
 8002f80:	f8b5 0050 	ldrh.w	r0, [r5, #80]	; 0x50
 8002f84:	7826      	ldrb	r6, [r4, #0]
 8002f86:	b280      	uxth	r0, r0
 8002f88:	f205 470c 	addw	r7, r5, #1036	; 0x40c
 8002f8c:	0136      	lsls	r6, r6, #4
 8002f8e:	4438      	add	r0, r7
 8002f90:	b96a      	cbnz	r2, 8002fae <USB_EPStartXfer+0x192>
 8002f92:	5a32      	ldrh	r2, [r6, r0]
 8002f94:	f422 42f8 	bic.w	r2, r2, #31744	; 0x7c00
 8002f98:	0412      	lsls	r2, r2, #16
 8002f9a:	0c12      	lsrs	r2, r2, #16
 8002f9c:	5232      	strh	r2, [r6, r0]
 8002f9e:	5a32      	ldrh	r2, [r6, r0]
 8002fa0:	ea6f 4242 	mvn.w	r2, r2, lsl #17
 8002fa4:	ea6f 4252 	mvn.w	r2, r2, lsr #17
 8002fa8:	b292      	uxth	r2, r2
 8002faa:	5232      	strh	r2, [r6, r0]
 8002fac:	e008      	b.n	8002fc0 <USB_EPStartXfer+0x1a4>
 8002fae:	2a3e      	cmp	r2, #62	; 0x3e
 8002fb0:	d808      	bhi.n	8002fc4 <USB_EPStartXfer+0x1a8>
 8002fb2:	0857      	lsrs	r7, r2, #1
 8002fb4:	07d2      	lsls	r2, r2, #31
 8002fb6:	bf48      	it	mi
 8002fb8:	3701      	addmi	r7, #1
 8002fba:	02bf      	lsls	r7, r7, #10
 8002fbc:	b2bf      	uxth	r7, r7
 8002fbe:	5237      	strh	r7, [r6, r0]
 8002fc0:	8962      	ldrh	r2, [r4, #10]
 8002fc2:	e7b9      	b.n	8002f38 <USB_EPStartXfer+0x11c>
 8002fc4:	0957      	lsrs	r7, r2, #5
 8002fc6:	06d2      	lsls	r2, r2, #27
 8002fc8:	4a6f      	ldr	r2, [pc, #444]	; (8003188 <USB_EPStartXfer+0x36c>)
 8002fca:	bf08      	it	eq
 8002fcc:	f107 37ff 	addeq.w	r7, r7, #4294967295
 8002fd0:	ea42 2287 	orr.w	r2, r2, r7, lsl #10
 8002fd4:	e7e8      	b.n	8002fa8 <USB_EPStartXfer+0x18c>
 8002fd6:	f422 42e2 	bic.w	r2, r2, #28928	; 0x7100
 8002fda:	f022 0270 	bic.w	r2, r2, #112	; 0x70
 8002fde:	0412      	lsls	r2, r2, #16
 8002fe0:	0c12      	lsrs	r2, r2, #16
 8002fe2:	f442 4200 	orr.w	r2, r2, #32768	; 0x8000
 8002fe6:	f042 0280 	orr.w	r2, r2, #128	; 0x80
 8002fea:	f820 2027 	strh.w	r2, [r0, r7, lsl #2]
 8002fee:	f8b0 2050 	ldrh.w	r2, [r0, #80]	; 0x50
 8002ff2:	b29b      	uxth	r3, r3
 8002ff4:	b296      	uxth	r6, r2
 8002ff6:	f200 4204 	addw	r2, r0, #1028	; 0x404
 8002ffa:	4432      	add	r2, r6
 8002ffc:	f822 300c 	strh.w	r3, [r2, ip]
 8003000:	8922      	ldrh	r2, [r4, #8]
 8003002:	f7ff fefb 	bl	8002dfc <USB_WritePMA>
 8003006:	e727      	b.n	8002e58 <USB_EPStartXfer+0x3c>
 8003008:	f422 42e0 	bic.w	r2, r2, #28672	; 0x7000
 800300c:	f022 0270 	bic.w	r2, r2, #112	; 0x70
 8003010:	0412      	lsls	r2, r2, #16
 8003012:	0c12      	lsrs	r2, r2, #16
 8003014:	f442 4201 	orr.w	r2, r2, #33024	; 0x8100
 8003018:	f042 0280 	orr.w	r2, r2, #128	; 0x80
 800301c:	f820 2027 	strh.w	r2, [r0, r7, lsl #2]
 8003020:	f830 7027 	ldrh.w	r7, [r0, r7, lsl #2]
 8003024:	1b9b      	subs	r3, r3, r6
 8003026:	f017 0740 	ands.w	r7, r7, #64	; 0x40
 800302a:	6223      	str	r3, [r4, #32]
 800302c:	f8b0 2050 	ldrh.w	r2, [r0, #80]	; 0x50
 8003030:	b2b3      	uxth	r3, r6
 8003032:	d044      	beq.n	80030be <USB_EPStartXfer+0x2a2>
 8003034:	b297      	uxth	r7, r2
 8003036:	f200 420c 	addw	r2, r0, #1036	; 0x40c
 800303a:	443a      	add	r2, r7
 800303c:	f822 300c 	strh.w	r3, [r2, ip]
 8003040:	8962      	ldrh	r2, [r4, #10]
 8003042:	f7ff fedb 	bl	8002dfc <USB_WritePMA>
 8003046:	6a22      	ldr	r2, [r4, #32]
 8003048:	6923      	ldr	r3, [r4, #16]
 800304a:	6961      	ldr	r1, [r4, #20]
 800304c:	429a      	cmp	r2, r3
 800304e:	bf8a      	itet	hi
 8003050:	1b93      	subhi	r3, r2, r6
 8003052:	2300      	movls	r3, #0
 8003054:	4632      	movhi	r2, r6
 8003056:	4431      	add	r1, r6
 8003058:	6161      	str	r1, [r4, #20]
 800305a:	6223      	str	r3, [r4, #32]
 800305c:	2a00      	cmp	r2, #0
 800305e:	f43f aefb 	beq.w	8002e58 <USB_EPStartXfer+0x3c>
 8003062:	7860      	ldrb	r0, [r4, #1]
 8003064:	b293      	uxth	r3, r2
 8003066:	b9e8      	cbnz	r0, 80030a4 <USB_EPStartXfer+0x288>
 8003068:	f8b5 6050 	ldrh.w	r6, [r5, #80]	; 0x50
 800306c:	7827      	ldrb	r7, [r4, #0]
 800306e:	b2b0      	uxth	r0, r6
 8003070:	2a3e      	cmp	r2, #62	; 0x3e
 8003072:	f205 4604 	addw	r6, r5, #1028	; 0x404
 8003076:	ea4f 1707 	mov.w	r7, r7, lsl #4
 800307a:	4406      	add	r6, r0
 800307c:	d807      	bhi.n	800308e <USB_EPStartXfer+0x272>
 800307e:	0850      	lsrs	r0, r2, #1
 8003080:	07d2      	lsls	r2, r2, #31
 8003082:	bf48      	it	mi
 8003084:	3001      	addmi	r0, #1
 8003086:	0280      	lsls	r0, r0, #10
 8003088:	b280      	uxth	r0, r0
 800308a:	53b8      	strh	r0, [r7, r6]
 800308c:	e753      	b.n	8002f36 <USB_EPStartXfer+0x11a>
 800308e:	0950      	lsrs	r0, r2, #5
 8003090:	06d2      	lsls	r2, r2, #27
 8003092:	4a3d      	ldr	r2, [pc, #244]	; (8003188 <USB_EPStartXfer+0x36c>)
 8003094:	bf08      	it	eq
 8003096:	f100 30ff 	addeq.w	r0, r0, #4294967295
 800309a:	ea42 2280 	orr.w	r2, r2, r0, lsl #10
 800309e:	b292      	uxth	r2, r2
 80030a0:	53ba      	strh	r2, [r7, r6]
 80030a2:	e748      	b.n	8002f36 <USB_EPStartXfer+0x11a>
 80030a4:	2801      	cmp	r0, #1
 80030a6:	f47f af46 	bne.w	8002f36 <USB_EPStartXfer+0x11a>
 80030aa:	f8b5 2050 	ldrh.w	r2, [r5, #80]	; 0x50
 80030ae:	7820      	ldrb	r0, [r4, #0]
 80030b0:	b296      	uxth	r6, r2
 80030b2:	f205 4204 	addw	r2, r5, #1028	; 0x404
 80030b6:	0100      	lsls	r0, r0, #4
 80030b8:	4432      	add	r2, r6
 80030ba:	5283      	strh	r3, [r0, r2]
 80030bc:	e73b      	b.n	8002f36 <USB_EPStartXfer+0x11a>
 80030be:	fa1f fe82 	uxth.w	lr, r2
 80030c2:	f200 4204 	addw	r2, r0, #1028	; 0x404
 80030c6:	4472      	add	r2, lr
 80030c8:	f822 300c 	strh.w	r3, [r2, ip]
 80030cc:	8922      	ldrh	r2, [r4, #8]
 80030ce:	f7ff fe95 	bl	8002dfc <USB_WritePMA>
 80030d2:	6a22      	ldr	r2, [r4, #32]
 80030d4:	6923      	ldr	r3, [r4, #16]
 80030d6:	6961      	ldr	r1, [r4, #20]
 80030d8:	429a      	cmp	r2, r3
 80030da:	bf84      	itt	hi
 80030dc:	1b97      	subhi	r7, r2, r6
 80030de:	4632      	movhi	r2, r6
 80030e0:	4431      	add	r1, r6
 80030e2:	6161      	str	r1, [r4, #20]
 80030e4:	6227      	str	r7, [r4, #32]
 80030e6:	2a00      	cmp	r2, #0
 80030e8:	f43f aeb6 	beq.w	8002e58 <USB_EPStartXfer+0x3c>
 80030ec:	7860      	ldrb	r0, [r4, #1]
 80030ee:	b293      	uxth	r3, r2
 80030f0:	b9e8      	cbnz	r0, 800312e <USB_EPStartXfer+0x312>
 80030f2:	f8b5 6050 	ldrh.w	r6, [r5, #80]	; 0x50
 80030f6:	7827      	ldrb	r7, [r4, #0]
 80030f8:	b2b0      	uxth	r0, r6
 80030fa:	2a3e      	cmp	r2, #62	; 0x3e
 80030fc:	f205 460c 	addw	r6, r5, #1036	; 0x40c
 8003100:	ea4f 1707 	mov.w	r7, r7, lsl #4
 8003104:	4406      	add	r6, r0
 8003106:	d807      	bhi.n	8003118 <USB_EPStartXfer+0x2fc>
 8003108:	0850      	lsrs	r0, r2, #1
 800310a:	07d2      	lsls	r2, r2, #31
 800310c:	bf48      	it	mi
 800310e:	3001      	addmi	r0, #1
 8003110:	0280      	lsls	r0, r0, #10
 8003112:	b280      	uxth	r0, r0
 8003114:	53b8      	strh	r0, [r7, r6]
 8003116:	e753      	b.n	8002fc0 <USB_EPStartXfer+0x1a4>
 8003118:	0950      	lsrs	r0, r2, #5
 800311a:	06d2      	lsls	r2, r2, #27
 800311c:	4a1a      	ldr	r2, [pc, #104]	; (8003188 <USB_EPStartXfer+0x36c>)
 800311e:	bf08      	it	eq
 8003120:	f100 30ff 	addeq.w	r0, r0, #4294967295
 8003124:	ea42 2280 	orr.w	r2, r2, r0, lsl #10
 8003128:	b292      	uxth	r2, r2
 800312a:	53ba      	strh	r2, [r7, r6]
 800312c:	e748      	b.n	8002fc0 <USB_EPStartXfer+0x1a4>
 800312e:	2801      	cmp	r0, #1
 8003130:	f47f af46 	bne.w	8002fc0 <USB_EPStartXfer+0x1a4>
 8003134:	f8b5 2050 	ldrh.w	r2, [r5, #80]	; 0x50
 8003138:	7820      	ldrb	r0, [r4, #0]
 800313a:	b296      	uxth	r6, r2
 800313c:	f205 420c 	addw	r2, r5, #1036	; 0x40c
 8003140:	0100      	lsls	r0, r0, #4
 8003142:	4432      	add	r2, r6
 8003144:	5283      	strh	r3, [r0, r2]
 8003146:	e73b      	b.n	8002fc0 <USB_EPStartXfer+0x1a4>
 8003148:	bb02      	cbnz	r2, 800318c <USB_EPStartXfer+0x370>
 800314a:	69a3      	ldr	r3, [r4, #24]
 800314c:	6921      	ldr	r1, [r4, #16]
 800314e:	428b      	cmp	r3, r1
 8003150:	bf88      	it	hi
 8003152:	1a5a      	subhi	r2, r3, r1
 8003154:	61a2      	str	r2, [r4, #24]
 8003156:	f8b0 2050 	ldrh.w	r2, [r0, #80]	; 0x50
 800315a:	bf88      	it	hi
 800315c:	460b      	movhi	r3, r1
 800315e:	7821      	ldrb	r1, [r4, #0]
 8003160:	b292      	uxth	r2, r2
 8003162:	f200 400c 	addw	r0, r0, #1036	; 0x40c
 8003166:	0109      	lsls	r1, r1, #4
 8003168:	4402      	add	r2, r0
 800316a:	2b00      	cmp	r3, #0
 800316c:	f000 80c8 	beq.w	8003300 <USB_EPStartXfer+0x4e4>
 8003170:	2b3e      	cmp	r3, #62	; 0x3e
 8003172:	f200 80d3 	bhi.w	800331c <USB_EPStartXfer+0x500>
 8003176:	0858      	lsrs	r0, r3, #1
 8003178:	07de      	lsls	r6, r3, #31
 800317a:	bf48      	it	mi
 800317c:	3001      	addmi	r0, #1
 800317e:	0280      	lsls	r0, r0, #10
 8003180:	b280      	uxth	r0, r0
 8003182:	5250      	strh	r0, [r2, r1]
 8003184:	e04b      	b.n	800321e <USB_EPStartXfer+0x402>
 8003186:	bf00      	nop
 8003188:	ffff8000 	.word	0xffff8000
 800318c:	78e3      	ldrb	r3, [r4, #3]
 800318e:	2b02      	cmp	r3, #2
 8003190:	d179      	bne.n	8003286 <USB_EPStartXfer+0x46a>
 8003192:	bb51      	cbnz	r1, 80031ea <USB_EPStartXfer+0x3ce>
 8003194:	f8b0 2050 	ldrh.w	r2, [r0, #80]	; 0x50
 8003198:	7821      	ldrb	r1, [r4, #0]
 800319a:	b293      	uxth	r3, r2
 800319c:	f200 4204 	addw	r2, r0, #1028	; 0x404
 80031a0:	441a      	add	r2, r3
 80031a2:	6923      	ldr	r3, [r4, #16]
 80031a4:	0109      	lsls	r1, r1, #4
 80031a6:	2b00      	cmp	r3, #0
 80031a8:	d145      	bne.n	8003236 <USB_EPStartXfer+0x41a>
 80031aa:	5a88      	ldrh	r0, [r1, r2]
 80031ac:	f420 40f8 	bic.w	r0, r0, #31744	; 0x7c00
 80031b0:	0400      	lsls	r0, r0, #16
 80031b2:	0c00      	lsrs	r0, r0, #16
 80031b4:	5288      	strh	r0, [r1, r2]
 80031b6:	5a88      	ldrh	r0, [r1, r2]
 80031b8:	ea6f 4040 	mvn.w	r0, r0, lsl #17
 80031bc:	ea6f 4050 	mvn.w	r0, r0, lsr #17
 80031c0:	b280      	uxth	r0, r0
 80031c2:	5288      	strh	r0, [r1, r2]
 80031c4:	f8b5 1050 	ldrh.w	r1, [r5, #80]	; 0x50
 80031c8:	7822      	ldrb	r2, [r4, #0]
 80031ca:	b289      	uxth	r1, r1
 80031cc:	f205 400c 	addw	r0, r5, #1036	; 0x40c
 80031d0:	0112      	lsls	r2, r2, #4
 80031d2:	4401      	add	r1, r0
 80031d4:	2b00      	cmp	r3, #0
 80031d6:	d03f      	beq.n	8003258 <USB_EPStartXfer+0x43c>
 80031d8:	2b3e      	cmp	r3, #62	; 0x3e
 80031da:	d84b      	bhi.n	8003274 <USB_EPStartXfer+0x458>
 80031dc:	0858      	lsrs	r0, r3, #1
 80031de:	07db      	lsls	r3, r3, #31
 80031e0:	bf48      	it	mi
 80031e2:	3001      	addmi	r0, #1
 80031e4:	0280      	lsls	r0, r0, #10
 80031e6:	b280      	uxth	r0, r0
 80031e8:	5250      	strh	r0, [r2, r1]
 80031ea:	69e3      	ldr	r3, [r4, #28]
 80031ec:	b1bb      	cbz	r3, 800321e <USB_EPStartXfer+0x402>
 80031ee:	f244 0340 	movw	r3, #16448	; 0x4040
 80031f2:	7822      	ldrb	r2, [r4, #0]
 80031f4:	f835 1022 	ldrh.w	r1, [r5, r2, lsl #2]
 80031f8:	ea03 0001 	and.w	r0, r3, r1
 80031fc:	438b      	bics	r3, r1
 80031fe:	d000      	beq.n	8003202 <USB_EPStartXfer+0x3e6>
 8003200:	b968      	cbnz	r0, 800321e <USB_EPStartXfer+0x402>
 8003202:	f835 3022 	ldrh.w	r3, [r5, r2, lsl #2]
 8003206:	f423 43e0 	bic.w	r3, r3, #28672	; 0x7000
 800320a:	f023 0370 	bic.w	r3, r3, #112	; 0x70
 800320e:	041b      	lsls	r3, r3, #16
 8003210:	0c1b      	lsrs	r3, r3, #16
 8003212:	f443 4300 	orr.w	r3, r3, #32768	; 0x8000
 8003216:	f043 03c0 	orr.w	r3, r3, #192	; 0xc0
 800321a:	f825 3022 	strh.w	r3, [r5, r2, lsl #2]
 800321e:	7822      	ldrb	r2, [r4, #0]
 8003220:	f835 3022 	ldrh.w	r3, [r5, r2, lsl #2]
 8003224:	f423 4380 	bic.w	r3, r3, #16384	; 0x4000
 8003228:	f023 0370 	bic.w	r3, r3, #112	; 0x70
 800322c:	041b      	lsls	r3, r3, #16
 800322e:	0c1b      	lsrs	r3, r3, #16
 8003230:	f483 5340 	eor.w	r3, r3, #12288	; 0x3000
 8003234:	e61b      	b.n	8002e6e <USB_EPStartXfer+0x52>
 8003236:	2b3e      	cmp	r3, #62	; 0x3e
 8003238:	d805      	bhi.n	8003246 <USB_EPStartXfer+0x42a>
 800323a:	0858      	lsrs	r0, r3, #1
 800323c:	07de      	lsls	r6, r3, #31
 800323e:	bf48      	it	mi
 8003240:	3001      	addmi	r0, #1
 8003242:	0280      	lsls	r0, r0, #10
 8003244:	e7bc      	b.n	80031c0 <USB_EPStartXfer+0x3a4>
 8003246:	095e      	lsrs	r6, r3, #5
 8003248:	06d8      	lsls	r0, r3, #27
 800324a:	483a      	ldr	r0, [pc, #232]	; (8003334 <USB_EPStartXfer+0x518>)
 800324c:	bf08      	it	eq
 800324e:	f106 36ff 	addeq.w	r6, r6, #4294967295
 8003252:	ea40 2086 	orr.w	r0, r0, r6, lsl #10
 8003256:	e7b3      	b.n	80031c0 <USB_EPStartXfer+0x3a4>
 8003258:	5a53      	ldrh	r3, [r2, r1]
 800325a:	f423 43f8 	bic.w	r3, r3, #31744	; 0x7c00
 800325e:	041b      	lsls	r3, r3, #16
 8003260:	0c1b      	lsrs	r3, r3, #16
 8003262:	5253      	strh	r3, [r2, r1]
 8003264:	5a53      	ldrh	r3, [r2, r1]
 8003266:	ea6f 4343 	mvn.w	r3, r3, lsl #17
 800326a:	ea6f 4353 	mvn.w	r3, r3, lsr #17
 800326e:	b29b      	uxth	r3, r3
 8003270:	5253      	strh	r3, [r2, r1]
 8003272:	e7ba      	b.n	80031ea <USB_EPStartXfer+0x3ce>
 8003274:	0958      	lsrs	r0, r3, #5
 8003276:	06df      	lsls	r7, r3, #27
 8003278:	4b2e      	ldr	r3, [pc, #184]	; (8003334 <USB_EPStartXfer+0x518>)
 800327a:	bf08      	it	eq
 800327c:	f100 30ff 	addeq.w	r0, r0, #4294967295
 8003280:	ea43 2380 	orr.w	r3, r3, r0, lsl #10
 8003284:	e7f3      	b.n	800326e <USB_EPStartXfer+0x452>
 8003286:	2b01      	cmp	r3, #1
 8003288:	d151      	bne.n	800332e <USB_EPStartXfer+0x512>
 800328a:	69a3      	ldr	r3, [r4, #24]
 800328c:	6922      	ldr	r2, [r4, #16]
 800328e:	4293      	cmp	r3, r2
 8003290:	bf94      	ite	ls
 8003292:	2000      	movls	r0, #0
 8003294:	1a98      	subhi	r0, r3, r2
 8003296:	61a0      	str	r0, [r4, #24]
 8003298:	bf88      	it	hi
 800329a:	4613      	movhi	r3, r2
 800329c:	2900      	cmp	r1, #0
 800329e:	d1be      	bne.n	800321e <USB_EPStartXfer+0x402>
 80032a0:	f8b5 2050 	ldrh.w	r2, [r5, #80]	; 0x50
 80032a4:	7821      	ldrb	r1, [r4, #0]
 80032a6:	b292      	uxth	r2, r2
 80032a8:	f205 4004 	addw	r0, r5, #1028	; 0x404
 80032ac:	0109      	lsls	r1, r1, #4
 80032ae:	4402      	add	r2, r0
 80032b0:	b9ab      	cbnz	r3, 80032de <USB_EPStartXfer+0x4c2>
 80032b2:	5a88      	ldrh	r0, [r1, r2]
 80032b4:	f420 40f8 	bic.w	r0, r0, #31744	; 0x7c00
 80032b8:	0400      	lsls	r0, r0, #16
 80032ba:	0c00      	lsrs	r0, r0, #16
 80032bc:	5288      	strh	r0, [r1, r2]
 80032be:	5a88      	ldrh	r0, [r1, r2]
 80032c0:	ea6f 4040 	mvn.w	r0, r0, lsl #17
 80032c4:	ea6f 4050 	mvn.w	r0, r0, lsr #17
 80032c8:	b280      	uxth	r0, r0
 80032ca:	5288      	strh	r0, [r1, r2]
 80032cc:	f8b5 1050 	ldrh.w	r1, [r5, #80]	; 0x50
 80032d0:	7822      	ldrb	r2, [r4, #0]
 80032d2:	b289      	uxth	r1, r1
 80032d4:	f205 400c 	addw	r0, r5, #1036	; 0x40c
 80032d8:	0112      	lsls	r2, r2, #4
 80032da:	4401      	add	r1, r0
 80032dc:	e745      	b.n	800316a <USB_EPStartXfer+0x34e>
 80032de:	2b3e      	cmp	r3, #62	; 0x3e
 80032e0:	d805      	bhi.n	80032ee <USB_EPStartXfer+0x4d2>
 80032e2:	0858      	lsrs	r0, r3, #1
 80032e4:	07de      	lsls	r6, r3, #31
 80032e6:	bf48      	it	mi
 80032e8:	3001      	addmi	r0, #1
 80032ea:	0280      	lsls	r0, r0, #10
 80032ec:	e7ec      	b.n	80032c8 <USB_EPStartXfer+0x4ac>
 80032ee:	095e      	lsrs	r6, r3, #5
 80032f0:	4810      	ldr	r0, [pc, #64]	; (8003334 <USB_EPStartXfer+0x518>)
 80032f2:	06df      	lsls	r7, r3, #27
 80032f4:	bf08      	it	eq
 80032f6:	f106 36ff 	addeq.w	r6, r6, #4294967295
 80032fa:	ea40 2086 	orr.w	r0, r0, r6, lsl #10
 80032fe:	e7e3      	b.n	80032c8 <USB_EPStartXfer+0x4ac>
 8003300:	5a53      	ldrh	r3, [r2, r1]
 8003302:	f423 43f8 	bic.w	r3, r3, #31744	; 0x7c00
 8003306:	041b      	lsls	r3, r3, #16
 8003308:	0c1b      	lsrs	r3, r3, #16
 800330a:	5253      	strh	r3, [r2, r1]
 800330c:	5a53      	ldrh	r3, [r2, r1]
 800330e:	ea6f 4343 	mvn.w	r3, r3, lsl #17
 8003312:	ea6f 4353 	mvn.w	r3, r3, lsr #17
 8003316:	b29b      	uxth	r3, r3
 8003318:	5253      	strh	r3, [r2, r1]
 800331a:	e780      	b.n	800321e <USB_EPStartXfer+0x402>
 800331c:	0958      	lsrs	r0, r3, #5
 800331e:	06db      	lsls	r3, r3, #27
 8003320:	4b04      	ldr	r3, [pc, #16]	; (8003334 <USB_EPStartXfer+0x518>)
 8003322:	bf08      	it	eq
 8003324:	f100 30ff 	addeq.w	r0, r0, #4294967295
 8003328:	ea43 2380 	orr.w	r3, r3, r0, lsl #10
 800332c:	e7f3      	b.n	8003316 <USB_EPStartXfer+0x4fa>
 800332e:	2001      	movs	r0, #1
 8003330:	e5a4      	b.n	8002e7c <USB_EPStartXfer+0x60>
 8003332:	bf00      	nop
 8003334:	ffff8000 	.word	0xffff8000

08003338 <USB_ReadPMA>:
 8003338:	eb00 0242 	add.w	r2, r0, r2, lsl #1
 800333c:	b5f0      	push	{r4, r5, r6, r7, lr}
 800333e:	f502 6280 	add.w	r2, r2, #1024	; 0x400
 8003342:	085d      	lsrs	r5, r3, #1
 8003344:	460c      	mov	r4, r1
 8003346:	4617      	mov	r7, r2
 8003348:	462e      	mov	r6, r5
 800334a:	3402      	adds	r4, #2
 800334c:	b936      	cbnz	r6, 800335c <USB_ReadPMA+0x24>
 800334e:	07db      	lsls	r3, r3, #31
 8003350:	bf44      	itt	mi
 8003352:	f832 3025 	ldrhmi.w	r3, [r2, r5, lsl #2]
 8003356:	f801 3015 	strbmi.w	r3, [r1, r5, lsl #1]
 800335a:	bdf0      	pop	{r4, r5, r6, r7, pc}
 800335c:	f837 0b04 	ldrh.w	r0, [r7], #4
 8003360:	3e01      	subs	r6, #1
 8003362:	b280      	uxth	r0, r0
 8003364:	f804 0c02 	strb.w	r0, [r4, #-2]
 8003368:	0a00      	lsrs	r0, r0, #8
 800336a:	f804 0c01 	strb.w	r0, [r4, #-1]
 800336e:	e7ec      	b.n	800334a <USB_ReadPMA+0x12>

08003370 <USBD_CDC_EP0_RxReady>:
 8003370:	f8d0 32bc 	ldr.w	r3, [r0, #700]	; 0x2bc
 8003374:	b510      	push	{r4, lr}
 8003376:	b16b      	cbz	r3, 8003394 <USBD_CDC_EP0_RxReady+0x24>
 8003378:	f8d0 42b8 	ldr.w	r4, [r0, #696]	; 0x2b8
 800337c:	f894 0200 	ldrb.w	r0, [r4, #512]	; 0x200
 8003380:	28ff      	cmp	r0, #255	; 0xff
 8003382:	d007      	beq.n	8003394 <USBD_CDC_EP0_RxReady+0x24>
 8003384:	689b      	ldr	r3, [r3, #8]
 8003386:	4621      	mov	r1, r4
 8003388:	f894 2201 	ldrb.w	r2, [r4, #513]	; 0x201
 800338c:	4798      	blx	r3
 800338e:	23ff      	movs	r3, #255	; 0xff
 8003390:	f884 3200 	strb.w	r3, [r4, #512]	; 0x200
 8003394:	2000      	movs	r0, #0
 8003396:	bd10      	pop	{r4, pc}

08003398 <USBD_CDC_GetFSCfgDesc>:
 8003398:	2343      	movs	r3, #67	; 0x43
 800339a:	8003      	strh	r3, [r0, #0]
 800339c:	4800      	ldr	r0, [pc, #0]	; (80033a0 <USBD_CDC_GetFSCfgDesc+0x8>)
 800339e:	4770      	bx	lr
 80033a0:	20000044 	.word	0x20000044

080033a4 <USBD_CDC_GetHSCfgDesc>:
 80033a4:	2343      	movs	r3, #67	; 0x43
 80033a6:	8003      	strh	r3, [r0, #0]
 80033a8:	4800      	ldr	r0, [pc, #0]	; (80033ac <USBD_CDC_GetHSCfgDesc+0x8>)
 80033aa:	4770      	bx	lr
 80033ac:	20000088 	.word	0x20000088

080033b0 <USBD_CDC_GetOtherSpeedCfgDesc>:
 80033b0:	2343      	movs	r3, #67	; 0x43
 80033b2:	8003      	strh	r3, [r0, #0]
 80033b4:	4800      	ldr	r0, [pc, #0]	; (80033b8 <USBD_CDC_GetOtherSpeedCfgDesc+0x8>)
 80033b6:	4770      	bx	lr
 80033b8:	200000d8 	.word	0x200000d8

080033bc <USBD_CDC_GetDeviceQualifierDescriptor>:
 80033bc:	230a      	movs	r3, #10
 80033be:	8003      	strh	r3, [r0, #0]
 80033c0:	4800      	ldr	r0, [pc, #0]	; (80033c4 <USBD_CDC_GetDeviceQualifierDescriptor+0x8>)
 80033c2:	4770      	bx	lr
 80033c4:	200000cc 	.word	0x200000cc

080033c8 <USBD_CDC_DataOut>:
 80033c8:	b538      	push	{r3, r4, r5, lr}
 80033ca:	4604      	mov	r4, r0
 80033cc:	f8d0 52b8 	ldr.w	r5, [r0, #696]	; 0x2b8
 80033d0:	f002 fb71 	bl	8005ab6 <USBD_LL_GetRxDataSize>
 80033d4:	f8d4 32b8 	ldr.w	r3, [r4, #696]	; 0x2b8
 80033d8:	f8c5 020c 	str.w	r0, [r5, #524]	; 0x20c
 80033dc:	b14b      	cbz	r3, 80033f2 <USBD_CDC_DataOut+0x2a>
 80033de:	f8d4 32bc 	ldr.w	r3, [r4, #700]	; 0x2bc
 80033e2:	f8d5 0204 	ldr.w	r0, [r5, #516]	; 0x204
 80033e6:	68db      	ldr	r3, [r3, #12]
 80033e8:	f505 7103 	add.w	r1, r5, #524	; 0x20c
 80033ec:	4798      	blx	r3
 80033ee:	2000      	movs	r0, #0
 80033f0:	bd38      	pop	{r3, r4, r5, pc}
 80033f2:	2002      	movs	r0, #2
 80033f4:	e7fc      	b.n	80033f0 <USBD_CDC_DataOut+0x28>

080033f6 <USBD_CDC_DataIn>:
 80033f6:	b5f8      	push	{r3, r4, r5, r6, r7, lr}
 80033f8:	f8d0 62b8 	ldr.w	r6, [r0, #696]	; 0x2b8
 80033fc:	b1d6      	cbz	r6, 8003434 <USBD_CDC_DataIn+0x3e>
 80033fe:	2214      	movs	r2, #20
 8003400:	fb02 0201 	mla	r2, r2, r1, r0
 8003404:	69d4      	ldr	r4, [r2, #28]
 8003406:	b18c      	cbz	r4, 800342c <USBD_CDC_DataIn+0x36>
 8003408:	2728      	movs	r7, #40	; 0x28
 800340a:	f8d0 32c0 	ldr.w	r3, [r0, #704]	; 0x2c0
 800340e:	fb07 3501 	mla	r5, r7, r1, r3
 8003412:	6bab      	ldr	r3, [r5, #56]	; 0x38
 8003414:	fbb4 f5f3 	udiv	r5, r4, r3
 8003418:	fb03 4415 	mls	r4, r3, r5, r4
 800341c:	b934      	cbnz	r4, 800342c <USBD_CDC_DataIn+0x36>
 800341e:	61d4      	str	r4, [r2, #28]
 8003420:	4623      	mov	r3, r4
 8003422:	4622      	mov	r2, r4
 8003424:	f002 fb35 	bl	8005a92 <USBD_LL_Transmit>
 8003428:	4620      	mov	r0, r4
 800342a:	bdf8      	pop	{r3, r4, r5, r6, r7, pc}
 800342c:	2000      	movs	r0, #0
 800342e:	f8c6 0214 	str.w	r0, [r6, #532]	; 0x214
 8003432:	e7fa      	b.n	800342a <USBD_CDC_DataIn+0x34>
 8003434:	2002      	movs	r0, #2
 8003436:	e7f8      	b.n	800342a <USBD_CDC_DataIn+0x34>

08003438 <USBD_CDC_Setup>:
 8003438:	e92d 43f7 	stmdb	sp!, {r0, r1, r2, r4, r5, r6, r7, r8, r9, lr}
 800343c:	f04f 0800 	mov.w	r8, #0
 8003440:	780a      	ldrb	r2, [r1, #0]
 8003442:	4605      	mov	r5, r0
 8003444:	f012 0460 	ands.w	r4, r2, #96	; 0x60
 8003448:	460e      	mov	r6, r1
 800344a:	f8d0 72b8 	ldr.w	r7, [r0, #696]	; 0x2b8
 800344e:	f88d 8005 	strb.w	r8, [sp, #5]
 8003452:	f8ad 8006 	strh.w	r8, [sp, #6]
 8003456:	d028      	beq.n	80034aa <USBD_CDC_Setup+0x72>
 8003458:	2c20      	cmp	r4, #32
 800345a:	d142      	bne.n	80034e2 <USBD_CDC_Setup+0xaa>
 800345c:	88cc      	ldrh	r4, [r1, #6]
 800345e:	784b      	ldrb	r3, [r1, #1]
 8003460:	b1e4      	cbz	r4, 800349c <USBD_CDC_Setup+0x64>
 8003462:	0612      	lsls	r2, r2, #24
 8003464:	d511      	bpl.n	800348a <USBD_CDC_Setup+0x52>
 8003466:	f8d0 22bc 	ldr.w	r2, [r0, #700]	; 0x2bc
 800346a:	4639      	mov	r1, r7
 800346c:	f8d2 9008 	ldr.w	r9, [r2, #8]
 8003470:	4618      	mov	r0, r3
 8003472:	4622      	mov	r2, r4
 8003474:	47c8      	blx	r9
 8003476:	4639      	mov	r1, r7
 8003478:	4628      	mov	r0, r5
 800347a:	88f2      	ldrh	r2, [r6, #6]
 800347c:	f000 fc4b 	bl	8003d16 <USBD_CtlSendData>
 8003480:	4644      	mov	r4, r8
 8003482:	4620      	mov	r0, r4
 8003484:	b003      	add	sp, #12
 8003486:	e8bd 83f0 	ldmia.w	sp!, {r4, r5, r6, r7, r8, r9, pc}
 800348a:	4622      	mov	r2, r4
 800348c:	4639      	mov	r1, r7
 800348e:	f887 3200 	strb.w	r3, [r7, #512]	; 0x200
 8003492:	f887 4201 	strb.w	r4, [r7, #513]	; 0x201
 8003496:	f000 fc53 	bl	8003d40 <USBD_CtlPrepareRx>
 800349a:	e7f1      	b.n	8003480 <USBD_CDC_Setup+0x48>
 800349c:	f8d0 22bc 	ldr.w	r2, [r0, #700]	; 0x2bc
 80034a0:	4618      	mov	r0, r3
 80034a2:	6895      	ldr	r5, [r2, #8]
 80034a4:	4622      	mov	r2, r4
 80034a6:	47a8      	blx	r5
 80034a8:	e7eb      	b.n	8003482 <USBD_CDC_Setup+0x4a>
 80034aa:	784b      	ldrb	r3, [r1, #1]
 80034ac:	2b0a      	cmp	r3, #10
 80034ae:	d00c      	beq.n	80034ca <USBD_CDC_Setup+0x92>
 80034b0:	2b0b      	cmp	r3, #11
 80034b2:	d012      	beq.n	80034da <USBD_CDC_Setup+0xa2>
 80034b4:	b9ab      	cbnz	r3, 80034e2 <USBD_CDC_Setup+0xaa>
 80034b6:	f890 329c 	ldrb.w	r3, [r0, #668]	; 0x29c
 80034ba:	2b03      	cmp	r3, #3
 80034bc:	d111      	bne.n	80034e2 <USBD_CDC_Setup+0xaa>
 80034be:	2202      	movs	r2, #2
 80034c0:	f10d 0106 	add.w	r1, sp, #6
 80034c4:	f000 fc27 	bl	8003d16 <USBD_CtlSendData>
 80034c8:	e7db      	b.n	8003482 <USBD_CDC_Setup+0x4a>
 80034ca:	f890 329c 	ldrb.w	r3, [r0, #668]	; 0x29c
 80034ce:	2b03      	cmp	r3, #3
 80034d0:	d107      	bne.n	80034e2 <USBD_CDC_Setup+0xaa>
 80034d2:	2201      	movs	r2, #1
 80034d4:	f10d 0105 	add.w	r1, sp, #5
 80034d8:	e7f4      	b.n	80034c4 <USBD_CDC_Setup+0x8c>
 80034da:	f890 329c 	ldrb.w	r3, [r0, #668]	; 0x29c
 80034de:	2b03      	cmp	r3, #3
 80034e0:	d0cf      	beq.n	8003482 <USBD_CDC_Setup+0x4a>
 80034e2:	4631      	mov	r1, r6
 80034e4:	4628      	mov	r0, r5
 80034e6:	f000 fbef 	bl	8003cc8 <USBD_CtlError>
 80034ea:	2402      	movs	r4, #2
 80034ec:	e7c9      	b.n	8003482 <USBD_CDC_Setup+0x4a>

080034ee <USBD_CDC_DeInit>:
 80034ee:	b538      	push	{r3, r4, r5, lr}
 80034f0:	4604      	mov	r4, r0
 80034f2:	2500      	movs	r5, #0
 80034f4:	2181      	movs	r1, #129	; 0x81
 80034f6:	f002 fa96 	bl	8005a26 <USBD_LL_CloseEP>
 80034fa:	2101      	movs	r1, #1
 80034fc:	4620      	mov	r0, r4
 80034fe:	62e5      	str	r5, [r4, #44]	; 0x2c
 8003500:	f002 fa91 	bl	8005a26 <USBD_LL_CloseEP>
 8003504:	2182      	movs	r1, #130	; 0x82
 8003506:	4620      	mov	r0, r4
 8003508:	f8c4 516c 	str.w	r5, [r4, #364]	; 0x16c
 800350c:	f002 fa8b 	bl	8005a26 <USBD_LL_CloseEP>
 8003510:	f8d4 32b8 	ldr.w	r3, [r4, #696]	; 0x2b8
 8003514:	6425      	str	r5, [r4, #64]	; 0x40
 8003516:	b14b      	cbz	r3, 800352c <USBD_CDC_DeInit+0x3e>
 8003518:	f8d4 32bc 	ldr.w	r3, [r4, #700]	; 0x2bc
 800351c:	685b      	ldr	r3, [r3, #4]
 800351e:	4798      	blx	r3
 8003520:	f8d4 02b8 	ldr.w	r0, [r4, #696]	; 0x2b8
 8003524:	f002 fad0 	bl	8005ac8 <USBD_static_free>
 8003528:	f8c4 52b8 	str.w	r5, [r4, #696]	; 0x2b8
 800352c:	2000      	movs	r0, #0
 800352e:	bd38      	pop	{r3, r4, r5, pc}

08003530 <USBD_CDC_Init>:
 8003530:	e92d 41f0 	stmdb	sp!, {r4, r5, r6, r7, r8, lr}
 8003534:	7c03      	ldrb	r3, [r0, #16]
 8003536:	4604      	mov	r4, r0
 8003538:	bbbb      	cbnz	r3, 80035aa <USBD_CDC_Init+0x7a>
 800353a:	f44f 7300 	mov.w	r3, #512	; 0x200
 800353e:	2202      	movs	r2, #2
 8003540:	2181      	movs	r1, #129	; 0x81
 8003542:	2501      	movs	r5, #1
 8003544:	f002 fa63 	bl	8005a0e <USBD_LL_OpenEP>
 8003548:	f44f 7300 	mov.w	r3, #512	; 0x200
 800354c:	62e5      	str	r5, [r4, #44]	; 0x2c
 800354e:	2701      	movs	r7, #1
 8003550:	4629      	mov	r1, r5
 8003552:	2202      	movs	r2, #2
 8003554:	4620      	mov	r0, r4
 8003556:	f002 fa5a 	bl	8005a0e <USBD_LL_OpenEP>
 800355a:	2308      	movs	r3, #8
 800355c:	2203      	movs	r2, #3
 800355e:	2182      	movs	r1, #130	; 0x82
 8003560:	f8c4 516c 	str.w	r5, [r4, #364]	; 0x16c
 8003564:	4620      	mov	r0, r4
 8003566:	f002 fa52 	bl	8005a0e <USBD_LL_OpenEP>
 800356a:	f44f 7007 	mov.w	r0, #540	; 0x21c
 800356e:	6427      	str	r7, [r4, #64]	; 0x40
 8003570:	f002 faa6 	bl	8005ac0 <USBD_static_malloc>
 8003574:	4605      	mov	r5, r0
 8003576:	f8c4 02b8 	str.w	r0, [r4, #696]	; 0x2b8
 800357a:	b340      	cbz	r0, 80035ce <USBD_CDC_Init+0x9e>
 800357c:	f04f 0800 	mov.w	r8, #0
 8003580:	f8d4 32bc 	ldr.w	r3, [r4, #700]	; 0x2bc
 8003584:	681b      	ldr	r3, [r3, #0]
 8003586:	4798      	blx	r3
 8003588:	f8c5 8214 	str.w	r8, [r5, #532]	; 0x214
 800358c:	f8c5 8218 	str.w	r8, [r5, #536]	; 0x218
 8003590:	7c26      	ldrb	r6, [r4, #16]
 8003592:	b99e      	cbnz	r6, 80035bc <USBD_CDC_Init+0x8c>
 8003594:	f44f 7300 	mov.w	r3, #512	; 0x200
 8003598:	4639      	mov	r1, r7
 800359a:	4620      	mov	r0, r4
 800359c:	f8d5 2204 	ldr.w	r2, [r5, #516]	; 0x204
 80035a0:	f002 fa80 	bl	8005aa4 <USBD_LL_PrepareReceive>
 80035a4:	4630      	mov	r0, r6
 80035a6:	e8bd 81f0 	ldmia.w	sp!, {r4, r5, r6, r7, r8, pc}
 80035aa:	2501      	movs	r5, #1
 80035ac:	2340      	movs	r3, #64	; 0x40
 80035ae:	2202      	movs	r2, #2
 80035b0:	2181      	movs	r1, #129	; 0x81
 80035b2:	f002 fa2c 	bl	8005a0e <USBD_LL_OpenEP>
 80035b6:	2340      	movs	r3, #64	; 0x40
 80035b8:	62e5      	str	r5, [r4, #44]	; 0x2c
 80035ba:	e7c8      	b.n	800354e <USBD_CDC_Init+0x1e>
 80035bc:	2340      	movs	r3, #64	; 0x40
 80035be:	4639      	mov	r1, r7
 80035c0:	4620      	mov	r0, r4
 80035c2:	f8d5 2204 	ldr.w	r2, [r5, #516]	; 0x204
 80035c6:	f002 fa6d 	bl	8005aa4 <USBD_LL_PrepareReceive>
 80035ca:	4646      	mov	r6, r8
 80035cc:	e7ea      	b.n	80035a4 <USBD_CDC_Init+0x74>
 80035ce:	463e      	mov	r6, r7
 80035d0:	e7e8      	b.n	80035a4 <USBD_CDC_Init+0x74>

080035d2 <USBD_CDC_RegisterInterface>:
 80035d2:	b119      	cbz	r1, 80035dc <USBD_CDC_RegisterInterface+0xa>
 80035d4:	f8c0 12bc 	str.w	r1, [r0, #700]	; 0x2bc
 80035d8:	2000      	movs	r0, #0
 80035da:	4770      	bx	lr
 80035dc:	2002      	movs	r0, #2
 80035de:	4770      	bx	lr

080035e0 <USBD_CDC_SetTxBuffer>:
 80035e0:	f8d0 32b8 	ldr.w	r3, [r0, #696]	; 0x2b8
 80035e4:	2000      	movs	r0, #0
 80035e6:	f8c3 1208 	str.w	r1, [r3, #520]	; 0x208
 80035ea:	f8c3 2210 	str.w	r2, [r3, #528]	; 0x210
 80035ee:	4770      	bx	lr

080035f0 <USBD_CDC_SetRxBuffer>:
 80035f0:	f8d0 32b8 	ldr.w	r3, [r0, #696]	; 0x2b8
 80035f4:	2000      	movs	r0, #0
 80035f6:	f8c3 1204 	str.w	r1, [r3, #516]	; 0x204
 80035fa:	4770      	bx	lr

080035fc <USBD_CDC_TransmitPacket>:
 80035fc:	f8d0 22b8 	ldr.w	r2, [r0, #696]	; 0x2b8
 8003600:	b510      	push	{r4, lr}
 8003602:	b182      	cbz	r2, 8003626 <USBD_CDC_TransmitPacket+0x2a>
 8003604:	f8d2 4214 	ldr.w	r4, [r2, #532]	; 0x214
 8003608:	2301      	movs	r3, #1
 800360a:	b974      	cbnz	r4, 800362a <USBD_CDC_TransmitPacket+0x2e>
 800360c:	f8c2 3214 	str.w	r3, [r2, #532]	; 0x214
 8003610:	f8d2 3210 	ldr.w	r3, [r2, #528]	; 0x210
 8003614:	2181      	movs	r1, #129	; 0x81
 8003616:	6303      	str	r3, [r0, #48]	; 0x30
 8003618:	f8d2 2208 	ldr.w	r2, [r2, #520]	; 0x208
 800361c:	b29b      	uxth	r3, r3
 800361e:	f002 fa38 	bl	8005a92 <USBD_LL_Transmit>
 8003622:	4620      	mov	r0, r4
 8003624:	bd10      	pop	{r4, pc}
 8003626:	2002      	movs	r0, #2
 8003628:	e7fc      	b.n	8003624 <USBD_CDC_TransmitPacket+0x28>
 800362a:	4618      	mov	r0, r3
 800362c:	e7fa      	b.n	8003624 <USBD_CDC_TransmitPacket+0x28>

0800362e <USBD_CDC_ReceivePacket>:
 800362e:	f8d0 22b8 	ldr.w	r2, [r0, #696]	; 0x2b8
 8003632:	b510      	push	{r4, lr}
 8003634:	b182      	cbz	r2, 8003658 <USBD_CDC_ReceivePacket+0x2a>
 8003636:	7c04      	ldrb	r4, [r0, #16]
 8003638:	f8d2 2204 	ldr.w	r2, [r2, #516]	; 0x204
 800363c:	b934      	cbnz	r4, 800364c <USBD_CDC_ReceivePacket+0x1e>
 800363e:	f44f 7300 	mov.w	r3, #512	; 0x200
 8003642:	2101      	movs	r1, #1
 8003644:	f002 fa2e 	bl	8005aa4 <USBD_LL_PrepareReceive>
 8003648:	4620      	mov	r0, r4
 800364a:	bd10      	pop	{r4, pc}
 800364c:	2340      	movs	r3, #64	; 0x40
 800364e:	2101      	movs	r1, #1
 8003650:	f002 fa28 	bl	8005aa4 <USBD_LL_PrepareReceive>
 8003654:	2400      	movs	r4, #0
 8003656:	e7f7      	b.n	8003648 <USBD_CDC_ReceivePacket+0x1a>
 8003658:	2402      	movs	r4, #2
 800365a:	e7f5      	b.n	8003648 <USBD_CDC_ReceivePacket+0x1a>

0800365c <USBD_Init>:
 800365c:	b508      	push	{r3, lr}
 800365e:	b180      	cbz	r0, 8003682 <USBD_Init+0x26>
 8003660:	f8d0 32b4 	ldr.w	r3, [r0, #692]	; 0x2b4
 8003664:	b113      	cbz	r3, 800366c <USBD_Init+0x10>
 8003666:	2300      	movs	r3, #0
 8003668:	f8c0 32b4 	str.w	r3, [r0, #692]	; 0x2b4
 800366c:	b109      	cbz	r1, 8003672 <USBD_Init+0x16>
 800366e:	f8c0 12b0 	str.w	r1, [r0, #688]	; 0x2b0
 8003672:	2301      	movs	r3, #1
 8003674:	7002      	strb	r2, [r0, #0]
 8003676:	f880 329c 	strb.w	r3, [r0, #668]	; 0x29c
 800367a:	f002 f97d 	bl	8005978 <USBD_LL_Init>
 800367e:	2000      	movs	r0, #0
 8003680:	bd08      	pop	{r3, pc}
 8003682:	2002      	movs	r0, #2
 8003684:	e7fc      	b.n	8003680 <USBD_Init+0x24>

08003686 <USBD_RegisterClass>:
 8003686:	b119      	cbz	r1, 8003690 <USBD_RegisterClass+0xa>
 8003688:	f8c0 12b4 	str.w	r1, [r0, #692]	; 0x2b4
 800368c:	2000      	movs	r0, #0
 800368e:	4770      	bx	lr
 8003690:	2002      	movs	r0, #2
 8003692:	4770      	bx	lr

08003694 <USBD_Start>:
 8003694:	b508      	push	{r3, lr}
 8003696:	f002 f9b1 	bl	80059fc <USBD_LL_Start>
 800369a:	2000      	movs	r0, #0
 800369c:	bd08      	pop	{r3, pc}

0800369e <USBD_SetClassConfig>:
 800369e:	b508      	push	{r3, lr}
 80036a0:	f8d0 32b4 	ldr.w	r3, [r0, #692]	; 0x2b4
 80036a4:	b90b      	cbnz	r3, 80036aa <USBD_SetClassConfig+0xc>
 80036a6:	2002      	movs	r0, #2
 80036a8:	bd08      	pop	{r3, pc}
 80036aa:	681b      	ldr	r3, [r3, #0]
 80036ac:	4798      	blx	r3
 80036ae:	2800      	cmp	r0, #0
 80036b0:	d0fa      	beq.n	80036a8 <USBD_SetClassConfig+0xa>
 80036b2:	e7f8      	b.n	80036a6 <USBD_SetClassConfig+0x8>

080036b4 <USBD_ClrClassConfig>:
 80036b4:	b508      	push	{r3, lr}
 80036b6:	f8d0 32b4 	ldr.w	r3, [r0, #692]	; 0x2b4
 80036ba:	685b      	ldr	r3, [r3, #4]
 80036bc:	4798      	blx	r3
 80036be:	2000      	movs	r0, #0
 80036c0:	bd08      	pop	{r3, pc}

080036c2 <USBD_LL_SetupStage>:
 80036c2:	b538      	push	{r3, r4, r5, lr}
 80036c4:	f500 752a 	add.w	r5, r0, #680	; 0x2a8
 80036c8:	4604      	mov	r4, r0
 80036ca:	4628      	mov	r0, r5
 80036cc:	f000 fae8 	bl	8003ca0 <USBD_ParseSetupRequest>
 80036d0:	2301      	movs	r3, #1
 80036d2:	f894 12a8 	ldrb.w	r1, [r4, #680]	; 0x2a8
 80036d6:	f8c4 3294 	str.w	r3, [r4, #660]	; 0x294
 80036da:	f8b4 32ae 	ldrh.w	r3, [r4, #686]	; 0x2ae
 80036de:	f8c4 3298 	str.w	r3, [r4, #664]	; 0x298
 80036e2:	f001 031f 	and.w	r3, r1, #31
 80036e6:	2b01      	cmp	r3, #1
 80036e8:	d008      	beq.n	80036fc <USBD_LL_SetupStage+0x3a>
 80036ea:	2b02      	cmp	r3, #2
 80036ec:	d00b      	beq.n	8003706 <USBD_LL_SetupStage+0x44>
 80036ee:	b97b      	cbnz	r3, 8003710 <USBD_LL_SetupStage+0x4e>
 80036f0:	4629      	mov	r1, r5
 80036f2:	4620      	mov	r0, r4
 80036f4:	f000 f8fc 	bl	80038f0 <USBD_StdDevReq>
 80036f8:	2000      	movs	r0, #0
 80036fa:	bd38      	pop	{r3, r4, r5, pc}
 80036fc:	4629      	mov	r1, r5
 80036fe:	4620      	mov	r0, r4
 8003700:	f000 fa20 	bl	8003b44 <USBD_StdItfReq>
 8003704:	e7f8      	b.n	80036f8 <USBD_LL_SetupStage+0x36>
 8003706:	4629      	mov	r1, r5
 8003708:	4620      	mov	r0, r4
 800370a:	f000 fa3f 	bl	8003b8c <USBD_StdEPReq>
 800370e:	e7f3      	b.n	80036f8 <USBD_LL_SetupStage+0x36>
 8003710:	4620      	mov	r0, r4
 8003712:	f001 0180 	and.w	r1, r1, #128	; 0x80
 8003716:	f002 f98f 	bl	8005a38 <USBD_LL_StallEP>
 800371a:	e7ed      	b.n	80036f8 <USBD_LL_SetupStage+0x36>

0800371c <USBD_LL_DataOutStage>:
 800371c:	b5f8      	push	{r3, r4, r5, r6, r7, lr}
 800371e:	4604      	mov	r4, r0
 8003720:	4617      	mov	r7, r2
 8003722:	460d      	mov	r5, r1
 8003724:	bb39      	cbnz	r1, 8003776 <USBD_LL_DataOutStage+0x5a>
 8003726:	f8d0 3294 	ldr.w	r3, [r0, #660]	; 0x294
 800372a:	2b03      	cmp	r3, #3
 800372c:	d11c      	bne.n	8003768 <USBD_LL_DataOutStage+0x4c>
 800372e:	e9d0 6258 	ldrd	r6, r2, [r0, #352]	; 0x160
 8003732:	4296      	cmp	r6, r2
 8003734:	d90b      	bls.n	800374e <USBD_LL_DataOutStage+0x32>
 8003736:	1ab6      	subs	r6, r6, r2
 8003738:	42b2      	cmp	r2, r6
 800373a:	4639      	mov	r1, r7
 800373c:	f8c0 6160 	str.w	r6, [r0, #352]	; 0x160
 8003740:	bf8c      	ite	hi
 8003742:	b2b2      	uxthhi	r2, r6
 8003744:	b292      	uxthls	r2, r2
 8003746:	f000 fb08 	bl	8003d5a <USBD_CtlContinueRx>
 800374a:	4628      	mov	r0, r5
 800374c:	bdf8      	pop	{r3, r4, r5, r6, r7, pc}
 800374e:	f8d0 32b4 	ldr.w	r3, [r0, #692]	; 0x2b4
 8003752:	691b      	ldr	r3, [r3, #16]
 8003754:	b123      	cbz	r3, 8003760 <USBD_LL_DataOutStage+0x44>
 8003756:	f890 229c 	ldrb.w	r2, [r0, #668]	; 0x29c
 800375a:	2a03      	cmp	r2, #3
 800375c:	d100      	bne.n	8003760 <USBD_LL_DataOutStage+0x44>
 800375e:	4798      	blx	r3
 8003760:	4620      	mov	r0, r4
 8003762:	f000 fb02 	bl	8003d6a <USBD_CtlSendStatus>
 8003766:	e7f0      	b.n	800374a <USBD_LL_DataOutStage+0x2e>
 8003768:	2b05      	cmp	r3, #5
 800376a:	d1ee      	bne.n	800374a <USBD_LL_DataOutStage+0x2e>
 800376c:	f8c4 1294 	str.w	r1, [r4, #660]	; 0x294
 8003770:	f002 f962 	bl	8005a38 <USBD_LL_StallEP>
 8003774:	e7e9      	b.n	800374a <USBD_LL_DataOutStage+0x2e>
 8003776:	f8d0 32b4 	ldr.w	r3, [r0, #692]	; 0x2b4
 800377a:	699b      	ldr	r3, [r3, #24]
 800377c:	b133      	cbz	r3, 800378c <USBD_LL_DataOutStage+0x70>
 800377e:	f890 229c 	ldrb.w	r2, [r0, #668]	; 0x29c
 8003782:	2a03      	cmp	r2, #3
 8003784:	d102      	bne.n	800378c <USBD_LL_DataOutStage+0x70>
 8003786:	4798      	blx	r3
 8003788:	2500      	movs	r5, #0
 800378a:	e7de      	b.n	800374a <USBD_LL_DataOutStage+0x2e>
 800378c:	2502      	movs	r5, #2
 800378e:	e7dc      	b.n	800374a <USBD_LL_DataOutStage+0x2e>

08003790 <USBD_LL_DataInStage>:
 8003790:	b5f8      	push	{r3, r4, r5, r6, r7, lr}
 8003792:	4604      	mov	r4, r0
 8003794:	4617      	mov	r7, r2
 8003796:	460d      	mov	r5, r1
 8003798:	2900      	cmp	r1, #0
 800379a:	d147      	bne.n	800382c <USBD_LL_DataInStage+0x9c>
 800379c:	f8d0 3294 	ldr.w	r3, [r0, #660]	; 0x294
 80037a0:	2b02      	cmp	r3, #2
 80037a2:	d13c      	bne.n	800381e <USBD_LL_DataInStage+0x8e>
 80037a4:	e9d0 6308 	ldrd	r6, r3, [r0, #32]
 80037a8:	429e      	cmp	r6, r3
 80037aa:	d914      	bls.n	80037d6 <USBD_LL_DataInStage+0x46>
 80037ac:	1af3      	subs	r3, r6, r3
 80037ae:	4639      	mov	r1, r7
 80037b0:	6203      	str	r3, [r0, #32]
 80037b2:	b29a      	uxth	r2, r3
 80037b4:	f000 fabc 	bl	8003d30 <USBD_CtlContinueSendData>
 80037b8:	462b      	mov	r3, r5
 80037ba:	462a      	mov	r2, r5
 80037bc:	4629      	mov	r1, r5
 80037be:	4620      	mov	r0, r4
 80037c0:	f002 f970 	bl	8005aa4 <USBD_LL_PrepareReceive>
 80037c4:	f894 32a0 	ldrb.w	r3, [r4, #672]	; 0x2a0
 80037c8:	2b01      	cmp	r3, #1
 80037ca:	d102      	bne.n	80037d2 <USBD_LL_DataInStage+0x42>
 80037cc:	2300      	movs	r3, #0
 80037ce:	f884 32a0 	strb.w	r3, [r4, #672]	; 0x2a0
 80037d2:	4628      	mov	r0, r5
 80037d4:	bdf8      	pop	{r3, r4, r5, r6, r7, pc}
 80037d6:	69c2      	ldr	r2, [r0, #28]
 80037d8:	fbb2 f6f3 	udiv	r6, r2, r3
 80037dc:	fb03 2616 	mls	r6, r3, r6, r2
 80037e0:	b95e      	cbnz	r6, 80037fa <USBD_LL_DataInStage+0x6a>
 80037e2:	4293      	cmp	r3, r2
 80037e4:	d809      	bhi.n	80037fa <USBD_LL_DataInStage+0x6a>
 80037e6:	f8d0 3298 	ldr.w	r3, [r0, #664]	; 0x298
 80037ea:	429a      	cmp	r2, r3
 80037ec:	d205      	bcs.n	80037fa <USBD_LL_DataInStage+0x6a>
 80037ee:	460a      	mov	r2, r1
 80037f0:	f000 fa9e 	bl	8003d30 <USBD_CtlContinueSendData>
 80037f4:	f8c4 5298 	str.w	r5, [r4, #664]	; 0x298
 80037f8:	e7de      	b.n	80037b8 <USBD_LL_DataInStage+0x28>
 80037fa:	f8d4 32b4 	ldr.w	r3, [r4, #692]	; 0x2b4
 80037fe:	68db      	ldr	r3, [r3, #12]
 8003800:	b12b      	cbz	r3, 800380e <USBD_LL_DataInStage+0x7e>
 8003802:	f894 229c 	ldrb.w	r2, [r4, #668]	; 0x29c
 8003806:	2a03      	cmp	r2, #3
 8003808:	d101      	bne.n	800380e <USBD_LL_DataInStage+0x7e>
 800380a:	4620      	mov	r0, r4
 800380c:	4798      	blx	r3
 800380e:	2180      	movs	r1, #128	; 0x80
 8003810:	4620      	mov	r0, r4
 8003812:	f002 f911 	bl	8005a38 <USBD_LL_StallEP>
 8003816:	4620      	mov	r0, r4
 8003818:	f000 fab2 	bl	8003d80 <USBD_CtlReceiveStatus>
 800381c:	e7d2      	b.n	80037c4 <USBD_LL_DataInStage+0x34>
 800381e:	f033 0304 	bics.w	r3, r3, #4
 8003822:	d1cf      	bne.n	80037c4 <USBD_LL_DataInStage+0x34>
 8003824:	2180      	movs	r1, #128	; 0x80
 8003826:	f002 f907 	bl	8005a38 <USBD_LL_StallEP>
 800382a:	e7cb      	b.n	80037c4 <USBD_LL_DataInStage+0x34>
 800382c:	f8d0 32b4 	ldr.w	r3, [r0, #692]	; 0x2b4
 8003830:	695b      	ldr	r3, [r3, #20]
 8003832:	b133      	cbz	r3, 8003842 <USBD_LL_DataInStage+0xb2>
 8003834:	f890 229c 	ldrb.w	r2, [r0, #668]	; 0x29c
 8003838:	2a03      	cmp	r2, #3
 800383a:	d102      	bne.n	8003842 <USBD_LL_DataInStage+0xb2>
 800383c:	4798      	blx	r3
 800383e:	2500      	movs	r5, #0
 8003840:	e7c7      	b.n	80037d2 <USBD_LL_DataInStage+0x42>
 8003842:	2502      	movs	r5, #2
 8003844:	e7c5      	b.n	80037d2 <USBD_LL_DataInStage+0x42>

08003846 <USBD_LL_Reset>:
 8003846:	2200      	movs	r2, #0
 8003848:	b570      	push	{r4, r5, r6, lr}
 800384a:	4604      	mov	r4, r0
 800384c:	2501      	movs	r5, #1
 800384e:	2640      	movs	r6, #64	; 0x40
 8003850:	4611      	mov	r1, r2
 8003852:	2340      	movs	r3, #64	; 0x40
 8003854:	f002 f8db 	bl	8005a0e <USBD_LL_OpenEP>
 8003858:	4633      	mov	r3, r6
 800385a:	2180      	movs	r1, #128	; 0x80
 800385c:	2200      	movs	r2, #0
 800385e:	4620      	mov	r0, r4
 8003860:	f8c4 5158 	str.w	r5, [r4, #344]	; 0x158
 8003864:	f8c4 6164 	str.w	r6, [r4, #356]	; 0x164
 8003868:	f002 f8d1 	bl	8005a0e <USBD_LL_OpenEP>
 800386c:	2100      	movs	r1, #0
 800386e:	f8d4 32b8 	ldr.w	r3, [r4, #696]	; 0x2b8
 8003872:	61a5      	str	r5, [r4, #24]
 8003874:	6266      	str	r6, [r4, #36]	; 0x24
 8003876:	f884 529c 	strb.w	r5, [r4, #668]	; 0x29c
 800387a:	f8c4 1294 	str.w	r1, [r4, #660]	; 0x294
 800387e:	6061      	str	r1, [r4, #4]
 8003880:	f8c4 12a4 	str.w	r1, [r4, #676]	; 0x2a4
 8003884:	b123      	cbz	r3, 8003890 <USBD_LL_Reset+0x4a>
 8003886:	f8d4 32b4 	ldr.w	r3, [r4, #692]	; 0x2b4
 800388a:	4620      	mov	r0, r4
 800388c:	685b      	ldr	r3, [r3, #4]
 800388e:	4798      	blx	r3
 8003890:	2000      	movs	r0, #0
 8003892:	bd70      	pop	{r4, r5, r6, pc}

08003894 <USBD_LL_SetSpeed>:
 8003894:	7401      	strb	r1, [r0, #16]
 8003896:	2000      	movs	r0, #0
 8003898:	4770      	bx	lr

0800389a <USBD_LL_Suspend>:
 800389a:	f890 329c 	ldrb.w	r3, [r0, #668]	; 0x29c
 800389e:	f880 329d 	strb.w	r3, [r0, #669]	; 0x29d
 80038a2:	2304      	movs	r3, #4
 80038a4:	f880 329c 	strb.w	r3, [r0, #668]	; 0x29c
 80038a8:	2000      	movs	r0, #0
 80038aa:	4770      	bx	lr

080038ac <USBD_LL_Resume>:
 80038ac:	f890 329c 	ldrb.w	r3, [r0, #668]	; 0x29c
 80038b0:	2b04      	cmp	r3, #4
 80038b2:	bf04      	itt	eq
 80038b4:	f890 329d 	ldrbeq.w	r3, [r0, #669]	; 0x29d
 80038b8:	f880 329c 	strbeq.w	r3, [r0, #668]	; 0x29c
 80038bc:	2000      	movs	r0, #0
 80038be:	4770      	bx	lr

080038c0 <USBD_LL_SOF>:
 80038c0:	b508      	push	{r3, lr}
 80038c2:	f890 229c 	ldrb.w	r2, [r0, #668]	; 0x29c
 80038c6:	2a03      	cmp	r2, #3
 80038c8:	d104      	bne.n	80038d4 <USBD_LL_SOF+0x14>
 80038ca:	f8d0 32b4 	ldr.w	r3, [r0, #692]	; 0x2b4
 80038ce:	69db      	ldr	r3, [r3, #28]
 80038d0:	b103      	cbz	r3, 80038d4 <USBD_LL_SOF+0x14>
 80038d2:	4798      	blx	r3
 80038d4:	2000      	movs	r0, #0
 80038d6:	bd08      	pop	{r3, pc}

080038d8 <USBD_CtlError.constprop.0>:
 80038d8:	b510      	push	{r4, lr}
 80038da:	4604      	mov	r4, r0
 80038dc:	2180      	movs	r1, #128	; 0x80
 80038de:	f002 f8ab 	bl	8005a38 <USBD_LL_StallEP>
 80038e2:	4620      	mov	r0, r4
 80038e4:	e8bd 4010 	ldmia.w	sp!, {r4, lr}
 80038e8:	2100      	movs	r1, #0
 80038ea:	f002 b8a5 	b.w	8005a38 <USBD_LL_StallEP>
	...

080038f0 <USBD_StdDevReq>:
 80038f0:	b537      	push	{r0, r1, r2, r4, r5, lr}
 80038f2:	780b      	ldrb	r3, [r1, #0]
 80038f4:	4604      	mov	r4, r0
 80038f6:	f003 0360 	and.w	r3, r3, #96	; 0x60
 80038fa:	2b20      	cmp	r3, #32
 80038fc:	460d      	mov	r5, r1
 80038fe:	d012      	beq.n	8003926 <USBD_StdDevReq+0x36>
 8003900:	2b40      	cmp	r3, #64	; 0x40
 8003902:	d010      	beq.n	8003926 <USBD_StdDevReq+0x36>
 8003904:	2b00      	cmp	r3, #0
 8003906:	d151      	bne.n	80039ac <USBD_StdDevReq+0xbc>
 8003908:	784b      	ldrb	r3, [r1, #1]
 800390a:	2b09      	cmp	r3, #9
 800390c:	d84e      	bhi.n	80039ac <USBD_StdDevReq+0xbc>
 800390e:	e8df f013 	tbh	[pc, r3, lsl #1]
 8003912:	00ee      	.short	0x00ee
 8003914:	004d010a 	.word	0x004d010a
 8003918:	004d0103 	.word	0x004d0103
 800391c:	00130087 	.word	0x00130087
 8003920:	00d6004d 	.word	0x00d6004d
 8003924:	00a3      	.short	0x00a3
 8003926:	f8d4 32b4 	ldr.w	r3, [r4, #692]	; 0x2b4
 800392a:	4629      	mov	r1, r5
 800392c:	4620      	mov	r0, r4
 800392e:	689b      	ldr	r3, [r3, #8]
 8003930:	4798      	blx	r3
 8003932:	2000      	movs	r0, #0
 8003934:	b003      	add	sp, #12
 8003936:	bd30      	pop	{r4, r5, pc}
 8003938:	2300      	movs	r3, #0
 800393a:	f8ad 3006 	strh.w	r3, [sp, #6]
 800393e:	884b      	ldrh	r3, [r1, #2]
 8003940:	0a1a      	lsrs	r2, r3, #8
 8003942:	3a01      	subs	r2, #1
 8003944:	2a06      	cmp	r2, #6
 8003946:	d831      	bhi.n	80039ac <USBD_StdDevReq+0xbc>
 8003948:	e8df f002 	tbb	[pc, r2]
 800394c:	30231604 	.word	0x30231604
 8003950:	4830      	.short	0x4830
 8003952:	52          	.byte	0x52
 8003953:	00          	.byte	0x00
 8003954:	f8d0 32b0 	ldr.w	r3, [r0, #688]	; 0x2b0
 8003958:	681b      	ldr	r3, [r3, #0]
 800395a:	7c20      	ldrb	r0, [r4, #16]
 800395c:	f10d 0106 	add.w	r1, sp, #6
 8003960:	4798      	blx	r3
 8003962:	f8bd 2006 	ldrh.w	r2, [sp, #6]
 8003966:	2a00      	cmp	r2, #0
 8003968:	d056      	beq.n	8003a18 <USBD_StdDevReq+0x128>
 800396a:	88eb      	ldrh	r3, [r5, #6]
 800396c:	2b00      	cmp	r3, #0
 800396e:	d14a      	bne.n	8003a06 <USBD_StdDevReq+0x116>
 8003970:	4620      	mov	r0, r4
 8003972:	f000 f9fa 	bl	8003d6a <USBD_CtlSendStatus>
 8003976:	e7dc      	b.n	8003932 <USBD_StdDevReq+0x42>
 8003978:	7c02      	ldrb	r2, [r0, #16]
 800397a:	f8d0 32b4 	ldr.w	r3, [r0, #692]	; 0x2b4
 800397e:	b932      	cbnz	r2, 800398e <USBD_StdDevReq+0x9e>
 8003980:	6a9b      	ldr	r3, [r3, #40]	; 0x28
 8003982:	f10d 0006 	add.w	r0, sp, #6
 8003986:	4798      	blx	r3
 8003988:	2302      	movs	r3, #2
 800398a:	7043      	strb	r3, [r0, #1]
 800398c:	e7e9      	b.n	8003962 <USBD_StdDevReq+0x72>
 800398e:	6adb      	ldr	r3, [r3, #44]	; 0x2c
 8003990:	e7f7      	b.n	8003982 <USBD_StdDevReq+0x92>
 8003992:	b2db      	uxtb	r3, r3
 8003994:	2b05      	cmp	r3, #5
 8003996:	d809      	bhi.n	80039ac <USBD_StdDevReq+0xbc>
 8003998:	e8df f003 	tbb	[pc, r3]
 800399c:	14100c03 	.word	0x14100c03
 80039a0:	1c18      	.short	0x1c18
 80039a2:	f8d0 32b0 	ldr.w	r3, [r0, #688]	; 0x2b0
 80039a6:	685b      	ldr	r3, [r3, #4]
 80039a8:	2b00      	cmp	r3, #0
 80039aa:	d1d6      	bne.n	800395a <USBD_StdDevReq+0x6a>
 80039ac:	4620      	mov	r0, r4
 80039ae:	f7ff ff93 	bl	80038d8 <USBD_CtlError.constprop.0>
 80039b2:	e7be      	b.n	8003932 <USBD_StdDevReq+0x42>
 80039b4:	f8d0 32b0 	ldr.w	r3, [r0, #688]	; 0x2b0
 80039b8:	689b      	ldr	r3, [r3, #8]
 80039ba:	e7f5      	b.n	80039a8 <USBD_StdDevReq+0xb8>
 80039bc:	f8d0 32b0 	ldr.w	r3, [r0, #688]	; 0x2b0
 80039c0:	68db      	ldr	r3, [r3, #12]
 80039c2:	e7f1      	b.n	80039a8 <USBD_StdDevReq+0xb8>
 80039c4:	f8d0 32b0 	ldr.w	r3, [r0, #688]	; 0x2b0
 80039c8:	691b      	ldr	r3, [r3, #16]
 80039ca:	e7ed      	b.n	80039a8 <USBD_StdDevReq+0xb8>
 80039cc:	f8d0 32b0 	ldr.w	r3, [r0, #688]	; 0x2b0
 80039d0:	695b      	ldr	r3, [r3, #20]
 80039d2:	e7e9      	b.n	80039a8 <USBD_StdDevReq+0xb8>
 80039d4:	f8d0 32b0 	ldr.w	r3, [r0, #688]	; 0x2b0
 80039d8:	699b      	ldr	r3, [r3, #24]
 80039da:	e7e5      	b.n	80039a8 <USBD_StdDevReq+0xb8>
 80039dc:	7c03      	ldrb	r3, [r0, #16]
 80039de:	2b00      	cmp	r3, #0
 80039e0:	d1e4      	bne.n	80039ac <USBD_StdDevReq+0xbc>
 80039e2:	f8d0 32b4 	ldr.w	r3, [r0, #692]	; 0x2b4
 80039e6:	f10d 0006 	add.w	r0, sp, #6
 80039ea:	6b5b      	ldr	r3, [r3, #52]	; 0x34
 80039ec:	4798      	blx	r3
 80039ee:	e7b8      	b.n	8003962 <USBD_StdDevReq+0x72>
 80039f0:	7c03      	ldrb	r3, [r0, #16]
 80039f2:	2b00      	cmp	r3, #0
 80039f4:	d1da      	bne.n	80039ac <USBD_StdDevReq+0xbc>
 80039f6:	f8d0 32b4 	ldr.w	r3, [r0, #692]	; 0x2b4
 80039fa:	f10d 0006 	add.w	r0, sp, #6
 80039fe:	6b1b      	ldr	r3, [r3, #48]	; 0x30
 8003a00:	4798      	blx	r3
 8003a02:	2307      	movs	r3, #7
 8003a04:	e7c1      	b.n	800398a <USBD_StdDevReq+0x9a>
 8003a06:	429a      	cmp	r2, r3
 8003a08:	bf28      	it	cs
 8003a0a:	461a      	movcs	r2, r3
 8003a0c:	4601      	mov	r1, r0
 8003a0e:	4620      	mov	r0, r4
 8003a10:	f8ad 2006 	strh.w	r2, [sp, #6]
 8003a14:	f000 f97f 	bl	8003d16 <USBD_CtlSendData>
 8003a18:	88eb      	ldrh	r3, [r5, #6]
 8003a1a:	2b00      	cmp	r3, #0
 8003a1c:	d189      	bne.n	8003932 <USBD_StdDevReq+0x42>
 8003a1e:	e7a7      	b.n	8003970 <USBD_StdDevReq+0x80>
 8003a20:	888b      	ldrh	r3, [r1, #4]
 8003a22:	2b00      	cmp	r3, #0
 8003a24:	d1c2      	bne.n	80039ac <USBD_StdDevReq+0xbc>
 8003a26:	88cb      	ldrh	r3, [r1, #6]
 8003a28:	2b00      	cmp	r3, #0
 8003a2a:	d1bf      	bne.n	80039ac <USBD_StdDevReq+0xbc>
 8003a2c:	884d      	ldrh	r5, [r1, #2]
 8003a2e:	2d7f      	cmp	r5, #127	; 0x7f
 8003a30:	d8bc      	bhi.n	80039ac <USBD_StdDevReq+0xbc>
 8003a32:	f890 329c 	ldrb.w	r3, [r0, #668]	; 0x29c
 8003a36:	2b03      	cmp	r3, #3
 8003a38:	d0b8      	beq.n	80039ac <USBD_StdDevReq+0xbc>
 8003a3a:	b2e9      	uxtb	r1, r5
 8003a3c:	f880 129e 	strb.w	r1, [r0, #670]	; 0x29e
 8003a40:	f002 f81e 	bl	8005a80 <USBD_LL_SetUSBAddress>
 8003a44:	4620      	mov	r0, r4
 8003a46:	f000 f990 	bl	8003d6a <USBD_CtlSendStatus>
 8003a4a:	b11d      	cbz	r5, 8003a54 <USBD_StdDevReq+0x164>
 8003a4c:	2302      	movs	r3, #2
 8003a4e:	f884 329c 	strb.w	r3, [r4, #668]	; 0x29c
 8003a52:	e76e      	b.n	8003932 <USBD_StdDevReq+0x42>
 8003a54:	2301      	movs	r3, #1
 8003a56:	e7fa      	b.n	8003a4e <USBD_StdDevReq+0x15e>
 8003a58:	7889      	ldrb	r1, [r1, #2]
 8003a5a:	4d39      	ldr	r5, [pc, #228]	; (8003b40 <USBD_StdDevReq+0x250>)
 8003a5c:	2901      	cmp	r1, #1
 8003a5e:	7029      	strb	r1, [r5, #0]
 8003a60:	d8a4      	bhi.n	80039ac <USBD_StdDevReq+0xbc>
 8003a62:	f890 329c 	ldrb.w	r3, [r0, #668]	; 0x29c
 8003a66:	2b02      	cmp	r3, #2
 8003a68:	d008      	beq.n	8003a7c <USBD_StdDevReq+0x18c>
 8003a6a:	2b03      	cmp	r3, #3
 8003a6c:	d015      	beq.n	8003a9a <USBD_StdDevReq+0x1aa>
 8003a6e:	f7ff ff33 	bl	80038d8 <USBD_CtlError.constprop.0>
 8003a72:	4620      	mov	r0, r4
 8003a74:	7829      	ldrb	r1, [r5, #0]
 8003a76:	f7ff fe1d 	bl	80036b4 <USBD_ClrClassConfig>
 8003a7a:	e75a      	b.n	8003932 <USBD_StdDevReq+0x42>
 8003a7c:	2900      	cmp	r1, #0
 8003a7e:	f43f af77 	beq.w	8003970 <USBD_StdDevReq+0x80>
 8003a82:	2101      	movs	r1, #1
 8003a84:	2303      	movs	r3, #3
 8003a86:	6041      	str	r1, [r0, #4]
 8003a88:	f880 329c 	strb.w	r3, [r0, #668]	; 0x29c
 8003a8c:	4620      	mov	r0, r4
 8003a8e:	f7ff fe06 	bl	800369e <USBD_SetClassConfig>
 8003a92:	2802      	cmp	r0, #2
 8003a94:	f47f af6c 	bne.w	8003970 <USBD_StdDevReq+0x80>
 8003a98:	e788      	b.n	80039ac <USBD_StdDevReq+0xbc>
 8003a9a:	b931      	cbnz	r1, 8003aaa <USBD_StdDevReq+0x1ba>
 8003a9c:	2302      	movs	r3, #2
 8003a9e:	6041      	str	r1, [r0, #4]
 8003aa0:	f880 329c 	strb.w	r3, [r0, #668]	; 0x29c
 8003aa4:	f7ff fe06 	bl	80036b4 <USBD_ClrClassConfig>
 8003aa8:	e762      	b.n	8003970 <USBD_StdDevReq+0x80>
 8003aaa:	6841      	ldr	r1, [r0, #4]
 8003aac:	2901      	cmp	r1, #1
 8003aae:	f43f af5f 	beq.w	8003970 <USBD_StdDevReq+0x80>
 8003ab2:	b2c9      	uxtb	r1, r1
 8003ab4:	f7ff fdfe 	bl	80036b4 <USBD_ClrClassConfig>
 8003ab8:	7829      	ldrb	r1, [r5, #0]
 8003aba:	6061      	str	r1, [r4, #4]
 8003abc:	e7e6      	b.n	8003a8c <USBD_StdDevReq+0x19c>
 8003abe:	88ca      	ldrh	r2, [r1, #6]
 8003ac0:	2a01      	cmp	r2, #1
 8003ac2:	f47f af73 	bne.w	80039ac <USBD_StdDevReq+0xbc>
 8003ac6:	f890 329c 	ldrb.w	r3, [r0, #668]	; 0x29c
 8003aca:	2b02      	cmp	r3, #2
 8003acc:	d80a      	bhi.n	8003ae4 <USBD_StdDevReq+0x1f4>
 8003ace:	2b00      	cmp	r3, #0
 8003ad0:	f43f af6c 	beq.w	80039ac <USBD_StdDevReq+0xbc>
 8003ad4:	4601      	mov	r1, r0
 8003ad6:	2300      	movs	r3, #0
 8003ad8:	f841 3f08 	str.w	r3, [r1, #8]!
 8003adc:	4620      	mov	r0, r4
 8003ade:	f000 f91a 	bl	8003d16 <USBD_CtlSendData>
 8003ae2:	e726      	b.n	8003932 <USBD_StdDevReq+0x42>
 8003ae4:	2b03      	cmp	r3, #3
 8003ae6:	f47f af61 	bne.w	80039ac <USBD_StdDevReq+0xbc>
 8003aea:	1d01      	adds	r1, r0, #4
 8003aec:	e7f6      	b.n	8003adc <USBD_StdDevReq+0x1ec>
 8003aee:	f890 329c 	ldrb.w	r3, [r0, #668]	; 0x29c
 8003af2:	3b01      	subs	r3, #1
 8003af4:	2b02      	cmp	r3, #2
 8003af6:	f63f af59 	bhi.w	80039ac <USBD_StdDevReq+0xbc>
 8003afa:	88cb      	ldrh	r3, [r1, #6]
 8003afc:	2b02      	cmp	r3, #2
 8003afe:	f47f af55 	bne.w	80039ac <USBD_StdDevReq+0xbc>
 8003b02:	2301      	movs	r3, #1
 8003b04:	60c3      	str	r3, [r0, #12]
 8003b06:	f8d0 32a4 	ldr.w	r3, [r0, #676]	; 0x2a4
 8003b0a:	b10b      	cbz	r3, 8003b10 <USBD_StdDevReq+0x220>
 8003b0c:	2303      	movs	r3, #3
 8003b0e:	60c3      	str	r3, [r0, #12]
 8003b10:	2202      	movs	r2, #2
 8003b12:	f104 010c 	add.w	r1, r4, #12
 8003b16:	e7e1      	b.n	8003adc <USBD_StdDevReq+0x1ec>
 8003b18:	884b      	ldrh	r3, [r1, #2]
 8003b1a:	2b01      	cmp	r3, #1
 8003b1c:	f47f af09 	bne.w	8003932 <USBD_StdDevReq+0x42>
 8003b20:	f8c4 32a4 	str.w	r3, [r4, #676]	; 0x2a4
 8003b24:	e724      	b.n	8003970 <USBD_StdDevReq+0x80>
 8003b26:	f890 329c 	ldrb.w	r3, [r0, #668]	; 0x29c
 8003b2a:	3b01      	subs	r3, #1
 8003b2c:	2b02      	cmp	r3, #2
 8003b2e:	f63f af3d 	bhi.w	80039ac <USBD_StdDevReq+0xbc>
 8003b32:	884b      	ldrh	r3, [r1, #2]
 8003b34:	2b01      	cmp	r3, #1
 8003b36:	f47f aefc 	bne.w	8003932 <USBD_StdDevReq+0x42>
 8003b3a:	2300      	movs	r3, #0
 8003b3c:	e7f0      	b.n	8003b20 <USBD_StdDevReq+0x230>
 8003b3e:	bf00      	nop
 8003b40:	20000780 	.word	0x20000780

08003b44 <USBD_StdItfReq>:
 8003b44:	b538      	push	{r3, r4, r5, lr}
 8003b46:	780b      	ldrb	r3, [r1, #0]
 8003b48:	4604      	mov	r4, r0
 8003b4a:	f003 0260 	and.w	r2, r3, #96	; 0x60
 8003b4e:	2a40      	cmp	r2, #64	; 0x40
 8003b50:	460d      	mov	r5, r1
 8003b52:	d001      	beq.n	8003b58 <USBD_StdItfReq+0x14>
 8003b54:	065b      	lsls	r3, r3, #25
 8003b56:	d415      	bmi.n	8003b84 <USBD_StdItfReq+0x40>
 8003b58:	f894 329c 	ldrb.w	r3, [r4, #668]	; 0x29c
 8003b5c:	3b01      	subs	r3, #1
 8003b5e:	2b02      	cmp	r3, #2
 8003b60:	d810      	bhi.n	8003b84 <USBD_StdItfReq+0x40>
 8003b62:	792b      	ldrb	r3, [r5, #4]
 8003b64:	2b01      	cmp	r3, #1
 8003b66:	d80d      	bhi.n	8003b84 <USBD_StdItfReq+0x40>
 8003b68:	f8d4 32b4 	ldr.w	r3, [r4, #692]	; 0x2b4
 8003b6c:	4629      	mov	r1, r5
 8003b6e:	689b      	ldr	r3, [r3, #8]
 8003b70:	4620      	mov	r0, r4
 8003b72:	4798      	blx	r3
 8003b74:	88eb      	ldrh	r3, [r5, #6]
 8003b76:	b91b      	cbnz	r3, 8003b80 <USBD_StdItfReq+0x3c>
 8003b78:	b910      	cbnz	r0, 8003b80 <USBD_StdItfReq+0x3c>
 8003b7a:	4620      	mov	r0, r4
 8003b7c:	f000 f8f5 	bl	8003d6a <USBD_CtlSendStatus>
 8003b80:	2000      	movs	r0, #0
 8003b82:	bd38      	pop	{r3, r4, r5, pc}
 8003b84:	4620      	mov	r0, r4
 8003b86:	f7ff fea7 	bl	80038d8 <USBD_CtlError.constprop.0>
 8003b8a:	e7f9      	b.n	8003b80 <USBD_StdItfReq+0x3c>

08003b8c <USBD_StdEPReq>:
 8003b8c:	b538      	push	{r3, r4, r5, lr}
 8003b8e:	780a      	ldrb	r2, [r1, #0]
 8003b90:	4604      	mov	r4, r0
 8003b92:	f002 0260 	and.w	r2, r2, #96	; 0x60
 8003b96:	2a20      	cmp	r2, #32
 8003b98:	460b      	mov	r3, r1
 8003b9a:	d027      	beq.n	8003bec <USBD_StdEPReq+0x60>
 8003b9c:	2a40      	cmp	r2, #64	; 0x40
 8003b9e:	d025      	beq.n	8003bec <USBD_StdEPReq+0x60>
 8003ba0:	bb92      	cbnz	r2, 8003c08 <USBD_StdEPReq+0x7c>
 8003ba2:	785a      	ldrb	r2, [r3, #1]
 8003ba4:	888d      	ldrh	r5, [r1, #4]
 8003ba6:	2a01      	cmp	r2, #1
 8003ba8:	7909      	ldrb	r1, [r1, #4]
 8003baa:	d03d      	beq.n	8003c28 <USBD_StdEPReq+0x9c>
 8003bac:	2a03      	cmp	r2, #3
 8003bae:	d025      	beq.n	8003bfc <USBD_StdEPReq+0x70>
 8003bb0:	bb52      	cbnz	r2, 8003c08 <USBD_StdEPReq+0x7c>
 8003bb2:	f890 329c 	ldrb.w	r3, [r0, #668]	; 0x29c
 8003bb6:	2b02      	cmp	r3, #2
 8003bb8:	d04d      	beq.n	8003c56 <USBD_StdEPReq+0xca>
 8003bba:	2b03      	cmp	r3, #3
 8003bbc:	d124      	bne.n	8003c08 <USBD_StdEPReq+0x7c>
 8003bbe:	2214      	movs	r2, #20
 8003bc0:	f001 030f 	and.w	r3, r1, #15
 8003bc4:	f015 0f80 	tst.w	r5, #128	; 0x80
 8003bc8:	fb02 0303 	mla	r3, r2, r3, r0
 8003bcc:	d054      	beq.n	8003c78 <USBD_StdEPReq+0xec>
 8003bce:	699b      	ldr	r3, [r3, #24]
 8003bd0:	b1d3      	cbz	r3, 8003c08 <USBD_StdEPReq+0x7c>
 8003bd2:	2314      	movs	r3, #20
 8003bd4:	f001 057f 	and.w	r5, r1, #127	; 0x7f
 8003bd8:	fb05 3303 	mla	r3, r5, r3, r3
 8003bdc:	18c5      	adds	r5, r0, r3
 8003bde:	f011 037f 	ands.w	r3, r1, #127	; 0x7f
 8003be2:	d155      	bne.n	8003c90 <USBD_StdEPReq+0x104>
 8003be4:	602b      	str	r3, [r5, #0]
 8003be6:	2202      	movs	r2, #2
 8003be8:	4629      	mov	r1, r5
 8003bea:	e041      	b.n	8003c70 <USBD_StdEPReq+0xe4>
 8003bec:	f8d4 22b4 	ldr.w	r2, [r4, #692]	; 0x2b4
 8003bf0:	4619      	mov	r1, r3
 8003bf2:	4620      	mov	r0, r4
 8003bf4:	6892      	ldr	r2, [r2, #8]
 8003bf6:	4790      	blx	r2
 8003bf8:	2000      	movs	r0, #0
 8003bfa:	bd38      	pop	{r3, r4, r5, pc}
 8003bfc:	f890 229c 	ldrb.w	r2, [r0, #668]	; 0x29c
 8003c00:	2a02      	cmp	r2, #2
 8003c02:	d01f      	beq.n	8003c44 <USBD_StdEPReq+0xb8>
 8003c04:	2a03      	cmp	r2, #3
 8003c06:	d003      	beq.n	8003c10 <USBD_StdEPReq+0x84>
 8003c08:	4620      	mov	r0, r4
 8003c0a:	f7ff fe65 	bl	80038d8 <USBD_CtlError.constprop.0>
 8003c0e:	e7f3      	b.n	8003bf8 <USBD_StdEPReq+0x6c>
 8003c10:	885a      	ldrh	r2, [r3, #2]
 8003c12:	b92a      	cbnz	r2, 8003c20 <USBD_StdEPReq+0x94>
 8003c14:	064a      	lsls	r2, r1, #25
 8003c16:	d003      	beq.n	8003c20 <USBD_StdEPReq+0x94>
 8003c18:	88db      	ldrh	r3, [r3, #6]
 8003c1a:	b90b      	cbnz	r3, 8003c20 <USBD_StdEPReq+0x94>
 8003c1c:	f001 ff0c 	bl	8005a38 <USBD_LL_StallEP>
 8003c20:	4620      	mov	r0, r4
 8003c22:	f000 f8a2 	bl	8003d6a <USBD_CtlSendStatus>
 8003c26:	e7e7      	b.n	8003bf8 <USBD_StdEPReq+0x6c>
 8003c28:	f890 229c 	ldrb.w	r2, [r0, #668]	; 0x29c
 8003c2c:	2a02      	cmp	r2, #2
 8003c2e:	d009      	beq.n	8003c44 <USBD_StdEPReq+0xb8>
 8003c30:	2a03      	cmp	r2, #3
 8003c32:	d1e9      	bne.n	8003c08 <USBD_StdEPReq+0x7c>
 8003c34:	885b      	ldrh	r3, [r3, #2]
 8003c36:	2b00      	cmp	r3, #0
 8003c38:	d1de      	bne.n	8003bf8 <USBD_StdEPReq+0x6c>
 8003c3a:	064d      	lsls	r5, r1, #25
 8003c3c:	d0f0      	beq.n	8003c20 <USBD_StdEPReq+0x94>
 8003c3e:	f001 ff04 	bl	8005a4a <USBD_LL_ClearStallEP>
 8003c42:	e7ed      	b.n	8003c20 <USBD_StdEPReq+0x94>
 8003c44:	064b      	lsls	r3, r1, #25
 8003c46:	d0df      	beq.n	8003c08 <USBD_StdEPReq+0x7c>
 8003c48:	f001 fef6 	bl	8005a38 <USBD_LL_StallEP>
 8003c4c:	2180      	movs	r1, #128	; 0x80
 8003c4e:	4620      	mov	r0, r4
 8003c50:	f001 fef2 	bl	8005a38 <USBD_LL_StallEP>
 8003c54:	e7d0      	b.n	8003bf8 <USBD_StdEPReq+0x6c>
 8003c56:	064a      	lsls	r2, r1, #25
 8003c58:	d1d6      	bne.n	8003c08 <USBD_StdEPReq+0x7c>
 8003c5a:	062b      	lsls	r3, r5, #24
 8003c5c:	f04f 0300 	mov.w	r3, #0
 8003c60:	f04f 0202 	mov.w	r2, #2
 8003c64:	bf4c      	ite	mi
 8003c66:	f100 0114 	addmi.w	r1, r0, #20
 8003c6a:	f500 71aa 	addpl.w	r1, r0, #340	; 0x154
 8003c6e:	600b      	str	r3, [r1, #0]
 8003c70:	4620      	mov	r0, r4
 8003c72:	f000 f850 	bl	8003d16 <USBD_CtlSendData>
 8003c76:	e7bf      	b.n	8003bf8 <USBD_StdEPReq+0x6c>
 8003c78:	f8d3 3158 	ldr.w	r3, [r3, #344]	; 0x158
 8003c7c:	2b00      	cmp	r3, #0
 8003c7e:	d0c3      	beq.n	8003c08 <USBD_StdEPReq+0x7c>
 8003c80:	2314      	movs	r3, #20
 8003c82:	f001 057f 	and.w	r5, r1, #127	; 0x7f
 8003c86:	fb03 0505 	mla	r5, r3, r5, r0
 8003c8a:	f505 75aa 	add.w	r5, r5, #340	; 0x154
 8003c8e:	e7a6      	b.n	8003bde <USBD_StdEPReq+0x52>
 8003c90:	4620      	mov	r0, r4
 8003c92:	f001 fee3 	bl	8005a5c <USBD_LL_IsStallEP>
 8003c96:	b108      	cbz	r0, 8003c9c <USBD_StdEPReq+0x110>
 8003c98:	2301      	movs	r3, #1
 8003c9a:	e7a3      	b.n	8003be4 <USBD_StdEPReq+0x58>
 8003c9c:	6028      	str	r0, [r5, #0]
 8003c9e:	e7a2      	b.n	8003be6 <USBD_StdEPReq+0x5a>

08003ca0 <USBD_ParseSetupRequest>:
 8003ca0:	780b      	ldrb	r3, [r1, #0]
 8003ca2:	7003      	strb	r3, [r0, #0]
 8003ca4:	784b      	ldrb	r3, [r1, #1]
 8003ca6:	7043      	strb	r3, [r0, #1]
 8003ca8:	78ca      	ldrb	r2, [r1, #3]
 8003caa:	788b      	ldrb	r3, [r1, #2]
 8003cac:	eb03 2302 	add.w	r3, r3, r2, lsl #8
 8003cb0:	8043      	strh	r3, [r0, #2]
 8003cb2:	794a      	ldrb	r2, [r1, #5]
 8003cb4:	790b      	ldrb	r3, [r1, #4]
 8003cb6:	eb03 2302 	add.w	r3, r3, r2, lsl #8
 8003cba:	8083      	strh	r3, [r0, #4]
 8003cbc:	79ca      	ldrb	r2, [r1, #7]
 8003cbe:	798b      	ldrb	r3, [r1, #6]
 8003cc0:	eb03 2302 	add.w	r3, r3, r2, lsl #8
 8003cc4:	80c3      	strh	r3, [r0, #6]
 8003cc6:	4770      	bx	lr

08003cc8 <USBD_CtlError>:
 8003cc8:	b510      	push	{r4, lr}
 8003cca:	4604      	mov	r4, r0
 8003ccc:	2180      	movs	r1, #128	; 0x80
 8003cce:	f001 feb3 	bl	8005a38 <USBD_LL_StallEP>
 8003cd2:	4620      	mov	r0, r4
 8003cd4:	e8bd 4010 	ldmia.w	sp!, {r4, lr}
 8003cd8:	2100      	movs	r1, #0
 8003cda:	f001 bead 	b.w	8005a38 <USBD_LL_StallEP>

08003cde <USBD_GetString>:
 8003cde:	b530      	push	{r4, r5, lr}
 8003ce0:	b188      	cbz	r0, 8003d06 <USBD_GetString+0x28>
 8003ce2:	2400      	movs	r4, #0
 8003ce4:	3801      	subs	r0, #1
 8003ce6:	4623      	mov	r3, r4
 8003ce8:	3401      	adds	r4, #1
 8003cea:	5d05      	ldrb	r5, [r0, r4]
 8003cec:	2d00      	cmp	r5, #0
 8003cee:	d1fa      	bne.n	8003ce6 <USBD_GetString+0x8>
 8003cf0:	b2db      	uxtb	r3, r3
 8003cf2:	3301      	adds	r3, #1
 8003cf4:	005b      	lsls	r3, r3, #1
 8003cf6:	8013      	strh	r3, [r2, #0]
 8003cf8:	700b      	strb	r3, [r1, #0]
 8003cfa:	2303      	movs	r3, #3
 8003cfc:	704b      	strb	r3, [r1, #1]
 8003cfe:	2302      	movs	r3, #2
 8003d00:	f810 4f01 	ldrb.w	r4, [r0, #1]!
 8003d04:	b904      	cbnz	r4, 8003d08 <USBD_GetString+0x2a>
 8003d06:	bd30      	pop	{r4, r5, pc}
 8003d08:	1c5a      	adds	r2, r3, #1
 8003d0a:	54cc      	strb	r4, [r1, r3]
 8003d0c:	b2d2      	uxtb	r2, r2
 8003d0e:	3302      	adds	r3, #2
 8003d10:	b2db      	uxtb	r3, r3
 8003d12:	548d      	strb	r5, [r1, r2]
 8003d14:	e7f4      	b.n	8003d00 <USBD_GetString+0x22>

08003d16 <USBD_CtlSendData>:
 8003d16:	4613      	mov	r3, r2
 8003d18:	2202      	movs	r2, #2
 8003d1a:	b510      	push	{r4, lr}
 8003d1c:	e9c0 3307 	strd	r3, r3, [r0, #28]
 8003d20:	f8c0 2294 	str.w	r2, [r0, #660]	; 0x294
 8003d24:	460a      	mov	r2, r1
 8003d26:	2100      	movs	r1, #0
 8003d28:	f001 feb3 	bl	8005a92 <USBD_LL_Transmit>
 8003d2c:	2000      	movs	r0, #0
 8003d2e:	bd10      	pop	{r4, pc}

08003d30 <USBD_CtlContinueSendData>:
 8003d30:	b508      	push	{r3, lr}
 8003d32:	4613      	mov	r3, r2
 8003d34:	460a      	mov	r2, r1
 8003d36:	2100      	movs	r1, #0
 8003d38:	f001 feab 	bl	8005a92 <USBD_LL_Transmit>
 8003d3c:	2000      	movs	r0, #0
 8003d3e:	bd08      	pop	{r3, pc}

08003d40 <USBD_CtlPrepareRx>:
 8003d40:	4613      	mov	r3, r2
 8003d42:	2203      	movs	r2, #3
 8003d44:	b510      	push	{r4, lr}
 8003d46:	e9c0 3357 	strd	r3, r3, [r0, #348]	; 0x15c
 8003d4a:	f8c0 2294 	str.w	r2, [r0, #660]	; 0x294
 8003d4e:	460a      	mov	r2, r1
 8003d50:	2100      	movs	r1, #0
 8003d52:	f001 fea7 	bl	8005aa4 <USBD_LL_PrepareReceive>
 8003d56:	2000      	movs	r0, #0
 8003d58:	bd10      	pop	{r4, pc}

08003d5a <USBD_CtlContinueRx>:
 8003d5a:	b508      	push	{r3, lr}
 8003d5c:	4613      	mov	r3, r2
 8003d5e:	460a      	mov	r2, r1
 8003d60:	2100      	movs	r1, #0
 8003d62:	f001 fe9f 	bl	8005aa4 <USBD_LL_PrepareReceive>
 8003d66:	2000      	movs	r0, #0
 8003d68:	bd08      	pop	{r3, pc}

08003d6a <USBD_CtlSendStatus>:
 8003d6a:	b508      	push	{r3, lr}
 8003d6c:	2304      	movs	r3, #4
 8003d6e:	f8c0 3294 	str.w	r3, [r0, #660]	; 0x294
 8003d72:	2300      	movs	r3, #0
 8003d74:	461a      	mov	r2, r3
 8003d76:	4619      	mov	r1, r3
 8003d78:	f001 fe8b 	bl	8005a92 <USBD_LL_Transmit>
 8003d7c:	2000      	movs	r0, #0
 8003d7e:	bd08      	pop	{r3, pc}

08003d80 <USBD_CtlReceiveStatus>:
 8003d80:	b508      	push	{r3, lr}
 8003d82:	2305      	movs	r3, #5
 8003d84:	f8c0 3294 	str.w	r3, [r0, #660]	; 0x294
 8003d88:	2300      	movs	r3, #0
 8003d8a:	461a      	mov	r2, r3
 8003d8c:	4619      	mov	r1, r3
 8003d8e:	f001 fe89 	bl	8005aa4 <USBD_LL_PrepareReceive>
 8003d92:	2000      	movs	r0, #0
 8003d94:	bd08      	pop	{r3, pc}
	...

08003d98 <osKernelInitialize>:
 8003d98:	f3ef 8305 	mrs	r3, IPSR
 8003d9c:	b113      	cbz	r3, 8003da4 <osKernelInitialize+0xc>
 8003d9e:	f06f 0005 	mvn.w	r0, #5
 8003da2:	4770      	bx	lr
 8003da4:	f3ef 8310 	mrs	r3, PRIMASK
 8003da8:	2b00      	cmp	r3, #0
 8003daa:	d1f8      	bne.n	8003d9e <osKernelInitialize+0x6>
 8003dac:	4b07      	ldr	r3, [pc, #28]	; (8003dcc <osKernelInitialize+0x34>)
 8003dae:	6818      	ldr	r0, [r3, #0]
 8003db0:	2802      	cmp	r0, #2
 8003db2:	d106      	bne.n	8003dc2 <osKernelInitialize+0x2a>
 8003db4:	f3ef 8311 	mrs	r3, BASEPRI
 8003db8:	2b00      	cmp	r3, #0
 8003dba:	d1f0      	bne.n	8003d9e <osKernelInitialize+0x6>
 8003dbc:	f04f 30ff 	mov.w	r0, #4294967295
 8003dc0:	4770      	bx	lr
 8003dc2:	2800      	cmp	r0, #0
 8003dc4:	d1fa      	bne.n	8003dbc <osKernelInitialize+0x24>
 8003dc6:	2201      	movs	r2, #1
 8003dc8:	601a      	str	r2, [r3, #0]
 8003dca:	4770      	bx	lr
 8003dcc:	200008e0 	.word	0x200008e0

08003dd0 <osKernelStart>:
 8003dd0:	b510      	push	{r4, lr}
 8003dd2:	f3ef 8305 	mrs	r3, IPSR
 8003dd6:	b113      	cbz	r3, 8003dde <osKernelStart+0xe>
 8003dd8:	f06f 0005 	mvn.w	r0, #5
 8003ddc:	bd10      	pop	{r4, pc}
 8003dde:	f3ef 8410 	mrs	r4, PRIMASK
 8003de2:	2c00      	cmp	r4, #0
 8003de4:	d1f8      	bne.n	8003dd8 <osKernelStart+0x8>
 8003de6:	4b09      	ldr	r3, [pc, #36]	; (8003e0c <osKernelStart+0x3c>)
 8003de8:	681a      	ldr	r2, [r3, #0]
 8003dea:	2a02      	cmp	r2, #2
 8003dec:	d106      	bne.n	8003dfc <osKernelStart+0x2c>
 8003dee:	f3ef 8311 	mrs	r3, BASEPRI
 8003df2:	2b00      	cmp	r3, #0
 8003df4:	d1f0      	bne.n	8003dd8 <osKernelStart+0x8>
 8003df6:	f04f 30ff 	mov.w	r0, #4294967295
 8003dfa:	e7ef      	b.n	8003ddc <osKernelStart+0xc>
 8003dfc:	2a01      	cmp	r2, #1
 8003dfe:	d1fa      	bne.n	8003df6 <osKernelStart+0x26>
 8003e00:	2202      	movs	r2, #2
 8003e02:	601a      	str	r2, [r3, #0]
 8003e04:	f000 fd48 	bl	8004898 <vTaskStartScheduler>
 8003e08:	4620      	mov	r0, r4
 8003e0a:	e7e7      	b.n	8003ddc <osKernelStart+0xc>
 8003e0c:	200008e0 	.word	0x200008e0

08003e10 <osThreadNew>:
 8003e10:	b5f0      	push	{r4, r5, r6, r7, lr}
 8003e12:	4614      	mov	r4, r2
 8003e14:	2200      	movs	r2, #0
 8003e16:	b087      	sub	sp, #28
 8003e18:	460b      	mov	r3, r1
 8003e1a:	9205      	str	r2, [sp, #20]
 8003e1c:	f3ef 8205 	mrs	r2, IPSR
 8003e20:	bb52      	cbnz	r2, 8003e78 <osThreadNew+0x68>
 8003e22:	f3ef 8210 	mrs	r2, PRIMASK
 8003e26:	bb3a      	cbnz	r2, 8003e78 <osThreadNew+0x68>
 8003e28:	4a26      	ldr	r2, [pc, #152]	; (8003ec4 <osThreadNew+0xb4>)
 8003e2a:	6812      	ldr	r2, [r2, #0]
 8003e2c:	2a02      	cmp	r2, #2
 8003e2e:	d102      	bne.n	8003e36 <osThreadNew+0x26>
 8003e30:	f3ef 8211 	mrs	r2, BASEPRI
 8003e34:	bb02      	cbnz	r2, 8003e78 <osThreadNew+0x68>
 8003e36:	b1f8      	cbz	r0, 8003e78 <osThreadNew+0x68>
 8003e38:	2200      	movs	r2, #0
 8003e3a:	f88d 2013 	strb.w	r2, [sp, #19]
 8003e3e:	2c00      	cmp	r4, #0
 8003e40:	d030      	beq.n	8003ea4 <osThreadNew+0x94>
 8003e42:	6821      	ldr	r1, [r4, #0]
 8003e44:	b909      	cbnz	r1, 8003e4a <osThreadNew+0x3a>
 8003e46:	f10d 0113 	add.w	r1, sp, #19
 8003e4a:	69a5      	ldr	r5, [r4, #24]
 8003e4c:	2d00      	cmp	r5, #0
 8003e4e:	bf08      	it	eq
 8003e50:	2518      	moveq	r5, #24
 8003e52:	1e6a      	subs	r2, r5, #1
 8003e54:	2a37      	cmp	r2, #55	; 0x37
 8003e56:	46ac      	mov	ip, r5
 8003e58:	d82a      	bhi.n	8003eb0 <osThreadNew+0xa0>
 8003e5a:	6862      	ldr	r2, [r4, #4]
 8003e5c:	07d2      	lsls	r2, r2, #31
 8003e5e:	d427      	bmi.n	8003eb0 <osThreadNew+0xa0>
 8003e60:	6966      	ldr	r6, [r4, #20]
 8003e62:	b166      	cbz	r6, 8003e7e <osThreadNew+0x6e>
 8003e64:	08b2      	lsrs	r2, r6, #2
 8003e66:	e9d4 7e02 	ldrd	r7, lr, [r4, #8]
 8003e6a:	b157      	cbz	r7, 8003e82 <osThreadNew+0x72>
 8003e6c:	f1be 0f5b 	cmp.w	lr, #91	; 0x5b
 8003e70:	d902      	bls.n	8003e78 <osThreadNew+0x68>
 8003e72:	6924      	ldr	r4, [r4, #16]
 8003e74:	b104      	cbz	r4, 8003e78 <osThreadNew+0x68>
 8003e76:	b9ee      	cbnz	r6, 8003eb4 <osThreadNew+0xa4>
 8003e78:	9805      	ldr	r0, [sp, #20]
 8003e7a:	b007      	add	sp, #28
 8003e7c:	bdf0      	pop	{r4, r5, r6, r7, pc}
 8003e7e:	2240      	movs	r2, #64	; 0x40
 8003e80:	e7f1      	b.n	8003e66 <osThreadNew+0x56>
 8003e82:	f1be 0f00 	cmp.w	lr, #0
 8003e86:	d1f7      	bne.n	8003e78 <osThreadNew+0x68>
 8003e88:	6924      	ldr	r4, [r4, #16]
 8003e8a:	2c00      	cmp	r4, #0
 8003e8c:	d1f4      	bne.n	8003e78 <osThreadNew+0x68>
 8003e8e:	ac05      	add	r4, sp, #20
 8003e90:	e9cd c400 	strd	ip, r4, [sp]
 8003e94:	b292      	uxth	r2, r2
 8003e96:	f000 fcd1 	bl	800483c <xTaskCreate>
 8003e9a:	2801      	cmp	r0, #1
 8003e9c:	bf1c      	itt	ne
 8003e9e:	2300      	movne	r3, #0
 8003ea0:	9305      	strne	r3, [sp, #20]
 8003ea2:	e7e9      	b.n	8003e78 <osThreadNew+0x68>
 8003ea4:	f04f 0c18 	mov.w	ip, #24
 8003ea8:	2240      	movs	r2, #64	; 0x40
 8003eaa:	f10d 0113 	add.w	r1, sp, #19
 8003eae:	e7ee      	b.n	8003e8e <osThreadNew+0x7e>
 8003eb0:	2000      	movs	r0, #0
 8003eb2:	e7e2      	b.n	8003e7a <osThreadNew+0x6a>
 8003eb4:	e9cd 4701 	strd	r4, r7, [sp, #4]
 8003eb8:	9500      	str	r5, [sp, #0]
 8003eba:	f000 fc88 	bl	80047ce <xTaskCreateStatic>
 8003ebe:	9005      	str	r0, [sp, #20]
 8003ec0:	e7da      	b.n	8003e78 <osThreadNew+0x68>
 8003ec2:	bf00      	nop
 8003ec4:	200008e0 	.word	0x200008e0

08003ec8 <osDelay>:
 8003ec8:	b508      	push	{r3, lr}
 8003eca:	f3ef 8305 	mrs	r3, IPSR
 8003ece:	b113      	cbz	r3, 8003ed6 <osDelay+0xe>
 8003ed0:	f06f 0005 	mvn.w	r0, #5
 8003ed4:	bd08      	pop	{r3, pc}
 8003ed6:	f3ef 8310 	mrs	r3, PRIMASK
 8003eda:	2b00      	cmp	r3, #0
 8003edc:	d1f8      	bne.n	8003ed0 <osDelay+0x8>
 8003ede:	4b07      	ldr	r3, [pc, #28]	; (8003efc <osDelay+0x34>)
 8003ee0:	681b      	ldr	r3, [r3, #0]
 8003ee2:	2b02      	cmp	r3, #2
 8003ee4:	d103      	bne.n	8003eee <osDelay+0x26>
 8003ee6:	f3ef 8311 	mrs	r3, BASEPRI
 8003eea:	2b00      	cmp	r3, #0
 8003eec:	d1f0      	bne.n	8003ed0 <osDelay+0x8>
 8003eee:	2800      	cmp	r0, #0
 8003ef0:	d0f0      	beq.n	8003ed4 <osDelay+0xc>
 8003ef2:	f000 fe29 	bl	8004b48 <vTaskDelay>
 8003ef6:	2000      	movs	r0, #0
 8003ef8:	e7ec      	b.n	8003ed4 <osDelay+0xc>
 8003efa:	bf00      	nop
 8003efc:	200008e0 	.word	0x200008e0

08003f00 <vApplicationGetIdleTaskMemory>:
 8003f00:	4b03      	ldr	r3, [pc, #12]	; (8003f10 <vApplicationGetIdleTaskMemory+0x10>)
 8003f02:	6003      	str	r3, [r0, #0]
 8003f04:	4b03      	ldr	r3, [pc, #12]	; (8003f14 <vApplicationGetIdleTaskMemory+0x14>)
 8003f06:	600b      	str	r3, [r1, #0]
 8003f08:	2340      	movs	r3, #64	; 0x40
 8003f0a:	6013      	str	r3, [r2, #0]
 8003f0c:	4770      	bx	lr
 8003f0e:	bf00      	nop
 8003f10:	20000884 	.word	0x20000884
 8003f14:	20000784 	.word	0x20000784

08003f18 <vApplicationGetTimerTaskMemory>:
 8003f18:	4b03      	ldr	r3, [pc, #12]	; (8003f28 <vApplicationGetTimerTaskMemory+0x10>)
 8003f1a:	6003      	str	r3, [r0, #0]
 8003f1c:	4b03      	ldr	r3, [pc, #12]	; (8003f2c <vApplicationGetTimerTaskMemory+0x14>)
 8003f1e:	600b      	str	r3, [r1, #0]
 8003f20:	2380      	movs	r3, #128	; 0x80
 8003f22:	6013      	str	r3, [r2, #0]
 8003f24:	4770      	bx	lr
 8003f26:	bf00      	nop
 8003f28:	20000ae4 	.word	0x20000ae4
 8003f2c:	200008e4 	.word	0x200008e4

08003f30 <vListInitialise>:
 8003f30:	f04f 32ff 	mov.w	r2, #4294967295
 8003f34:	f100 0308 	add.w	r3, r0, #8
 8003f38:	e9c0 2302 	strd	r2, r3, [r0, #8]
 8003f3c:	6043      	str	r3, [r0, #4]
 8003f3e:	6103      	str	r3, [r0, #16]
 8003f40:	2300      	movs	r3, #0
 8003f42:	6003      	str	r3, [r0, #0]
 8003f44:	4770      	bx	lr

08003f46 <vListInitialiseItem>:
 8003f46:	2300      	movs	r3, #0
 8003f48:	6103      	str	r3, [r0, #16]
 8003f4a:	4770      	bx	lr

08003f4c <vListInsertEnd>:
 8003f4c:	6843      	ldr	r3, [r0, #4]
 8003f4e:	689a      	ldr	r2, [r3, #8]
 8003f50:	604b      	str	r3, [r1, #4]
 8003f52:	608a      	str	r2, [r1, #8]
 8003f54:	689a      	ldr	r2, [r3, #8]
 8003f56:	6051      	str	r1, [r2, #4]
 8003f58:	6099      	str	r1, [r3, #8]
 8003f5a:	6803      	ldr	r3, [r0, #0]
 8003f5c:	6108      	str	r0, [r1, #16]
 8003f5e:	3301      	adds	r3, #1
 8003f60:	6003      	str	r3, [r0, #0]
 8003f62:	4770      	bx	lr

08003f64 <vListInsert>:
 8003f64:	b530      	push	{r4, r5, lr}
 8003f66:	680c      	ldr	r4, [r1, #0]
 8003f68:	1c63      	adds	r3, r4, #1
 8003f6a:	d10a      	bne.n	8003f82 <vListInsert+0x1e>
 8003f6c:	6903      	ldr	r3, [r0, #16]
 8003f6e:	685a      	ldr	r2, [r3, #4]
 8003f70:	604a      	str	r2, [r1, #4]
 8003f72:	6091      	str	r1, [r2, #8]
 8003f74:	608b      	str	r3, [r1, #8]
 8003f76:	6059      	str	r1, [r3, #4]
 8003f78:	6803      	ldr	r3, [r0, #0]
 8003f7a:	6108      	str	r0, [r1, #16]
 8003f7c:	3301      	adds	r3, #1
 8003f7e:	6003      	str	r3, [r0, #0]
 8003f80:	bd30      	pop	{r4, r5, pc}
 8003f82:	f100 0208 	add.w	r2, r0, #8
 8003f86:	4613      	mov	r3, r2
 8003f88:	6852      	ldr	r2, [r2, #4]
 8003f8a:	6815      	ldr	r5, [r2, #0]
 8003f8c:	42a5      	cmp	r5, r4
 8003f8e:	d9fa      	bls.n	8003f86 <vListInsert+0x22>
 8003f90:	e7ed      	b.n	8003f6e <vListInsert+0xa>

08003f92 <uxListRemove>:
 8003f92:	6903      	ldr	r3, [r0, #16]
 8003f94:	e9d0 1201 	ldrd	r1, r2, [r0, #4]
 8003f98:	608a      	str	r2, [r1, #8]
 8003f9a:	6051      	str	r1, [r2, #4]
 8003f9c:	6859      	ldr	r1, [r3, #4]
 8003f9e:	4281      	cmp	r1, r0
 8003fa0:	bf08      	it	eq
 8003fa2:	605a      	streq	r2, [r3, #4]
 8003fa4:	2200      	movs	r2, #0
 8003fa6:	6102      	str	r2, [r0, #16]
 8003fa8:	681a      	ldr	r2, [r3, #0]
 8003faa:	3a01      	subs	r2, #1
 8003fac:	601a      	str	r2, [r3, #0]
 8003fae:	6818      	ldr	r0, [r3, #0]
 8003fb0:	4770      	bx	lr

08003fb2 <prvIsQueueEmpty>:
 8003fb2:	b510      	push	{r4, lr}
 8003fb4:	4604      	mov	r4, r0
 8003fb6:	f001 f975 	bl	80052a4 <vPortEnterCritical>
 8003fba:	6ba4      	ldr	r4, [r4, #56]	; 0x38
 8003fbc:	f001 f992 	bl	80052e4 <vPortExitCritical>
 8003fc0:	fab4 f084 	clz	r0, r4
 8003fc4:	0940      	lsrs	r0, r0, #5
 8003fc6:	bd10      	pop	{r4, pc}

08003fc8 <prvCopyDataToQueue>:
 8003fc8:	b5f8      	push	{r3, r4, r5, r6, r7, lr}
 8003fca:	4615      	mov	r5, r2
 8003fcc:	6c02      	ldr	r2, [r0, #64]	; 0x40
 8003fce:	4604      	mov	r4, r0
 8003fd0:	6b86      	ldr	r6, [r0, #56]	; 0x38
 8003fd2:	b952      	cbnz	r2, 8003fea <prvCopyDataToQueue+0x22>
 8003fd4:	6807      	ldr	r7, [r0, #0]
 8003fd6:	bb47      	cbnz	r7, 800402a <prvCopyDataToQueue+0x62>
 8003fd8:	6840      	ldr	r0, [r0, #4]
 8003fda:	f000 fee7 	bl	8004dac <xTaskPriorityDisinherit>
 8003fde:	4605      	mov	r5, r0
 8003fe0:	6067      	str	r7, [r4, #4]
 8003fe2:	3601      	adds	r6, #1
 8003fe4:	4628      	mov	r0, r5
 8003fe6:	63a6      	str	r6, [r4, #56]	; 0x38
 8003fe8:	bdf8      	pop	{r3, r4, r5, r6, r7, pc}
 8003fea:	b965      	cbnz	r5, 8004006 <prvCopyDataToQueue+0x3e>
 8003fec:	6880      	ldr	r0, [r0, #8]
 8003fee:	f003 fa13 	bl	8007418 <memcpy>
 8003ff2:	68a3      	ldr	r3, [r4, #8]
 8003ff4:	6c22      	ldr	r2, [r4, #64]	; 0x40
 8003ff6:	4413      	add	r3, r2
 8003ff8:	6862      	ldr	r2, [r4, #4]
 8003ffa:	60a3      	str	r3, [r4, #8]
 8003ffc:	4293      	cmp	r3, r2
 8003ffe:	d3f0      	bcc.n	8003fe2 <prvCopyDataToQueue+0x1a>
 8004000:	6823      	ldr	r3, [r4, #0]
 8004002:	60a3      	str	r3, [r4, #8]
 8004004:	e7ed      	b.n	8003fe2 <prvCopyDataToQueue+0x1a>
 8004006:	68c0      	ldr	r0, [r0, #12]
 8004008:	f003 fa06 	bl	8007418 <memcpy>
 800400c:	6c22      	ldr	r2, [r4, #64]	; 0x40
 800400e:	68e3      	ldr	r3, [r4, #12]
 8004010:	4251      	negs	r1, r2
 8004012:	1a9b      	subs	r3, r3, r2
 8004014:	6822      	ldr	r2, [r4, #0]
 8004016:	60e3      	str	r3, [r4, #12]
 8004018:	4293      	cmp	r3, r2
 800401a:	bf3e      	ittt	cc
 800401c:	6863      	ldrcc	r3, [r4, #4]
 800401e:	185b      	addcc	r3, r3, r1
 8004020:	60e3      	strcc	r3, [r4, #12]
 8004022:	2d02      	cmp	r5, #2
 8004024:	d101      	bne.n	800402a <prvCopyDataToQueue+0x62>
 8004026:	b116      	cbz	r6, 800402e <prvCopyDataToQueue+0x66>
 8004028:	3e01      	subs	r6, #1
 800402a:	2500      	movs	r5, #0
 800402c:	e7d9      	b.n	8003fe2 <prvCopyDataToQueue+0x1a>
 800402e:	4635      	mov	r5, r6
 8004030:	e7d7      	b.n	8003fe2 <prvCopyDataToQueue+0x1a>

08004032 <prvCopyDataFromQueue>:
 8004032:	4603      	mov	r3, r0
 8004034:	6c1a      	ldr	r2, [r3, #64]	; 0x40
 8004036:	4608      	mov	r0, r1
 8004038:	b410      	push	{r4}
 800403a:	b162      	cbz	r2, 8004056 <prvCopyDataFromQueue+0x24>
 800403c:	68dc      	ldr	r4, [r3, #12]
 800403e:	6859      	ldr	r1, [r3, #4]
 8004040:	4414      	add	r4, r2
 8004042:	428c      	cmp	r4, r1
 8004044:	bf28      	it	cs
 8004046:	6819      	ldrcs	r1, [r3, #0]
 8004048:	60dc      	str	r4, [r3, #12]
 800404a:	bf28      	it	cs
 800404c:	60d9      	strcs	r1, [r3, #12]
 800404e:	68d9      	ldr	r1, [r3, #12]
 8004050:	bc10      	pop	{r4}
 8004052:	f003 b9e1 	b.w	8007418 <memcpy>
 8004056:	bc10      	pop	{r4}
 8004058:	4770      	bx	lr

0800405a <prvUnlockQueue>:
 800405a:	b570      	push	{r4, r5, r6, lr}
 800405c:	4604      	mov	r4, r0
 800405e:	f001 f921 	bl	80052a4 <vPortEnterCritical>
 8004062:	f894 5045 	ldrb.w	r5, [r4, #69]	; 0x45
 8004066:	f104 0624 	add.w	r6, r4, #36	; 0x24
 800406a:	b26d      	sxtb	r5, r5
 800406c:	2d00      	cmp	r5, #0
 800406e:	dc14      	bgt.n	800409a <prvUnlockQueue+0x40>
 8004070:	23ff      	movs	r3, #255	; 0xff
 8004072:	f884 3045 	strb.w	r3, [r4, #69]	; 0x45
 8004076:	f001 f935 	bl	80052e4 <vPortExitCritical>
 800407a:	f001 f913 	bl	80052a4 <vPortEnterCritical>
 800407e:	f894 5044 	ldrb.w	r5, [r4, #68]	; 0x44
 8004082:	f104 0610 	add.w	r6, r4, #16
 8004086:	b26d      	sxtb	r5, r5
 8004088:	2d00      	cmp	r5, #0
 800408a:	dc12      	bgt.n	80040b2 <prvUnlockQueue+0x58>
 800408c:	23ff      	movs	r3, #255	; 0xff
 800408e:	f884 3044 	strb.w	r3, [r4, #68]	; 0x44
 8004092:	e8bd 4070 	ldmia.w	sp!, {r4, r5, r6, lr}
 8004096:	f001 b925 	b.w	80052e4 <vPortExitCritical>
 800409a:	6a63      	ldr	r3, [r4, #36]	; 0x24
 800409c:	2b00      	cmp	r3, #0
 800409e:	d0e7      	beq.n	8004070 <prvUnlockQueue+0x16>
 80040a0:	4630      	mov	r0, r6
 80040a2:	f000 fde7 	bl	8004c74 <xTaskRemoveFromEventList>
 80040a6:	b108      	cbz	r0, 80040ac <prvUnlockQueue+0x52>
 80040a8:	f000 fe6a 	bl	8004d80 <vTaskMissedYield>
 80040ac:	3d01      	subs	r5, #1
 80040ae:	b26d      	sxtb	r5, r5
 80040b0:	e7dc      	b.n	800406c <prvUnlockQueue+0x12>
 80040b2:	6923      	ldr	r3, [r4, #16]
 80040b4:	2b00      	cmp	r3, #0
 80040b6:	d0e9      	beq.n	800408c <prvUnlockQueue+0x32>
 80040b8:	4630      	mov	r0, r6
 80040ba:	f000 fddb 	bl	8004c74 <xTaskRemoveFromEventList>
 80040be:	b108      	cbz	r0, 80040c4 <prvUnlockQueue+0x6a>
 80040c0:	f000 fe5e 	bl	8004d80 <vTaskMissedYield>
 80040c4:	3d01      	subs	r5, #1
 80040c6:	b26d      	sxtb	r5, r5
 80040c8:	e7de      	b.n	8004088 <prvUnlockQueue+0x2e>

080040ca <xQueueGenericReset>:
 80040ca:	b538      	push	{r3, r4, r5, lr}
 80040cc:	460d      	mov	r5, r1
 80040ce:	4604      	mov	r4, r0
 80040d0:	b940      	cbnz	r0, 80040e4 <xQueueGenericReset+0x1a>
 80040d2:	f04f 0350 	mov.w	r3, #80	; 0x50
 80040d6:	f383 8811 	msr	BASEPRI, r3
 80040da:	f3bf 8f6f 	isb	sy
 80040de:	f3bf 8f4f 	dsb	sy
 80040e2:	e7fe      	b.n	80040e2 <xQueueGenericReset+0x18>
 80040e4:	f001 f8de 	bl	80052a4 <vPortEnterCritical>
 80040e8:	e9d4 310f 	ldrd	r3, r1, [r4, #60]	; 0x3c
 80040ec:	434b      	muls	r3, r1
 80040ee:	6822      	ldr	r2, [r4, #0]
 80040f0:	18d0      	adds	r0, r2, r3
 80040f2:	1a5b      	subs	r3, r3, r1
 80040f4:	4413      	add	r3, r2
 80040f6:	6060      	str	r0, [r4, #4]
 80040f8:	60e3      	str	r3, [r4, #12]
 80040fa:	2000      	movs	r0, #0
 80040fc:	23ff      	movs	r3, #255	; 0xff
 80040fe:	63a0      	str	r0, [r4, #56]	; 0x38
 8004100:	60a2      	str	r2, [r4, #8]
 8004102:	f884 3044 	strb.w	r3, [r4, #68]	; 0x44
 8004106:	f884 3045 	strb.w	r3, [r4, #69]	; 0x45
 800410a:	b9a5      	cbnz	r5, 8004136 <xQueueGenericReset+0x6c>
 800410c:	6923      	ldr	r3, [r4, #16]
 800410e:	b173      	cbz	r3, 800412e <xQueueGenericReset+0x64>
 8004110:	f104 0010 	add.w	r0, r4, #16
 8004114:	f000 fdae 	bl	8004c74 <xTaskRemoveFromEventList>
 8004118:	b148      	cbz	r0, 800412e <xQueueGenericReset+0x64>
 800411a:	f04f 23e0 	mov.w	r3, #3758153728	; 0xe000e000
 800411e:	f04f 5280 	mov.w	r2, #268435456	; 0x10000000
 8004122:	f8c3 2d04 	str.w	r2, [r3, #3332]	; 0xd04
 8004126:	f3bf 8f4f 	dsb	sy
 800412a:	f3bf 8f6f 	isb	sy
 800412e:	f001 f8d9 	bl	80052e4 <vPortExitCritical>
 8004132:	2001      	movs	r0, #1
 8004134:	bd38      	pop	{r3, r4, r5, pc}
 8004136:	f104 0010 	add.w	r0, r4, #16
 800413a:	f7ff fef9 	bl	8003f30 <vListInitialise>
 800413e:	f104 0024 	add.w	r0, r4, #36	; 0x24
 8004142:	f7ff fef5 	bl	8003f30 <vListInitialise>
 8004146:	e7f2      	b.n	800412e <xQueueGenericReset+0x64>

08004148 <xQueueGenericCreateStatic>:
 8004148:	b537      	push	{r0, r1, r2, r4, r5, lr}
 800414a:	460d      	mov	r5, r1
 800414c:	461c      	mov	r4, r3
 800414e:	b940      	cbnz	r0, 8004162 <xQueueGenericCreateStatic+0x1a>
 8004150:	f04f 0350 	mov.w	r3, #80	; 0x50
 8004154:	f383 8811 	msr	BASEPRI, r3
 8004158:	f3bf 8f6f 	isb	sy
 800415c:	f3bf 8f4f 	dsb	sy
 8004160:	e7fe      	b.n	8004160 <xQueueGenericCreateStatic+0x18>
 8004162:	b943      	cbnz	r3, 8004176 <xQueueGenericCreateStatic+0x2e>
 8004164:	f04f 0350 	mov.w	r3, #80	; 0x50
 8004168:	f383 8811 	msr	BASEPRI, r3
 800416c:	f3bf 8f6f 	isb	sy
 8004170:	f3bf 8f4f 	dsb	sy
 8004174:	e7fe      	b.n	8004174 <xQueueGenericCreateStatic+0x2c>
 8004176:	b14a      	cbz	r2, 800418c <xQueueGenericCreateStatic+0x44>
 8004178:	b991      	cbnz	r1, 80041a0 <xQueueGenericCreateStatic+0x58>
 800417a:	f04f 0350 	mov.w	r3, #80	; 0x50
 800417e:	f383 8811 	msr	BASEPRI, r3
 8004182:	f3bf 8f6f 	isb	sy
 8004186:	f3bf 8f4f 	dsb	sy
 800418a:	e7fe      	b.n	800418a <xQueueGenericCreateStatic+0x42>
 800418c:	b141      	cbz	r1, 80041a0 <xQueueGenericCreateStatic+0x58>
 800418e:	f04f 0350 	mov.w	r3, #80	; 0x50
 8004192:	f383 8811 	msr	BASEPRI, r3
 8004196:	f3bf 8f6f 	isb	sy
 800419a:	f3bf 8f4f 	dsb	sy
 800419e:	e7fe      	b.n	800419e <xQueueGenericCreateStatic+0x56>
 80041a0:	2350      	movs	r3, #80	; 0x50
 80041a2:	9301      	str	r3, [sp, #4]
 80041a4:	9b01      	ldr	r3, [sp, #4]
 80041a6:	2b50      	cmp	r3, #80	; 0x50
 80041a8:	d008      	beq.n	80041bc <xQueueGenericCreateStatic+0x74>
 80041aa:	f04f 0350 	mov.w	r3, #80	; 0x50
 80041ae:	f383 8811 	msr	BASEPRI, r3
 80041b2:	f3bf 8f6f 	isb	sy
 80041b6:	f3bf 8f4f 	dsb	sy
 80041ba:	e7fe      	b.n	80041ba <xQueueGenericCreateStatic+0x72>
 80041bc:	2101      	movs	r1, #1
 80041be:	2d00      	cmp	r5, #0
 80041c0:	bf08      	it	eq
 80041c2:	4622      	moveq	r2, r4
 80041c4:	e9c4 050f 	strd	r0, r5, [r4, #60]	; 0x3c
 80041c8:	f884 1046 	strb.w	r1, [r4, #70]	; 0x46
 80041cc:	4620      	mov	r0, r4
 80041ce:	6022      	str	r2, [r4, #0]
 80041d0:	f7ff ff7b 	bl	80040ca <xQueueGenericReset>
 80041d4:	4620      	mov	r0, r4
 80041d6:	f89d 3018 	ldrb.w	r3, [sp, #24]
 80041da:	f884 304c 	strb.w	r3, [r4, #76]	; 0x4c
 80041de:	b003      	add	sp, #12
 80041e0:	bd30      	pop	{r4, r5, pc}

080041e2 <xQueueGenericSend>:
 80041e2:	e92d 43f0 	stmdb	sp!, {r4, r5, r6, r7, r8, r9, lr}
 80041e6:	b085      	sub	sp, #20
 80041e8:	4688      	mov	r8, r1
 80041ea:	461f      	mov	r7, r3
 80041ec:	4604      	mov	r4, r0
 80041ee:	9201      	str	r2, [sp, #4]
 80041f0:	b940      	cbnz	r0, 8004204 <xQueueGenericSend+0x22>
 80041f2:	f04f 0350 	mov.w	r3, #80	; 0x50
 80041f6:	f383 8811 	msr	BASEPRI, r3
 80041fa:	f3bf 8f6f 	isb	sy
 80041fe:	f3bf 8f4f 	dsb	sy
 8004202:	e7fe      	b.n	8004202 <xQueueGenericSend+0x20>
 8004204:	b951      	cbnz	r1, 800421c <xQueueGenericSend+0x3a>
 8004206:	6c03      	ldr	r3, [r0, #64]	; 0x40
 8004208:	b143      	cbz	r3, 800421c <xQueueGenericSend+0x3a>
 800420a:	f04f 0350 	mov.w	r3, #80	; 0x50
 800420e:	f383 8811 	msr	BASEPRI, r3
 8004212:	f3bf 8f6f 	isb	sy
 8004216:	f3bf 8f4f 	dsb	sy
 800421a:	e7fe      	b.n	800421a <xQueueGenericSend+0x38>
 800421c:	2f02      	cmp	r7, #2
 800421e:	d10b      	bne.n	8004238 <xQueueGenericSend+0x56>
 8004220:	6be3      	ldr	r3, [r4, #60]	; 0x3c
 8004222:	2b01      	cmp	r3, #1
 8004224:	d008      	beq.n	8004238 <xQueueGenericSend+0x56>
 8004226:	f04f 0350 	mov.w	r3, #80	; 0x50
 800422a:	f383 8811 	msr	BASEPRI, r3
 800422e:	f3bf 8f6f 	isb	sy
 8004232:	f3bf 8f4f 	dsb	sy
 8004236:	e7fe      	b.n	8004236 <xQueueGenericSend+0x54>
 8004238:	f000 fda8 	bl	8004d8c <xTaskGetSchedulerState>
 800423c:	4606      	mov	r6, r0
 800423e:	b950      	cbnz	r0, 8004256 <xQueueGenericSend+0x74>
 8004240:	9b01      	ldr	r3, [sp, #4]
 8004242:	b14b      	cbz	r3, 8004258 <xQueueGenericSend+0x76>
 8004244:	f04f 0350 	mov.w	r3, #80	; 0x50
 8004248:	f383 8811 	msr	BASEPRI, r3
 800424c:	f3bf 8f6f 	isb	sy
 8004250:	f3bf 8f4f 	dsb	sy
 8004254:	e7fe      	b.n	8004254 <xQueueGenericSend+0x72>
 8004256:	2600      	movs	r6, #0
 8004258:	f04f 0900 	mov.w	r9, #0
 800425c:	e037      	b.n	80042ce <xQueueGenericSend+0xec>
 800425e:	9d01      	ldr	r5, [sp, #4]
 8004260:	b91d      	cbnz	r5, 800426a <xQueueGenericSend+0x88>
 8004262:	f001 f83f 	bl	80052e4 <vPortExitCritical>
 8004266:	2000      	movs	r0, #0
 8004268:	e052      	b.n	8004310 <xQueueGenericSend+0x12e>
 800426a:	b916      	cbnz	r6, 8004272 <xQueueGenericSend+0x90>
 800426c:	a802      	add	r0, sp, #8
 800426e:	f000 fd41 	bl	8004cf4 <vTaskInternalSetTimeOutState>
 8004272:	f001 f837 	bl	80052e4 <vPortExitCritical>
 8004276:	f000 fb55 	bl	8004924 <vTaskSuspendAll>
 800427a:	f001 f813 	bl	80052a4 <vPortEnterCritical>
 800427e:	f894 3044 	ldrb.w	r3, [r4, #68]	; 0x44
 8004282:	2bff      	cmp	r3, #255	; 0xff
 8004284:	bf08      	it	eq
 8004286:	f884 9044 	strbeq.w	r9, [r4, #68]	; 0x44
 800428a:	f894 3045 	ldrb.w	r3, [r4, #69]	; 0x45
 800428e:	2bff      	cmp	r3, #255	; 0xff
 8004290:	bf08      	it	eq
 8004292:	f884 9045 	strbeq.w	r9, [r4, #69]	; 0x45
 8004296:	f001 f825 	bl	80052e4 <vPortExitCritical>
 800429a:	a901      	add	r1, sp, #4
 800429c:	a802      	add	r0, sp, #8
 800429e:	f000 fd35 	bl	8004d0c <xTaskCheckForTimeOut>
 80042a2:	2800      	cmp	r0, #0
 80042a4:	d14a      	bne.n	800433c <xQueueGenericSend+0x15a>
 80042a6:	f000 fffd 	bl	80052a4 <vPortEnterCritical>
 80042aa:	6ba2      	ldr	r2, [r4, #56]	; 0x38
 80042ac:	6be3      	ldr	r3, [r4, #60]	; 0x3c
 80042ae:	429a      	cmp	r2, r3
 80042b0:	d131      	bne.n	8004316 <xQueueGenericSend+0x134>
 80042b2:	f001 f817 	bl	80052e4 <vPortExitCritical>
 80042b6:	9901      	ldr	r1, [sp, #4]
 80042b8:	f104 0010 	add.w	r0, r4, #16
 80042bc:	f000 fca4 	bl	8004c08 <vTaskPlaceOnEventList>
 80042c0:	4620      	mov	r0, r4
 80042c2:	f7ff feca 	bl	800405a <prvUnlockQueue>
 80042c6:	f000 fbcb 	bl	8004a60 <xTaskResumeAll>
 80042ca:	b360      	cbz	r0, 8004326 <xQueueGenericSend+0x144>
 80042cc:	2601      	movs	r6, #1
 80042ce:	f000 ffe9 	bl	80052a4 <vPortEnterCritical>
 80042d2:	6ba2      	ldr	r2, [r4, #56]	; 0x38
 80042d4:	6be3      	ldr	r3, [r4, #60]	; 0x3c
 80042d6:	429a      	cmp	r2, r3
 80042d8:	d301      	bcc.n	80042de <xQueueGenericSend+0xfc>
 80042da:	2f02      	cmp	r7, #2
 80042dc:	d1bf      	bne.n	800425e <xQueueGenericSend+0x7c>
 80042de:	463a      	mov	r2, r7
 80042e0:	4641      	mov	r1, r8
 80042e2:	4620      	mov	r0, r4
 80042e4:	f7ff fe70 	bl	8003fc8 <prvCopyDataToQueue>
 80042e8:	6a63      	ldr	r3, [r4, #36]	; 0x24
 80042ea:	b11b      	cbz	r3, 80042f4 <xQueueGenericSend+0x112>
 80042ec:	f104 0024 	add.w	r0, r4, #36	; 0x24
 80042f0:	f000 fcc0 	bl	8004c74 <xTaskRemoveFromEventList>
 80042f4:	b148      	cbz	r0, 800430a <xQueueGenericSend+0x128>
 80042f6:	f04f 23e0 	mov.w	r3, #3758153728	; 0xe000e000
 80042fa:	f04f 5280 	mov.w	r2, #268435456	; 0x10000000
 80042fe:	f8c3 2d04 	str.w	r2, [r3, #3332]	; 0xd04
 8004302:	f3bf 8f4f 	dsb	sy
 8004306:	f3bf 8f6f 	isb	sy
 800430a:	f000 ffeb 	bl	80052e4 <vPortExitCritical>
 800430e:	2001      	movs	r0, #1
 8004310:	b005      	add	sp, #20
 8004312:	e8bd 83f0 	ldmia.w	sp!, {r4, r5, r6, r7, r8, r9, pc}
 8004316:	f000 ffe5 	bl	80052e4 <vPortExitCritical>
 800431a:	4620      	mov	r0, r4
 800431c:	f7ff fe9d 	bl	800405a <prvUnlockQueue>
 8004320:	f000 fb9e 	bl	8004a60 <xTaskResumeAll>
 8004324:	e7d2      	b.n	80042cc <xQueueGenericSend+0xea>
 8004326:	f04f 23e0 	mov.w	r3, #3758153728	; 0xe000e000
 800432a:	f04f 5280 	mov.w	r2, #268435456	; 0x10000000
 800432e:	f8c3 2d04 	str.w	r2, [r3, #3332]	; 0xd04
 8004332:	f3bf 8f4f 	dsb	sy
 8004336:	f3bf 8f6f 	isb	sy
 800433a:	e7c7      	b.n	80042cc <xQueueGenericSend+0xea>
 800433c:	4620      	mov	r0, r4
 800433e:	f7ff fe8c 	bl	800405a <prvUnlockQueue>
 8004342:	f000 fb8d 	bl	8004a60 <xTaskResumeAll>
 8004346:	e78e      	b.n	8004266 <xQueueGenericSend+0x84>

08004348 <xQueueGenericSendFromISR>:
 8004348:	e92d 43f8 	stmdb	sp!, {r3, r4, r5, r6, r7, r8, r9, lr}
 800434c:	4689      	mov	r9, r1
 800434e:	4690      	mov	r8, r2
 8004350:	461f      	mov	r7, r3
 8004352:	4604      	mov	r4, r0
 8004354:	b940      	cbnz	r0, 8004368 <xQueueGenericSendFromISR+0x20>
 8004356:	f04f 0350 	mov.w	r3, #80	; 0x50
 800435a:	f383 8811 	msr	BASEPRI, r3
 800435e:	f3bf 8f6f 	isb	sy
 8004362:	f3bf 8f4f 	dsb	sy
 8004366:	e7fe      	b.n	8004366 <xQueueGenericSendFromISR+0x1e>
 8004368:	b951      	cbnz	r1, 8004380 <xQueueGenericSendFromISR+0x38>
 800436a:	6c03      	ldr	r3, [r0, #64]	; 0x40
 800436c:	b143      	cbz	r3, 8004380 <xQueueGenericSendFromISR+0x38>
 800436e:	f04f 0350 	mov.w	r3, #80	; 0x50
 8004372:	f383 8811 	msr	BASEPRI, r3
 8004376:	f3bf 8f6f 	isb	sy
 800437a:	f3bf 8f4f 	dsb	sy
 800437e:	e7fe      	b.n	800437e <xQueueGenericSendFromISR+0x36>
 8004380:	2f02      	cmp	r7, #2
 8004382:	d10b      	bne.n	800439c <xQueueGenericSendFromISR+0x54>
 8004384:	6be3      	ldr	r3, [r4, #60]	; 0x3c
 8004386:	2b01      	cmp	r3, #1
 8004388:	d008      	beq.n	800439c <xQueueGenericSendFromISR+0x54>
 800438a:	f04f 0350 	mov.w	r3, #80	; 0x50
 800438e:	f383 8811 	msr	BASEPRI, r3
 8004392:	f3bf 8f6f 	isb	sy
 8004396:	f3bf 8f4f 	dsb	sy
 800439a:	e7fe      	b.n	800439a <xQueueGenericSendFromISR+0x52>
 800439c:	f001 f85e 	bl	800545c <vPortValidateInterruptPriority>
 80043a0:	f3ef 8611 	mrs	r6, BASEPRI
 80043a4:	f04f 0350 	mov.w	r3, #80	; 0x50
 80043a8:	f383 8811 	msr	BASEPRI, r3
 80043ac:	f3bf 8f6f 	isb	sy
 80043b0:	f3bf 8f4f 	dsb	sy
 80043b4:	6ba2      	ldr	r2, [r4, #56]	; 0x38
 80043b6:	6be3      	ldr	r3, [r4, #60]	; 0x3c
 80043b8:	429a      	cmp	r2, r3
 80043ba:	d301      	bcc.n	80043c0 <xQueueGenericSendFromISR+0x78>
 80043bc:	2f02      	cmp	r7, #2
 80043be:	d122      	bne.n	8004406 <xQueueGenericSendFromISR+0xbe>
 80043c0:	f894 5045 	ldrb.w	r5, [r4, #69]	; 0x45
 80043c4:	463a      	mov	r2, r7
 80043c6:	4649      	mov	r1, r9
 80043c8:	4620      	mov	r0, r4
 80043ca:	b26d      	sxtb	r5, r5
 80043cc:	f7ff fdfc 	bl	8003fc8 <prvCopyDataToQueue>
 80043d0:	1c6b      	adds	r3, r5, #1
 80043d2:	d113      	bne.n	80043fc <xQueueGenericSendFromISR+0xb4>
 80043d4:	6a63      	ldr	r3, [r4, #36]	; 0x24
 80043d6:	b90b      	cbnz	r3, 80043dc <xQueueGenericSendFromISR+0x94>
 80043d8:	2001      	movs	r0, #1
 80043da:	e00b      	b.n	80043f4 <xQueueGenericSendFromISR+0xac>
 80043dc:	f104 0024 	add.w	r0, r4, #36	; 0x24
 80043e0:	f000 fc48 	bl	8004c74 <xTaskRemoveFromEventList>
 80043e4:	2800      	cmp	r0, #0
 80043e6:	d0f7      	beq.n	80043d8 <xQueueGenericSendFromISR+0x90>
 80043e8:	f1b8 0f00 	cmp.w	r8, #0
 80043ec:	d0f4      	beq.n	80043d8 <xQueueGenericSendFromISR+0x90>
 80043ee:	2001      	movs	r0, #1
 80043f0:	f8c8 0000 	str.w	r0, [r8]
 80043f4:	f386 8811 	msr	BASEPRI, r6
 80043f8:	e8bd 83f8 	ldmia.w	sp!, {r3, r4, r5, r6, r7, r8, r9, pc}
 80043fc:	3501      	adds	r5, #1
 80043fe:	b26d      	sxtb	r5, r5
 8004400:	f884 5045 	strb.w	r5, [r4, #69]	; 0x45
 8004404:	e7e8      	b.n	80043d8 <xQueueGenericSendFromISR+0x90>
 8004406:	2000      	movs	r0, #0
 8004408:	e7f4      	b.n	80043f4 <xQueueGenericSendFromISR+0xac>

0800440a <xQueueReceive>:
 800440a:	e92d 41ff 	stmdb	sp!, {r0, r1, r2, r3, r4, r5, r6, r7, r8, lr}
 800440e:	460f      	mov	r7, r1
 8004410:	4604      	mov	r4, r0
 8004412:	9201      	str	r2, [sp, #4]
 8004414:	b940      	cbnz	r0, 8004428 <xQueueReceive+0x1e>
 8004416:	f04f 0350 	mov.w	r3, #80	; 0x50
 800441a:	f383 8811 	msr	BASEPRI, r3
 800441e:	f3bf 8f6f 	isb	sy
 8004422:	f3bf 8f4f 	dsb	sy
 8004426:	e7fe      	b.n	8004426 <xQueueReceive+0x1c>
 8004428:	b951      	cbnz	r1, 8004440 <xQueueReceive+0x36>
 800442a:	6c03      	ldr	r3, [r0, #64]	; 0x40
 800442c:	b143      	cbz	r3, 8004440 <xQueueReceive+0x36>
 800442e:	f04f 0350 	mov.w	r3, #80	; 0x50
 8004432:	f383 8811 	msr	BASEPRI, r3
 8004436:	f3bf 8f6f 	isb	sy
 800443a:	f3bf 8f4f 	dsb	sy
 800443e:	e7fe      	b.n	800443e <xQueueReceive+0x34>
 8004440:	f000 fca4 	bl	8004d8c <xTaskGetSchedulerState>
 8004444:	4606      	mov	r6, r0
 8004446:	b950      	cbnz	r0, 800445e <xQueueReceive+0x54>
 8004448:	9b01      	ldr	r3, [sp, #4]
 800444a:	b14b      	cbz	r3, 8004460 <xQueueReceive+0x56>
 800444c:	f04f 0350 	mov.w	r3, #80	; 0x50
 8004450:	f383 8811 	msr	BASEPRI, r3
 8004454:	f3bf 8f6f 	isb	sy
 8004458:	f3bf 8f4f 	dsb	sy
 800445c:	e7fe      	b.n	800445c <xQueueReceive+0x52>
 800445e:	2600      	movs	r6, #0
 8004460:	f04f 0800 	mov.w	r8, #0
 8004464:	e03d      	b.n	80044e2 <xQueueReceive+0xd8>
 8004466:	9d01      	ldr	r5, [sp, #4]
 8004468:	b91d      	cbnz	r5, 8004472 <xQueueReceive+0x68>
 800446a:	f000 ff3b 	bl	80052e4 <vPortExitCritical>
 800446e:	2000      	movs	r0, #0
 8004470:	e056      	b.n	8004520 <xQueueReceive+0x116>
 8004472:	b916      	cbnz	r6, 800447a <xQueueReceive+0x70>
 8004474:	a802      	add	r0, sp, #8
 8004476:	f000 fc3d 	bl	8004cf4 <vTaskInternalSetTimeOutState>
 800447a:	f000 ff33 	bl	80052e4 <vPortExitCritical>
 800447e:	f000 fa51 	bl	8004924 <vTaskSuspendAll>
 8004482:	f000 ff0f 	bl	80052a4 <vPortEnterCritical>
 8004486:	f894 3044 	ldrb.w	r3, [r4, #68]	; 0x44
 800448a:	2bff      	cmp	r3, #255	; 0xff
 800448c:	bf08      	it	eq
 800448e:	f884 8044 	strbeq.w	r8, [r4, #68]	; 0x44
 8004492:	f894 3045 	ldrb.w	r3, [r4, #69]	; 0x45
 8004496:	2bff      	cmp	r3, #255	; 0xff
 8004498:	bf08      	it	eq
 800449a:	f884 8045 	strbeq.w	r8, [r4, #69]	; 0x45
 800449e:	f000 ff21 	bl	80052e4 <vPortExitCritical>
 80044a2:	a901      	add	r1, sp, #4
 80044a4:	a802      	add	r0, sp, #8
 80044a6:	f000 fc31 	bl	8004d0c <xTaskCheckForTimeOut>
 80044aa:	2800      	cmp	r0, #0
 80044ac:	d141      	bne.n	8004532 <xQueueReceive+0x128>
 80044ae:	4620      	mov	r0, r4
 80044b0:	f7ff fd7f 	bl	8003fb2 <prvIsQueueEmpty>
 80044b4:	b3b8      	cbz	r0, 8004526 <xQueueReceive+0x11c>
 80044b6:	9901      	ldr	r1, [sp, #4]
 80044b8:	f104 0024 	add.w	r0, r4, #36	; 0x24
 80044bc:	f000 fba4 	bl	8004c08 <vTaskPlaceOnEventList>
 80044c0:	4620      	mov	r0, r4
 80044c2:	f7ff fdca 	bl	800405a <prvUnlockQueue>
 80044c6:	f000 facb 	bl	8004a60 <xTaskResumeAll>
 80044ca:	b948      	cbnz	r0, 80044e0 <xQueueReceive+0xd6>
 80044cc:	f04f 23e0 	mov.w	r3, #3758153728	; 0xe000e000
 80044d0:	f04f 5280 	mov.w	r2, #268435456	; 0x10000000
 80044d4:	f8c3 2d04 	str.w	r2, [r3, #3332]	; 0xd04
 80044d8:	f3bf 8f4f 	dsb	sy
 80044dc:	f3bf 8f6f 	isb	sy
 80044e0:	2601      	movs	r6, #1
 80044e2:	f000 fedf 	bl	80052a4 <vPortEnterCritical>
 80044e6:	6ba5      	ldr	r5, [r4, #56]	; 0x38
 80044e8:	2d00      	cmp	r5, #0
 80044ea:	d0bc      	beq.n	8004466 <xQueueReceive+0x5c>
 80044ec:	4639      	mov	r1, r7
 80044ee:	4620      	mov	r0, r4
 80044f0:	3d01      	subs	r5, #1
 80044f2:	f7ff fd9e 	bl	8004032 <prvCopyDataFromQueue>
 80044f6:	63a5      	str	r5, [r4, #56]	; 0x38
 80044f8:	6923      	ldr	r3, [r4, #16]
 80044fa:	b173      	cbz	r3, 800451a <xQueueReceive+0x110>
 80044fc:	f104 0010 	add.w	r0, r4, #16
 8004500:	f000 fbb8 	bl	8004c74 <xTaskRemoveFromEventList>
 8004504:	b148      	cbz	r0, 800451a <xQueueReceive+0x110>
 8004506:	f04f 23e0 	mov.w	r3, #3758153728	; 0xe000e000
 800450a:	f04f 5280 	mov.w	r2, #268435456	; 0x10000000
 800450e:	f8c3 2d04 	str.w	r2, [r3, #3332]	; 0xd04
 8004512:	f3bf 8f4f 	dsb	sy
 8004516:	f3bf 8f6f 	isb	sy
 800451a:	f000 fee3 	bl	80052e4 <vPortExitCritical>
 800451e:	2001      	movs	r0, #1
 8004520:	b004      	add	sp, #16
 8004522:	e8bd 81f0 	ldmia.w	sp!, {r4, r5, r6, r7, r8, pc}
 8004526:	4620      	mov	r0, r4
 8004528:	f7ff fd97 	bl	800405a <prvUnlockQueue>
 800452c:	f000 fa98 	bl	8004a60 <xTaskResumeAll>
 8004530:	e7d6      	b.n	80044e0 <xQueueReceive+0xd6>
 8004532:	4620      	mov	r0, r4
 8004534:	f7ff fd91 	bl	800405a <prvUnlockQueue>
 8004538:	f000 fa92 	bl	8004a60 <xTaskResumeAll>
 800453c:	4620      	mov	r0, r4
 800453e:	f7ff fd38 	bl	8003fb2 <prvIsQueueEmpty>
 8004542:	2800      	cmp	r0, #0
 8004544:	d0cc      	beq.n	80044e0 <xQueueReceive+0xd6>
 8004546:	e792      	b.n	800446e <xQueueReceive+0x64>

08004548 <vQueueAddToRegistry>:
 8004548:	2300      	movs	r3, #0
 800454a:	b510      	push	{r4, lr}
 800454c:	4a06      	ldr	r2, [pc, #24]	; (8004568 <vQueueAddToRegistry+0x20>)
 800454e:	f852 4033 	ldr.w	r4, [r2, r3, lsl #3]
 8004552:	b92c      	cbnz	r4, 8004560 <vQueueAddToRegistry+0x18>
 8004554:	f842 1033 	str.w	r1, [r2, r3, lsl #3]
 8004558:	eb02 03c3 	add.w	r3, r2, r3, lsl #3
 800455c:	6058      	str	r0, [r3, #4]
 800455e:	bd10      	pop	{r4, pc}
 8004560:	3301      	adds	r3, #1
 8004562:	2b08      	cmp	r3, #8
 8004564:	d1f3      	bne.n	800454e <vQueueAddToRegistry+0x6>
 8004566:	e7fa      	b.n	800455e <vQueueAddToRegistry+0x16>
 8004568:	20000b40 	.word	0x20000b40

0800456c <vQueueWaitForMessageRestricted>:
 800456c:	b570      	push	{r4, r5, r6, lr}
 800456e:	4604      	mov	r4, r0
 8004570:	460d      	mov	r5, r1
 8004572:	4616      	mov	r6, r2
 8004574:	f000 fe96 	bl	80052a4 <vPortEnterCritical>
 8004578:	f894 3044 	ldrb.w	r3, [r4, #68]	; 0x44
 800457c:	2bff      	cmp	r3, #255	; 0xff
 800457e:	bf04      	itt	eq
 8004580:	2300      	moveq	r3, #0
 8004582:	f884 3044 	strbeq.w	r3, [r4, #68]	; 0x44
 8004586:	f894 3045 	ldrb.w	r3, [r4, #69]	; 0x45
 800458a:	2bff      	cmp	r3, #255	; 0xff
 800458c:	bf04      	itt	eq
 800458e:	2300      	moveq	r3, #0
 8004590:	f884 3045 	strbeq.w	r3, [r4, #69]	; 0x45
 8004594:	f000 fea6 	bl	80052e4 <vPortExitCritical>
 8004598:	6ba3      	ldr	r3, [r4, #56]	; 0x38
 800459a:	b92b      	cbnz	r3, 80045a8 <vQueueWaitForMessageRestricted+0x3c>
 800459c:	4632      	mov	r2, r6
 800459e:	4629      	mov	r1, r5
 80045a0:	f104 0024 	add.w	r0, r4, #36	; 0x24
 80045a4:	f000 fb48 	bl	8004c38 <vTaskPlaceOnEventListRestricted>
 80045a8:	4620      	mov	r0, r4
 80045aa:	e8bd 4070 	ldmia.w	sp!, {r4, r5, r6, lr}
 80045ae:	f7ff bd54 	b.w	800405a <prvUnlockQueue>
	...

080045b4 <prvIdleTask>:
 80045b4:	f04f 23e0 	mov.w	r3, #3758153728	; 0xe000e000
 80045b8:	f04f 5280 	mov.w	r2, #268435456	; 0x10000000
 80045bc:	4905      	ldr	r1, [pc, #20]	; (80045d4 <prvIdleTask+0x20>)
 80045be:	6808      	ldr	r0, [r1, #0]
 80045c0:	2801      	cmp	r0, #1
 80045c2:	d9fc      	bls.n	80045be <prvIdleTask+0xa>
 80045c4:	f8c3 2d04 	str.w	r2, [r3, #3332]	; 0xd04
 80045c8:	f3bf 8f4f 	dsb	sy
 80045cc:	f3bf 8f6f 	isb	sy
 80045d0:	e7f5      	b.n	80045be <prvIdleTask+0xa>
 80045d2:	bf00      	nop
 80045d4:	20000b8c 	.word	0x20000b8c

080045d8 <prvAddNewTaskToReadyList>:
 80045d8:	e92d 41f0 	stmdb	sp!, {r4, r5, r6, r7, r8, lr}
 80045dc:	4604      	mov	r4, r0
 80045de:	f000 fe61 	bl	80052a4 <vPortEnterCritical>
 80045e2:	4b2d      	ldr	r3, [pc, #180]	; (8004698 <prvAddNewTaskToReadyList+0xc0>)
 80045e4:	4e2d      	ldr	r6, [pc, #180]	; (800469c <prvAddNewTaskToReadyList+0xc4>)
 80045e6:	681a      	ldr	r2, [r3, #0]
 80045e8:	4f2d      	ldr	r7, [pc, #180]	; (80046a0 <prvAddNewTaskToReadyList+0xc8>)
 80045ea:	3201      	adds	r2, #1
 80045ec:	601a      	str	r2, [r3, #0]
 80045ee:	6835      	ldr	r5, [r6, #0]
 80045f0:	2d00      	cmp	r5, #0
 80045f2:	d145      	bne.n	8004680 <prvAddNewTaskToReadyList+0xa8>
 80045f4:	6034      	str	r4, [r6, #0]
 80045f6:	681b      	ldr	r3, [r3, #0]
 80045f8:	2b01      	cmp	r3, #1
 80045fa:	d119      	bne.n	8004630 <prvAddNewTaskToReadyList+0x58>
 80045fc:	46b8      	mov	r8, r7
 80045fe:	4640      	mov	r0, r8
 8004600:	3501      	adds	r5, #1
 8004602:	f7ff fc95 	bl	8003f30 <vListInitialise>
 8004606:	2d38      	cmp	r5, #56	; 0x38
 8004608:	f108 0814 	add.w	r8, r8, #20
 800460c:	d1f7      	bne.n	80045fe <prvAddNewTaskToReadyList+0x26>
 800460e:	f8df 8094 	ldr.w	r8, [pc, #148]	; 80046a4 <prvAddNewTaskToReadyList+0xcc>
 8004612:	4d25      	ldr	r5, [pc, #148]	; (80046a8 <prvAddNewTaskToReadyList+0xd0>)
 8004614:	4640      	mov	r0, r8
 8004616:	f7ff fc8b 	bl	8003f30 <vListInitialise>
 800461a:	4628      	mov	r0, r5
 800461c:	f7ff fc88 	bl	8003f30 <vListInitialise>
 8004620:	4822      	ldr	r0, [pc, #136]	; (80046ac <prvAddNewTaskToReadyList+0xd4>)
 8004622:	f7ff fc85 	bl	8003f30 <vListInitialise>
 8004626:	4b22      	ldr	r3, [pc, #136]	; (80046b0 <prvAddNewTaskToReadyList+0xd8>)
 8004628:	f8c3 8000 	str.w	r8, [r3]
 800462c:	4b21      	ldr	r3, [pc, #132]	; (80046b4 <prvAddNewTaskToReadyList+0xdc>)
 800462e:	601d      	str	r5, [r3, #0]
 8004630:	2014      	movs	r0, #20
 8004632:	4a21      	ldr	r2, [pc, #132]	; (80046b8 <prvAddNewTaskToReadyList+0xe0>)
 8004634:	6813      	ldr	r3, [r2, #0]
 8004636:	3301      	adds	r3, #1
 8004638:	6013      	str	r3, [r2, #0]
 800463a:	4a20      	ldr	r2, [pc, #128]	; (80046bc <prvAddNewTaskToReadyList+0xe4>)
 800463c:	6463      	str	r3, [r4, #68]	; 0x44
 800463e:	6811      	ldr	r1, [r2, #0]
 8004640:	6ae3      	ldr	r3, [r4, #44]	; 0x2c
 8004642:	428b      	cmp	r3, r1
 8004644:	fb00 7003 	mla	r0, r0, r3, r7
 8004648:	f104 0104 	add.w	r1, r4, #4
 800464c:	bf88      	it	hi
 800464e:	6013      	strhi	r3, [r2, #0]
 8004650:	f7ff fc7c 	bl	8003f4c <vListInsertEnd>
 8004654:	f000 fe46 	bl	80052e4 <vPortExitCritical>
 8004658:	4b19      	ldr	r3, [pc, #100]	; (80046c0 <prvAddNewTaskToReadyList+0xe8>)
 800465a:	681b      	ldr	r3, [r3, #0]
 800465c:	b173      	cbz	r3, 800467c <prvAddNewTaskToReadyList+0xa4>
 800465e:	6833      	ldr	r3, [r6, #0]
 8004660:	6ada      	ldr	r2, [r3, #44]	; 0x2c
 8004662:	6ae3      	ldr	r3, [r4, #44]	; 0x2c
 8004664:	429a      	cmp	r2, r3
 8004666:	d209      	bcs.n	800467c <prvAddNewTaskToReadyList+0xa4>
 8004668:	f04f 23e0 	mov.w	r3, #3758153728	; 0xe000e000
 800466c:	f04f 5280 	mov.w	r2, #268435456	; 0x10000000
 8004670:	f8c3 2d04 	str.w	r2, [r3, #3332]	; 0xd04
 8004674:	f3bf 8f4f 	dsb	sy
 8004678:	f3bf 8f6f 	isb	sy
 800467c:	e8bd 81f0 	ldmia.w	sp!, {r4, r5, r6, r7, r8, pc}
 8004680:	4b0f      	ldr	r3, [pc, #60]	; (80046c0 <prvAddNewTaskToReadyList+0xe8>)
 8004682:	681b      	ldr	r3, [r3, #0]
 8004684:	2b00      	cmp	r3, #0
 8004686:	d1d3      	bne.n	8004630 <prvAddNewTaskToReadyList+0x58>
 8004688:	6833      	ldr	r3, [r6, #0]
 800468a:	6ada      	ldr	r2, [r3, #44]	; 0x2c
 800468c:	6ae3      	ldr	r3, [r4, #44]	; 0x2c
 800468e:	429a      	cmp	r2, r3
 8004690:	bf98      	it	ls
 8004692:	6034      	strls	r4, [r6, #0]
 8004694:	e7cc      	b.n	8004630 <prvAddNewTaskToReadyList+0x58>
 8004696:	bf00      	nop
 8004698:	20000fec 	.word	0x20000fec
 800469c:	20000b80 	.word	0x20000b80
 80046a0:	20000b8c 	.word	0x20000b8c
 80046a4:	20001000 	.word	0x20001000
 80046a8:	20001014 	.word	0x20001014
 80046ac:	20001030 	.word	0x20001030
 80046b0:	20000b84 	.word	0x20000b84
 80046b4:	20000b88 	.word	0x20000b88
 80046b8:	20000ff8 	.word	0x20000ff8
 80046bc:	20000ffc 	.word	0x20000ffc
 80046c0:	20001044 	.word	0x20001044

080046c4 <prvResetNextTaskUnblockTime>:
 80046c4:	4a06      	ldr	r2, [pc, #24]	; (80046e0 <prvResetNextTaskUnblockTime+0x1c>)
 80046c6:	6813      	ldr	r3, [r2, #0]
 80046c8:	6819      	ldr	r1, [r3, #0]
 80046ca:	4b06      	ldr	r3, [pc, #24]	; (80046e4 <prvResetNextTaskUnblockTime+0x20>)
 80046cc:	b919      	cbnz	r1, 80046d6 <prvResetNextTaskUnblockTime+0x12>
 80046ce:	f04f 32ff 	mov.w	r2, #4294967295
 80046d2:	601a      	str	r2, [r3, #0]
 80046d4:	4770      	bx	lr
 80046d6:	6812      	ldr	r2, [r2, #0]
 80046d8:	68d2      	ldr	r2, [r2, #12]
 80046da:	68d2      	ldr	r2, [r2, #12]
 80046dc:	6852      	ldr	r2, [r2, #4]
 80046de:	e7f8      	b.n	80046d2 <prvResetNextTaskUnblockTime+0xe>
 80046e0:	20000b84 	.word	0x20000b84
 80046e4:	20001028 	.word	0x20001028

080046e8 <prvAddCurrentTaskToDelayedList.constprop.0>:
 80046e8:	b570      	push	{r4, r5, r6, lr}
 80046ea:	4606      	mov	r6, r0
 80046ec:	4b0f      	ldr	r3, [pc, #60]	; (800472c <prvAddCurrentTaskToDelayedList.constprop.0+0x44>)
 80046ee:	4d10      	ldr	r5, [pc, #64]	; (8004730 <prvAddCurrentTaskToDelayedList.constprop.0+0x48>)
 80046f0:	681c      	ldr	r4, [r3, #0]
 80046f2:	6828      	ldr	r0, [r5, #0]
 80046f4:	3004      	adds	r0, #4
 80046f6:	f7ff fc4c 	bl	8003f92 <uxListRemove>
 80046fa:	682b      	ldr	r3, [r5, #0]
 80046fc:	19a4      	adds	r4, r4, r6
 80046fe:	605c      	str	r4, [r3, #4]
 8004700:	d307      	bcc.n	8004712 <prvAddCurrentTaskToDelayedList.constprop.0+0x2a>
 8004702:	4b0c      	ldr	r3, [pc, #48]	; (8004734 <prvAddCurrentTaskToDelayedList.constprop.0+0x4c>)
 8004704:	6818      	ldr	r0, [r3, #0]
 8004706:	6829      	ldr	r1, [r5, #0]
 8004708:	e8bd 4070 	ldmia.w	sp!, {r4, r5, r6, lr}
 800470c:	3104      	adds	r1, #4
 800470e:	f7ff bc29 	b.w	8003f64 <vListInsert>
 8004712:	4b09      	ldr	r3, [pc, #36]	; (8004738 <prvAddCurrentTaskToDelayedList.constprop.0+0x50>)
 8004714:	6818      	ldr	r0, [r3, #0]
 8004716:	6829      	ldr	r1, [r5, #0]
 8004718:	3104      	adds	r1, #4
 800471a:	f7ff fc23 	bl	8003f64 <vListInsert>
 800471e:	4b07      	ldr	r3, [pc, #28]	; (800473c <prvAddCurrentTaskToDelayedList.constprop.0+0x54>)
 8004720:	681a      	ldr	r2, [r3, #0]
 8004722:	4294      	cmp	r4, r2
 8004724:	bf38      	it	cc
 8004726:	601c      	strcc	r4, [r3, #0]
 8004728:	bd70      	pop	{r4, r5, r6, pc}
 800472a:	bf00      	nop
 800472c:	20001048 	.word	0x20001048
 8004730:	20000b80 	.word	0x20000b80
 8004734:	20000b88 	.word	0x20000b88
 8004738:	20000b84 	.word	0x20000b84
 800473c:	20001028 	.word	0x20001028

08004740 <prvInitialiseNewTask.constprop.0>:
 8004740:	e92d 47f0 	stmdb	sp!, {r4, r5, r6, r7, r8, r9, sl, lr}
 8004744:	460d      	mov	r5, r1
 8004746:	e9dd 8409 	ldrd	r8, r4, [sp, #36]	; 0x24
 800474a:	ea4f 0982 	mov.w	r9, r2, lsl #2
 800474e:	464a      	mov	r2, r9
 8004750:	4606      	mov	r6, r0
 8004752:	21a5      	movs	r1, #165	; 0xa5
 8004754:	6b20      	ldr	r0, [r4, #48]	; 0x30
 8004756:	461f      	mov	r7, r3
 8004758:	f002 fe86 	bl	8007468 <memset>
 800475c:	6b22      	ldr	r2, [r4, #48]	; 0x30
 800475e:	f1a9 0904 	sub.w	r9, r9, #4
 8004762:	4491      	add	r9, r2
 8004764:	1e6b      	subs	r3, r5, #1
 8004766:	f029 0907 	bic.w	r9, r9, #7
 800476a:	f104 0234 	add.w	r2, r4, #52	; 0x34
 800476e:	350f      	adds	r5, #15
 8004770:	f813 1f01 	ldrb.w	r1, [r3, #1]!
 8004774:	f802 1b01 	strb.w	r1, [r2], #1
 8004778:	b109      	cbz	r1, 800477e <prvInitialiseNewTask.constprop.0+0x3e>
 800477a:	42ab      	cmp	r3, r5
 800477c:	d1f8      	bne.n	8004770 <prvInitialiseNewTask.constprop.0+0x30>
 800477e:	9d08      	ldr	r5, [sp, #32]
 8004780:	f04f 0a00 	mov.w	sl, #0
 8004784:	2d37      	cmp	r5, #55	; 0x37
 8004786:	bf28      	it	cs
 8004788:	2537      	movcs	r5, #55	; 0x37
 800478a:	1d20      	adds	r0, r4, #4
 800478c:	e9c4 5a13 	strd	r5, sl, [r4, #76]	; 0x4c
 8004790:	62e5      	str	r5, [r4, #44]	; 0x2c
 8004792:	f884 a043 	strb.w	sl, [r4, #67]	; 0x43
 8004796:	f7ff fbd6 	bl	8003f46 <vListInitialiseItem>
 800479a:	f1c5 0538 	rsb	r5, r5, #56	; 0x38
 800479e:	f104 0018 	add.w	r0, r4, #24
 80047a2:	f7ff fbd0 	bl	8003f46 <vListInitialiseItem>
 80047a6:	f8c4 a054 	str.w	sl, [r4, #84]	; 0x54
 80047aa:	463a      	mov	r2, r7
 80047ac:	4631      	mov	r1, r6
 80047ae:	4648      	mov	r0, r9
 80047b0:	6124      	str	r4, [r4, #16]
 80047b2:	61a5      	str	r5, [r4, #24]
 80047b4:	6264      	str	r4, [r4, #36]	; 0x24
 80047b6:	f884 a058 	strb.w	sl, [r4, #88]	; 0x58
 80047ba:	f000 fd49 	bl	8005250 <pxPortInitialiseStack>
 80047be:	6020      	str	r0, [r4, #0]
 80047c0:	f1b8 0f00 	cmp.w	r8, #0
 80047c4:	d001      	beq.n	80047ca <prvInitialiseNewTask.constprop.0+0x8a>
 80047c6:	f8c8 4000 	str.w	r4, [r8]
 80047ca:	e8bd 87f0 	ldmia.w	sp!, {r4, r5, r6, r7, r8, r9, sl, pc}

080047ce <xTaskCreateStatic>:
 80047ce:	b570      	push	{r4, r5, r6, lr}
 80047d0:	b086      	sub	sp, #24
 80047d2:	e9dd 540b 	ldrd	r5, r4, [sp, #44]	; 0x2c
 80047d6:	b945      	cbnz	r5, 80047ea <xTaskCreateStatic+0x1c>
 80047d8:	f04f 0350 	mov.w	r3, #80	; 0x50
 80047dc:	f383 8811 	msr	BASEPRI, r3
 80047e0:	f3bf 8f6f 	isb	sy
 80047e4:	f3bf 8f4f 	dsb	sy
 80047e8:	e7fe      	b.n	80047e8 <xTaskCreateStatic+0x1a>
 80047ea:	b944      	cbnz	r4, 80047fe <xTaskCreateStatic+0x30>
 80047ec:	f04f 0350 	mov.w	r3, #80	; 0x50
 80047f0:	f383 8811 	msr	BASEPRI, r3
 80047f4:	f3bf 8f6f 	isb	sy
 80047f8:	f3bf 8f4f 	dsb	sy
 80047fc:	e7fe      	b.n	80047fc <xTaskCreateStatic+0x2e>
 80047fe:	265c      	movs	r6, #92	; 0x5c
 8004800:	9605      	str	r6, [sp, #20]
 8004802:	9e05      	ldr	r6, [sp, #20]
 8004804:	2e5c      	cmp	r6, #92	; 0x5c
 8004806:	d008      	beq.n	800481a <xTaskCreateStatic+0x4c>
 8004808:	f04f 0350 	mov.w	r3, #80	; 0x50
 800480c:	f383 8811 	msr	BASEPRI, r3
 8004810:	f3bf 8f6f 	isb	sy
 8004814:	f3bf 8f4f 	dsb	sy
 8004818:	e7fe      	b.n	8004818 <xTaskCreateStatic+0x4a>
 800481a:	6325      	str	r5, [r4, #48]	; 0x30
 800481c:	2502      	movs	r5, #2
 800481e:	f884 5059 	strb.w	r5, [r4, #89]	; 0x59
 8004822:	ad04      	add	r5, sp, #16
 8004824:	9501      	str	r5, [sp, #4]
 8004826:	9d0a      	ldr	r5, [sp, #40]	; 0x28
 8004828:	9402      	str	r4, [sp, #8]
 800482a:	9500      	str	r5, [sp, #0]
 800482c:	f7ff ff88 	bl	8004740 <prvInitialiseNewTask.constprop.0>
 8004830:	4620      	mov	r0, r4
 8004832:	f7ff fed1 	bl	80045d8 <prvAddNewTaskToReadyList>
 8004836:	9804      	ldr	r0, [sp, #16]
 8004838:	b006      	add	sp, #24
 800483a:	bd70      	pop	{r4, r5, r6, pc}

0800483c <xTaskCreate>:
 800483c:	e92d 43f0 	stmdb	sp!, {r4, r5, r6, r7, r8, r9, lr}
 8004840:	4607      	mov	r7, r0
 8004842:	b085      	sub	sp, #20
 8004844:	0090      	lsls	r0, r2, #2
 8004846:	4688      	mov	r8, r1
 8004848:	4616      	mov	r6, r2
 800484a:	4699      	mov	r9, r3
 800484c:	f000 fe58 	bl	8005500 <pvPortMalloc>
 8004850:	4605      	mov	r5, r0
 8004852:	b1e8      	cbz	r0, 8004890 <xTaskCreate+0x54>
 8004854:	205c      	movs	r0, #92	; 0x5c
 8004856:	f000 fe53 	bl	8005500 <pvPortMalloc>
 800485a:	4604      	mov	r4, r0
 800485c:	b1a8      	cbz	r0, 800488a <xTaskCreate+0x4e>
 800485e:	2300      	movs	r3, #0
 8004860:	f880 3059 	strb.w	r3, [r0, #89]	; 0x59
 8004864:	9b0d      	ldr	r3, [sp, #52]	; 0x34
 8004866:	6305      	str	r5, [r0, #48]	; 0x30
 8004868:	9301      	str	r3, [sp, #4]
 800486a:	9b0c      	ldr	r3, [sp, #48]	; 0x30
 800486c:	4632      	mov	r2, r6
 800486e:	4641      	mov	r1, r8
 8004870:	9002      	str	r0, [sp, #8]
 8004872:	9300      	str	r3, [sp, #0]
 8004874:	4638      	mov	r0, r7
 8004876:	464b      	mov	r3, r9
 8004878:	f7ff ff62 	bl	8004740 <prvInitialiseNewTask.constprop.0>
 800487c:	4620      	mov	r0, r4
 800487e:	f7ff feab 	bl	80045d8 <prvAddNewTaskToReadyList>
 8004882:	2001      	movs	r0, #1
 8004884:	b005      	add	sp, #20
 8004886:	e8bd 83f0 	ldmia.w	sp!, {r4, r5, r6, r7, r8, r9, pc}
 800488a:	4628      	mov	r0, r5
 800488c:	f000 fec8 	bl	8005620 <vPortFree>
 8004890:	f04f 30ff 	mov.w	r0, #4294967295
 8004894:	e7f6      	b.n	8004884 <xTaskCreate+0x48>
	...

08004898 <vTaskStartScheduler>:
 8004898:	b510      	push	{r4, lr}
 800489a:	2400      	movs	r4, #0
 800489c:	b088      	sub	sp, #32
 800489e:	aa07      	add	r2, sp, #28
 80048a0:	a906      	add	r1, sp, #24
 80048a2:	a805      	add	r0, sp, #20
 80048a4:	e9cd 4405 	strd	r4, r4, [sp, #20]
 80048a8:	f7ff fb2a 	bl	8003f00 <vApplicationGetIdleTaskMemory>
 80048ac:	9b05      	ldr	r3, [sp, #20]
 80048ae:	9a07      	ldr	r2, [sp, #28]
 80048b0:	9302      	str	r3, [sp, #8]
 80048b2:	9b06      	ldr	r3, [sp, #24]
 80048b4:	4916      	ldr	r1, [pc, #88]	; (8004910 <vTaskStartScheduler+0x78>)
 80048b6:	e9cd 4300 	strd	r4, r3, [sp]
 80048ba:	4816      	ldr	r0, [pc, #88]	; (8004914 <vTaskStartScheduler+0x7c>)
 80048bc:	4623      	mov	r3, r4
 80048be:	f7ff ff86 	bl	80047ce <xTaskCreateStatic>
 80048c2:	b318      	cbz	r0, 800490c <vTaskStartScheduler+0x74>
 80048c4:	f000 fb06 	bl	8004ed4 <xTimerCreateTimerTask>
 80048c8:	2801      	cmp	r0, #1
 80048ca:	d114      	bne.n	80048f6 <vTaskStartScheduler+0x5e>
 80048cc:	f04f 0350 	mov.w	r3, #80	; 0x50
 80048d0:	f383 8811 	msr	BASEPRI, r3
 80048d4:	f3bf 8f6f 	isb	sy
 80048d8:	f3bf 8f4f 	dsb	sy
 80048dc:	f04f 32ff 	mov.w	r2, #4294967295
 80048e0:	4b0d      	ldr	r3, [pc, #52]	; (8004918 <vTaskStartScheduler+0x80>)
 80048e2:	601a      	str	r2, [r3, #0]
 80048e4:	4b0d      	ldr	r3, [pc, #52]	; (800491c <vTaskStartScheduler+0x84>)
 80048e6:	6018      	str	r0, [r3, #0]
 80048e8:	4b0d      	ldr	r3, [pc, #52]	; (8004920 <vTaskStartScheduler+0x88>)
 80048ea:	601c      	str	r4, [r3, #0]
 80048ec:	b008      	add	sp, #32
 80048ee:	e8bd 4010 	ldmia.w	sp!, {r4, lr}
 80048f2:	f000 bd57 	b.w	80053a4 <xPortStartScheduler>
 80048f6:	3001      	adds	r0, #1
 80048f8:	d108      	bne.n	800490c <vTaskStartScheduler+0x74>
 80048fa:	f04f 0350 	mov.w	r3, #80	; 0x50
 80048fe:	f383 8811 	msr	BASEPRI, r3
 8004902:	f3bf 8f6f 	isb	sy
 8004906:	f3bf 8f4f 	dsb	sy
 800490a:	e7fe      	b.n	800490a <vTaskStartScheduler+0x72>
 800490c:	b008      	add	sp, #32
 800490e:	bd10      	pop	{r4, pc}
 8004910:	08009351 	.word	0x08009351
 8004914:	080045b5 	.word	0x080045b5
 8004918:	20001028 	.word	0x20001028
 800491c:	20001044 	.word	0x20001044
 8004920:	20001048 	.word	0x20001048

08004924 <vTaskSuspendAll>:
 8004924:	4a02      	ldr	r2, [pc, #8]	; (8004930 <vTaskSuspendAll+0xc>)
 8004926:	6813      	ldr	r3, [r2, #0]
 8004928:	3301      	adds	r3, #1
 800492a:	6013      	str	r3, [r2, #0]
 800492c:	4770      	bx	lr
 800492e:	bf00      	nop
 8004930:	20000ff4 	.word	0x20000ff4

08004934 <xTaskGetTickCount>:
 8004934:	4b01      	ldr	r3, [pc, #4]	; (800493c <xTaskGetTickCount+0x8>)
 8004936:	6818      	ldr	r0, [r3, #0]
 8004938:	4770      	bx	lr
 800493a:	bf00      	nop
 800493c:	20001048 	.word	0x20001048

08004940 <xTaskIncrementTick>:
 8004940:	e92d 4ff8 	stmdb	sp!, {r3, r4, r5, r6, r7, r8, r9, sl, fp, lr}
 8004944:	4b3b      	ldr	r3, [pc, #236]	; (8004a34 <xTaskIncrementTick+0xf4>)
 8004946:	681b      	ldr	r3, [r3, #0]
 8004948:	2b00      	cmp	r3, #0
 800494a:	d16d      	bne.n	8004a28 <xTaskIncrementTick+0xe8>
 800494c:	4b3a      	ldr	r3, [pc, #232]	; (8004a38 <xTaskIncrementTick+0xf8>)
 800494e:	681d      	ldr	r5, [r3, #0]
 8004950:	3501      	adds	r5, #1
 8004952:	601d      	str	r5, [r3, #0]
 8004954:	b9bd      	cbnz	r5, 8004986 <xTaskIncrementTick+0x46>
 8004956:	4b39      	ldr	r3, [pc, #228]	; (8004a3c <xTaskIncrementTick+0xfc>)
 8004958:	681a      	ldr	r2, [r3, #0]
 800495a:	6812      	ldr	r2, [r2, #0]
 800495c:	b142      	cbz	r2, 8004970 <xTaskIncrementTick+0x30>
 800495e:	f04f 0350 	mov.w	r3, #80	; 0x50
 8004962:	f383 8811 	msr	BASEPRI, r3
 8004966:	f3bf 8f6f 	isb	sy
 800496a:	f3bf 8f4f 	dsb	sy
 800496e:	e7fe      	b.n	800496e <xTaskIncrementTick+0x2e>
 8004970:	4a33      	ldr	r2, [pc, #204]	; (8004a40 <xTaskIncrementTick+0x100>)
 8004972:	6819      	ldr	r1, [r3, #0]
 8004974:	6810      	ldr	r0, [r2, #0]
 8004976:	6018      	str	r0, [r3, #0]
 8004978:	6011      	str	r1, [r2, #0]
 800497a:	4a32      	ldr	r2, [pc, #200]	; (8004a44 <xTaskIncrementTick+0x104>)
 800497c:	6813      	ldr	r3, [r2, #0]
 800497e:	3301      	adds	r3, #1
 8004980:	6013      	str	r3, [r2, #0]
 8004982:	f7ff fe9f 	bl	80046c4 <prvResetNextTaskUnblockTime>
 8004986:	4e30      	ldr	r6, [pc, #192]	; (8004a48 <xTaskIncrementTick+0x108>)
 8004988:	2400      	movs	r4, #0
 800498a:	6833      	ldr	r3, [r6, #0]
 800498c:	4f2f      	ldr	r7, [pc, #188]	; (8004a4c <xTaskIncrementTick+0x10c>)
 800498e:	42ab      	cmp	r3, r5
 8004990:	d910      	bls.n	80049b4 <xTaskIncrementTick+0x74>
 8004992:	2214      	movs	r2, #20
 8004994:	4b2e      	ldr	r3, [pc, #184]	; (8004a50 <xTaskIncrementTick+0x110>)
 8004996:	681b      	ldr	r3, [r3, #0]
 8004998:	6adb      	ldr	r3, [r3, #44]	; 0x2c
 800499a:	4353      	muls	r3, r2
 800499c:	58fb      	ldr	r3, [r7, r3]
 800499e:	2b02      	cmp	r3, #2
 80049a0:	bf28      	it	cs
 80049a2:	2401      	movcs	r4, #1
 80049a4:	4b2b      	ldr	r3, [pc, #172]	; (8004a54 <xTaskIncrementTick+0x114>)
 80049a6:	681b      	ldr	r3, [r3, #0]
 80049a8:	2b00      	cmp	r3, #0
 80049aa:	bf0c      	ite	eq
 80049ac:	4620      	moveq	r0, r4
 80049ae:	2001      	movne	r0, #1
 80049b0:	e8bd 8ff8 	ldmia.w	sp!, {r3, r4, r5, r6, r7, r8, r9, sl, fp, pc}
 80049b4:	f8df 9084 	ldr.w	r9, [pc, #132]	; 8004a3c <xTaskIncrementTick+0xfc>
 80049b8:	f8df a09c 	ldr.w	sl, [pc, #156]	; 8004a58 <xTaskIncrementTick+0x118>
 80049bc:	f8d9 3000 	ldr.w	r3, [r9]
 80049c0:	681b      	ldr	r3, [r3, #0]
 80049c2:	b91b      	cbnz	r3, 80049cc <xTaskIncrementTick+0x8c>
 80049c4:	f04f 33ff 	mov.w	r3, #4294967295
 80049c8:	6033      	str	r3, [r6, #0]
 80049ca:	e7e2      	b.n	8004992 <xTaskIncrementTick+0x52>
 80049cc:	f8d9 3000 	ldr.w	r3, [r9]
 80049d0:	68db      	ldr	r3, [r3, #12]
 80049d2:	f8d3 b00c 	ldr.w	fp, [r3, #12]
 80049d6:	f8db 2004 	ldr.w	r2, [fp, #4]
 80049da:	4295      	cmp	r5, r2
 80049dc:	d201      	bcs.n	80049e2 <xTaskIncrementTick+0xa2>
 80049de:	6032      	str	r2, [r6, #0]
 80049e0:	e7d7      	b.n	8004992 <xTaskIncrementTick+0x52>
 80049e2:	f10b 0804 	add.w	r8, fp, #4
 80049e6:	4640      	mov	r0, r8
 80049e8:	f7ff fad3 	bl	8003f92 <uxListRemove>
 80049ec:	f8db 2028 	ldr.w	r2, [fp, #40]	; 0x28
 80049f0:	b11a      	cbz	r2, 80049fa <xTaskIncrementTick+0xba>
 80049f2:	f10b 0018 	add.w	r0, fp, #24
 80049f6:	f7ff facc 	bl	8003f92 <uxListRemove>
 80049fa:	2314      	movs	r3, #20
 80049fc:	f8db 002c 	ldr.w	r0, [fp, #44]	; 0x2c
 8004a00:	f8da 2000 	ldr.w	r2, [sl]
 8004a04:	4641      	mov	r1, r8
 8004a06:	4290      	cmp	r0, r2
 8004a08:	bf88      	it	hi
 8004a0a:	f8ca 0000 	strhi.w	r0, [sl]
 8004a0e:	fb03 7000 	mla	r0, r3, r0, r7
 8004a12:	f7ff fa9b 	bl	8003f4c <vListInsertEnd>
 8004a16:	4b0e      	ldr	r3, [pc, #56]	; (8004a50 <xTaskIncrementTick+0x110>)
 8004a18:	f8db 202c 	ldr.w	r2, [fp, #44]	; 0x2c
 8004a1c:	6819      	ldr	r1, [r3, #0]
 8004a1e:	6acb      	ldr	r3, [r1, #44]	; 0x2c
 8004a20:	429a      	cmp	r2, r3
 8004a22:	bf28      	it	cs
 8004a24:	2401      	movcs	r4, #1
 8004a26:	e7c9      	b.n	80049bc <xTaskIncrementTick+0x7c>
 8004a28:	4a0c      	ldr	r2, [pc, #48]	; (8004a5c <xTaskIncrementTick+0x11c>)
 8004a2a:	2400      	movs	r4, #0
 8004a2c:	6813      	ldr	r3, [r2, #0]
 8004a2e:	3301      	adds	r3, #1
 8004a30:	6013      	str	r3, [r2, #0]
 8004a32:	e7b7      	b.n	80049a4 <xTaskIncrementTick+0x64>
 8004a34:	20000ff4 	.word	0x20000ff4
 8004a38:	20001048 	.word	0x20001048
 8004a3c:	20000b84 	.word	0x20000b84
 8004a40:	20000b88 	.word	0x20000b88
 8004a44:	2000102c 	.word	0x2000102c
 8004a48:	20001028 	.word	0x20001028
 8004a4c:	20000b8c 	.word	0x20000b8c
 8004a50:	20000b80 	.word	0x20000b80
 8004a54:	2000104c 	.word	0x2000104c
 8004a58:	20000ffc 	.word	0x20000ffc
 8004a5c:	20000ff0 	.word	0x20000ff0

08004a60 <xTaskResumeAll>:
 8004a60:	e92d 41f0 	stmdb	sp!, {r4, r5, r6, r7, r8, lr}
 8004a64:	4c30      	ldr	r4, [pc, #192]	; (8004b28 <xTaskResumeAll+0xc8>)
 8004a66:	6823      	ldr	r3, [r4, #0]
 8004a68:	b943      	cbnz	r3, 8004a7c <xTaskResumeAll+0x1c>
 8004a6a:	f04f 0350 	mov.w	r3, #80	; 0x50
 8004a6e:	f383 8811 	msr	BASEPRI, r3
 8004a72:	f3bf 8f6f 	isb	sy
 8004a76:	f3bf 8f4f 	dsb	sy
 8004a7a:	e7fe      	b.n	8004a7a <xTaskResumeAll+0x1a>
 8004a7c:	f000 fc12 	bl	80052a4 <vPortEnterCritical>
 8004a80:	6823      	ldr	r3, [r4, #0]
 8004a82:	3b01      	subs	r3, #1
 8004a84:	6023      	str	r3, [r4, #0]
 8004a86:	6824      	ldr	r4, [r4, #0]
 8004a88:	b12c      	cbz	r4, 8004a96 <xTaskResumeAll+0x36>
 8004a8a:	2400      	movs	r4, #0
 8004a8c:	f000 fc2a 	bl	80052e4 <vPortExitCritical>
 8004a90:	4620      	mov	r0, r4
 8004a92:	e8bd 81f0 	ldmia.w	sp!, {r4, r5, r6, r7, r8, pc}
 8004a96:	4b25      	ldr	r3, [pc, #148]	; (8004b2c <xTaskResumeAll+0xcc>)
 8004a98:	681b      	ldr	r3, [r3, #0]
 8004a9a:	2b00      	cmp	r3, #0
 8004a9c:	d0f5      	beq.n	8004a8a <xTaskResumeAll+0x2a>
 8004a9e:	4d24      	ldr	r5, [pc, #144]	; (8004b30 <xTaskResumeAll+0xd0>)
 8004aa0:	4e24      	ldr	r6, [pc, #144]	; (8004b34 <xTaskResumeAll+0xd4>)
 8004aa2:	f8df 8094 	ldr.w	r8, [pc, #148]	; 8004b38 <xTaskResumeAll+0xd8>
 8004aa6:	e01d      	b.n	8004ae4 <xTaskResumeAll+0x84>
 8004aa8:	68eb      	ldr	r3, [r5, #12]
 8004aaa:	68dc      	ldr	r4, [r3, #12]
 8004aac:	1d27      	adds	r7, r4, #4
 8004aae:	f104 0018 	add.w	r0, r4, #24
 8004ab2:	f7ff fa6e 	bl	8003f92 <uxListRemove>
 8004ab6:	4638      	mov	r0, r7
 8004ab8:	f7ff fa6b 	bl	8003f92 <uxListRemove>
 8004abc:	2014      	movs	r0, #20
 8004abe:	6ae3      	ldr	r3, [r4, #44]	; 0x2c
 8004ac0:	6832      	ldr	r2, [r6, #0]
 8004ac2:	fb00 8003 	mla	r0, r0, r3, r8
 8004ac6:	4293      	cmp	r3, r2
 8004ac8:	4639      	mov	r1, r7
 8004aca:	bf88      	it	hi
 8004acc:	6033      	strhi	r3, [r6, #0]
 8004ace:	f7ff fa3d 	bl	8003f4c <vListInsertEnd>
 8004ad2:	4b1a      	ldr	r3, [pc, #104]	; (8004b3c <xTaskResumeAll+0xdc>)
 8004ad4:	6ae2      	ldr	r2, [r4, #44]	; 0x2c
 8004ad6:	681b      	ldr	r3, [r3, #0]
 8004ad8:	6adb      	ldr	r3, [r3, #44]	; 0x2c
 8004ada:	429a      	cmp	r2, r3
 8004adc:	d302      	bcc.n	8004ae4 <xTaskResumeAll+0x84>
 8004ade:	2201      	movs	r2, #1
 8004ae0:	4b17      	ldr	r3, [pc, #92]	; (8004b40 <xTaskResumeAll+0xe0>)
 8004ae2:	601a      	str	r2, [r3, #0]
 8004ae4:	682b      	ldr	r3, [r5, #0]
 8004ae6:	2b00      	cmp	r3, #0
 8004ae8:	d1de      	bne.n	8004aa8 <xTaskResumeAll+0x48>
 8004aea:	b10c      	cbz	r4, 8004af0 <xTaskResumeAll+0x90>
 8004aec:	f7ff fdea 	bl	80046c4 <prvResetNextTaskUnblockTime>
 8004af0:	4d14      	ldr	r5, [pc, #80]	; (8004b44 <xTaskResumeAll+0xe4>)
 8004af2:	682c      	ldr	r4, [r5, #0]
 8004af4:	b144      	cbz	r4, 8004b08 <xTaskResumeAll+0xa8>
 8004af6:	2701      	movs	r7, #1
 8004af8:	4e11      	ldr	r6, [pc, #68]	; (8004b40 <xTaskResumeAll+0xe0>)
 8004afa:	f7ff ff21 	bl	8004940 <xTaskIncrementTick>
 8004afe:	b100      	cbz	r0, 8004b02 <xTaskResumeAll+0xa2>
 8004b00:	6037      	str	r7, [r6, #0]
 8004b02:	3c01      	subs	r4, #1
 8004b04:	d1f9      	bne.n	8004afa <xTaskResumeAll+0x9a>
 8004b06:	602c      	str	r4, [r5, #0]
 8004b08:	4b0d      	ldr	r3, [pc, #52]	; (8004b40 <xTaskResumeAll+0xe0>)
 8004b0a:	681b      	ldr	r3, [r3, #0]
 8004b0c:	2b00      	cmp	r3, #0
 8004b0e:	d0bc      	beq.n	8004a8a <xTaskResumeAll+0x2a>
 8004b10:	f04f 23e0 	mov.w	r3, #3758153728	; 0xe000e000
 8004b14:	f04f 5280 	mov.w	r2, #268435456	; 0x10000000
 8004b18:	f8c3 2d04 	str.w	r2, [r3, #3332]	; 0xd04
 8004b1c:	f3bf 8f4f 	dsb	sy
 8004b20:	f3bf 8f6f 	isb	sy
 8004b24:	2401      	movs	r4, #1
 8004b26:	e7b1      	b.n	8004a8c <xTaskResumeAll+0x2c>
 8004b28:	20000ff4 	.word	0x20000ff4
 8004b2c:	20000fec 	.word	0x20000fec
 8004b30:	20001030 	.word	0x20001030
 8004b34:	20000ffc 	.word	0x20000ffc
 8004b38:	20000b8c 	.word	0x20000b8c
 8004b3c:	20000b80 	.word	0x20000b80
 8004b40:	2000104c 	.word	0x2000104c
 8004b44:	20000ff0 	.word	0x20000ff0

08004b48 <vTaskDelay>:
 8004b48:	b508      	push	{r3, lr}
 8004b4a:	b950      	cbnz	r0, 8004b62 <vTaskDelay+0x1a>
 8004b4c:	f04f 23e0 	mov.w	r3, #3758153728	; 0xe000e000
 8004b50:	f04f 5280 	mov.w	r2, #268435456	; 0x10000000
 8004b54:	f8c3 2d04 	str.w	r2, [r3, #3332]	; 0xd04
 8004b58:	f3bf 8f4f 	dsb	sy
 8004b5c:	f3bf 8f6f 	isb	sy
 8004b60:	bd08      	pop	{r3, pc}
 8004b62:	4b0a      	ldr	r3, [pc, #40]	; (8004b8c <vTaskDelay+0x44>)
 8004b64:	681b      	ldr	r3, [r3, #0]
 8004b66:	b143      	cbz	r3, 8004b7a <vTaskDelay+0x32>
 8004b68:	f04f 0350 	mov.w	r3, #80	; 0x50
 8004b6c:	f383 8811 	msr	BASEPRI, r3
 8004b70:	f3bf 8f6f 	isb	sy
 8004b74:	f3bf 8f4f 	dsb	sy
 8004b78:	e7fe      	b.n	8004b78 <vTaskDelay+0x30>
 8004b7a:	f7ff fed3 	bl	8004924 <vTaskSuspendAll>
 8004b7e:	f7ff fdb3 	bl	80046e8 <prvAddCurrentTaskToDelayedList.constprop.0>
 8004b82:	f7ff ff6d 	bl	8004a60 <xTaskResumeAll>
 8004b86:	2800      	cmp	r0, #0
 8004b88:	d0e0      	beq.n	8004b4c <vTaskDelay+0x4>
 8004b8a:	e7e9      	b.n	8004b60 <vTaskDelay+0x18>
 8004b8c:	20000ff4 	.word	0x20000ff4

08004b90 <vTaskSwitchContext>:
 8004b90:	4b18      	ldr	r3, [pc, #96]	; (8004bf4 <vTaskSwitchContext+0x64>)
 8004b92:	b570      	push	{r4, r5, r6, lr}
 8004b94:	681a      	ldr	r2, [r3, #0]
 8004b96:	4b18      	ldr	r3, [pc, #96]	; (8004bf8 <vTaskSwitchContext+0x68>)
 8004b98:	b112      	cbz	r2, 8004ba0 <vTaskSwitchContext+0x10>
 8004b9a:	2201      	movs	r2, #1
 8004b9c:	601a      	str	r2, [r3, #0]
 8004b9e:	bd70      	pop	{r4, r5, r6, pc}
 8004ba0:	2614      	movs	r6, #20
 8004ba2:	4d16      	ldr	r5, [pc, #88]	; (8004bfc <vTaskSwitchContext+0x6c>)
 8004ba4:	601a      	str	r2, [r3, #0]
 8004ba6:	682a      	ldr	r2, [r5, #0]
 8004ba8:	4915      	ldr	r1, [pc, #84]	; (8004c00 <vTaskSwitchContext+0x70>)
 8004baa:	fb06 f302 	mul.w	r3, r6, r2
 8004bae:	58cc      	ldr	r4, [r1, r3]
 8004bb0:	18c8      	adds	r0, r1, r3
 8004bb2:	b194      	cbz	r4, 8004bda <vTaskSwitchContext+0x4a>
 8004bb4:	6844      	ldr	r4, [r0, #4]
 8004bb6:	3308      	adds	r3, #8
 8004bb8:	6864      	ldr	r4, [r4, #4]
 8004bba:	440b      	add	r3, r1
 8004bbc:	429c      	cmp	r4, r3
 8004bbe:	bf08      	it	eq
 8004bc0:	6863      	ldreq	r3, [r4, #4]
 8004bc2:	6044      	str	r4, [r0, #4]
 8004bc4:	bf08      	it	eq
 8004bc6:	6043      	streq	r3, [r0, #4]
 8004bc8:	2314      	movs	r3, #20
 8004bca:	fb03 1102 	mla	r1, r3, r2, r1
 8004bce:	684b      	ldr	r3, [r1, #4]
 8004bd0:	68d9      	ldr	r1, [r3, #12]
 8004bd2:	4b0c      	ldr	r3, [pc, #48]	; (8004c04 <vTaskSwitchContext+0x74>)
 8004bd4:	6019      	str	r1, [r3, #0]
 8004bd6:	602a      	str	r2, [r5, #0]
 8004bd8:	e7e1      	b.n	8004b9e <vTaskSwitchContext+0xe>
 8004bda:	b942      	cbnz	r2, 8004bee <vTaskSwitchContext+0x5e>
 8004bdc:	f04f 0350 	mov.w	r3, #80	; 0x50
 8004be0:	f383 8811 	msr	BASEPRI, r3
 8004be4:	f3bf 8f6f 	isb	sy
 8004be8:	f3bf 8f4f 	dsb	sy
 8004bec:	e7fe      	b.n	8004bec <vTaskSwitchContext+0x5c>
 8004bee:	3a01      	subs	r2, #1
 8004bf0:	e7db      	b.n	8004baa <vTaskSwitchContext+0x1a>
 8004bf2:	bf00      	nop
 8004bf4:	20000ff4 	.word	0x20000ff4
 8004bf8:	2000104c 	.word	0x2000104c
 8004bfc:	20000ffc 	.word	0x20000ffc
 8004c00:	20000b8c 	.word	0x20000b8c
 8004c04:	20000b80 	.word	0x20000b80

08004c08 <vTaskPlaceOnEventList>:
 8004c08:	b510      	push	{r4, lr}
 8004c0a:	460c      	mov	r4, r1
 8004c0c:	b940      	cbnz	r0, 8004c20 <vTaskPlaceOnEventList+0x18>
 8004c0e:	f04f 0350 	mov.w	r3, #80	; 0x50
 8004c12:	f383 8811 	msr	BASEPRI, r3
 8004c16:	f3bf 8f6f 	isb	sy
 8004c1a:	f3bf 8f4f 	dsb	sy
 8004c1e:	e7fe      	b.n	8004c1e <vTaskPlaceOnEventList+0x16>
 8004c20:	4b04      	ldr	r3, [pc, #16]	; (8004c34 <vTaskPlaceOnEventList+0x2c>)
 8004c22:	6819      	ldr	r1, [r3, #0]
 8004c24:	3118      	adds	r1, #24
 8004c26:	f7ff f99d 	bl	8003f64 <vListInsert>
 8004c2a:	4620      	mov	r0, r4
 8004c2c:	e8bd 4010 	ldmia.w	sp!, {r4, lr}
 8004c30:	f7ff bd5a 	b.w	80046e8 <prvAddCurrentTaskToDelayedList.constprop.0>
 8004c34:	20000b80 	.word	0x20000b80

08004c38 <vTaskPlaceOnEventListRestricted>:
 8004c38:	b538      	push	{r3, r4, r5, lr}
 8004c3a:	460c      	mov	r4, r1
 8004c3c:	4615      	mov	r5, r2
 8004c3e:	b940      	cbnz	r0, 8004c52 <vTaskPlaceOnEventListRestricted+0x1a>
 8004c40:	f04f 0350 	mov.w	r3, #80	; 0x50
 8004c44:	f383 8811 	msr	BASEPRI, r3
 8004c48:	f3bf 8f6f 	isb	sy
 8004c4c:	f3bf 8f4f 	dsb	sy
 8004c50:	e7fe      	b.n	8004c50 <vTaskPlaceOnEventListRestricted+0x18>
 8004c52:	4b07      	ldr	r3, [pc, #28]	; (8004c70 <vTaskPlaceOnEventListRestricted+0x38>)
 8004c54:	6819      	ldr	r1, [r3, #0]
 8004c56:	3118      	adds	r1, #24
 8004c58:	f7ff f978 	bl	8003f4c <vListInsertEnd>
 8004c5c:	2d00      	cmp	r5, #0
 8004c5e:	bf08      	it	eq
 8004c60:	4620      	moveq	r0, r4
 8004c62:	e8bd 4038 	ldmia.w	sp!, {r3, r4, r5, lr}
 8004c66:	bf18      	it	ne
 8004c68:	f04f 30ff 	movne.w	r0, #4294967295
 8004c6c:	f7ff bd3c 	b.w	80046e8 <prvAddCurrentTaskToDelayedList.constprop.0>
 8004c70:	20000b80 	.word	0x20000b80

08004c74 <xTaskRemoveFromEventList>:
 8004c74:	b538      	push	{r3, r4, r5, lr}
 8004c76:	68c3      	ldr	r3, [r0, #12]
 8004c78:	68dc      	ldr	r4, [r3, #12]
 8004c7a:	b944      	cbnz	r4, 8004c8e <xTaskRemoveFromEventList+0x1a>
 8004c7c:	f04f 0350 	mov.w	r3, #80	; 0x50
 8004c80:	f383 8811 	msr	BASEPRI, r3
 8004c84:	f3bf 8f6f 	isb	sy
 8004c88:	f3bf 8f4f 	dsb	sy
 8004c8c:	e7fe      	b.n	8004c8c <xTaskRemoveFromEventList+0x18>
 8004c8e:	f104 0518 	add.w	r5, r4, #24
 8004c92:	4628      	mov	r0, r5
 8004c94:	f7ff f97d 	bl	8003f92 <uxListRemove>
 8004c98:	4b10      	ldr	r3, [pc, #64]	; (8004cdc <xTaskRemoveFromEventList+0x68>)
 8004c9a:	681b      	ldr	r3, [r3, #0]
 8004c9c:	b9db      	cbnz	r3, 8004cd6 <xTaskRemoveFromEventList+0x62>
 8004c9e:	1d25      	adds	r5, r4, #4
 8004ca0:	4628      	mov	r0, r5
 8004ca2:	f7ff f976 	bl	8003f92 <uxListRemove>
 8004ca6:	4a0e      	ldr	r2, [pc, #56]	; (8004ce0 <xTaskRemoveFromEventList+0x6c>)
 8004ca8:	2014      	movs	r0, #20
 8004caa:	6811      	ldr	r1, [r2, #0]
 8004cac:	6ae3      	ldr	r3, [r4, #44]	; 0x2c
 8004cae:	428b      	cmp	r3, r1
 8004cb0:	4629      	mov	r1, r5
 8004cb2:	bf88      	it	hi
 8004cb4:	6013      	strhi	r3, [r2, #0]
 8004cb6:	4a0b      	ldr	r2, [pc, #44]	; (8004ce4 <xTaskRemoveFromEventList+0x70>)
 8004cb8:	fb00 2003 	mla	r0, r0, r3, r2
 8004cbc:	f7ff f946 	bl	8003f4c <vListInsertEnd>
 8004cc0:	4b09      	ldr	r3, [pc, #36]	; (8004ce8 <xTaskRemoveFromEventList+0x74>)
 8004cc2:	6ae2      	ldr	r2, [r4, #44]	; 0x2c
 8004cc4:	681b      	ldr	r3, [r3, #0]
 8004cc6:	6adb      	ldr	r3, [r3, #44]	; 0x2c
 8004cc8:	429a      	cmp	r2, r3
 8004cca:	bf85      	ittet	hi
 8004ccc:	2001      	movhi	r0, #1
 8004cce:	4b07      	ldrhi	r3, [pc, #28]	; (8004cec <xTaskRemoveFromEventList+0x78>)
 8004cd0:	2000      	movls	r0, #0
 8004cd2:	6018      	strhi	r0, [r3, #0]
 8004cd4:	bd38      	pop	{r3, r4, r5, pc}
 8004cd6:	4629      	mov	r1, r5
 8004cd8:	4805      	ldr	r0, [pc, #20]	; (8004cf0 <xTaskRemoveFromEventList+0x7c>)
 8004cda:	e7ef      	b.n	8004cbc <xTaskRemoveFromEventList+0x48>
 8004cdc:	20000ff4 	.word	0x20000ff4
 8004ce0:	20000ffc 	.word	0x20000ffc
 8004ce4:	20000b8c 	.word	0x20000b8c
 8004ce8:	20000b80 	.word	0x20000b80
 8004cec:	2000104c 	.word	0x2000104c
 8004cf0:	20001030 	.word	0x20001030

08004cf4 <vTaskInternalSetTimeOutState>:
 8004cf4:	4b03      	ldr	r3, [pc, #12]	; (8004d04 <vTaskInternalSetTimeOutState+0x10>)
 8004cf6:	681b      	ldr	r3, [r3, #0]
 8004cf8:	6003      	str	r3, [r0, #0]
 8004cfa:	4b03      	ldr	r3, [pc, #12]	; (8004d08 <vTaskInternalSetTimeOutState+0x14>)
 8004cfc:	681b      	ldr	r3, [r3, #0]
 8004cfe:	6043      	str	r3, [r0, #4]
 8004d00:	4770      	bx	lr
 8004d02:	bf00      	nop
 8004d04:	2000102c 	.word	0x2000102c
 8004d08:	20001048 	.word	0x20001048

08004d0c <xTaskCheckForTimeOut>:
 8004d0c:	b538      	push	{r3, r4, r5, lr}
 8004d0e:	460c      	mov	r4, r1
 8004d10:	4605      	mov	r5, r0
 8004d12:	b940      	cbnz	r0, 8004d26 <xTaskCheckForTimeOut+0x1a>
 8004d14:	f04f 0350 	mov.w	r3, #80	; 0x50
 8004d18:	f383 8811 	msr	BASEPRI, r3
 8004d1c:	f3bf 8f6f 	isb	sy
 8004d20:	f3bf 8f4f 	dsb	sy
 8004d24:	e7fe      	b.n	8004d24 <xTaskCheckForTimeOut+0x18>
 8004d26:	b941      	cbnz	r1, 8004d3a <xTaskCheckForTimeOut+0x2e>
 8004d28:	f04f 0350 	mov.w	r3, #80	; 0x50
 8004d2c:	f383 8811 	msr	BASEPRI, r3
 8004d30:	f3bf 8f6f 	isb	sy
 8004d34:	f3bf 8f4f 	dsb	sy
 8004d38:	e7fe      	b.n	8004d38 <xTaskCheckForTimeOut+0x2c>
 8004d3a:	f000 fab3 	bl	80052a4 <vPortEnterCritical>
 8004d3e:	4b0e      	ldr	r3, [pc, #56]	; (8004d78 <xTaskCheckForTimeOut+0x6c>)
 8004d40:	6828      	ldr	r0, [r5, #0]
 8004d42:	6819      	ldr	r1, [r3, #0]
 8004d44:	4b0d      	ldr	r3, [pc, #52]	; (8004d7c <xTaskCheckForTimeOut+0x70>)
 8004d46:	686a      	ldr	r2, [r5, #4]
 8004d48:	681b      	ldr	r3, [r3, #0]
 8004d4a:	4298      	cmp	r0, r3
 8004d4c:	d001      	beq.n	8004d52 <xTaskCheckForTimeOut+0x46>
 8004d4e:	428a      	cmp	r2, r1
 8004d50:	d910      	bls.n	8004d74 <xTaskCheckForTimeOut+0x68>
 8004d52:	6823      	ldr	r3, [r4, #0]
 8004d54:	1a88      	subs	r0, r1, r2
 8004d56:	4283      	cmp	r3, r0
 8004d58:	d90a      	bls.n	8004d70 <xTaskCheckForTimeOut+0x64>
 8004d5a:	1a5b      	subs	r3, r3, r1
 8004d5c:	4413      	add	r3, r2
 8004d5e:	6023      	str	r3, [r4, #0]
 8004d60:	4628      	mov	r0, r5
 8004d62:	f7ff ffc7 	bl	8004cf4 <vTaskInternalSetTimeOutState>
 8004d66:	2400      	movs	r4, #0
 8004d68:	f000 fabc 	bl	80052e4 <vPortExitCritical>
 8004d6c:	4620      	mov	r0, r4
 8004d6e:	bd38      	pop	{r3, r4, r5, pc}
 8004d70:	2300      	movs	r3, #0
 8004d72:	6023      	str	r3, [r4, #0]
 8004d74:	2401      	movs	r4, #1
 8004d76:	e7f7      	b.n	8004d68 <xTaskCheckForTimeOut+0x5c>
 8004d78:	20001048 	.word	0x20001048
 8004d7c:	2000102c 	.word	0x2000102c

08004d80 <vTaskMissedYield>:
 8004d80:	2201      	movs	r2, #1
 8004d82:	4b01      	ldr	r3, [pc, #4]	; (8004d88 <vTaskMissedYield+0x8>)
 8004d84:	601a      	str	r2, [r3, #0]
 8004d86:	4770      	bx	lr
 8004d88:	2000104c 	.word	0x2000104c

08004d8c <xTaskGetSchedulerState>:
 8004d8c:	4b05      	ldr	r3, [pc, #20]	; (8004da4 <xTaskGetSchedulerState+0x18>)
 8004d8e:	681b      	ldr	r3, [r3, #0]
 8004d90:	b133      	cbz	r3, 8004da0 <xTaskGetSchedulerState+0x14>
 8004d92:	4b05      	ldr	r3, [pc, #20]	; (8004da8 <xTaskGetSchedulerState+0x1c>)
 8004d94:	681b      	ldr	r3, [r3, #0]
 8004d96:	2b00      	cmp	r3, #0
 8004d98:	bf0c      	ite	eq
 8004d9a:	2002      	moveq	r0, #2
 8004d9c:	2000      	movne	r0, #0
 8004d9e:	4770      	bx	lr
 8004da0:	2001      	movs	r0, #1
 8004da2:	4770      	bx	lr
 8004da4:	20001044 	.word	0x20001044
 8004da8:	20000ff4 	.word	0x20000ff4

08004dac <xTaskPriorityDisinherit>:
 8004dac:	b538      	push	{r3, r4, r5, lr}
 8004dae:	b908      	cbnz	r0, 8004db4 <xTaskPriorityDisinherit+0x8>
 8004db0:	2000      	movs	r0, #0
 8004db2:	bd38      	pop	{r3, r4, r5, pc}
 8004db4:	4b1b      	ldr	r3, [pc, #108]	; (8004e24 <xTaskPriorityDisinherit+0x78>)
 8004db6:	681c      	ldr	r4, [r3, #0]
 8004db8:	4284      	cmp	r4, r0
 8004dba:	d008      	beq.n	8004dce <xTaskPriorityDisinherit+0x22>
 8004dbc:	f04f 0350 	mov.w	r3, #80	; 0x50
 8004dc0:	f383 8811 	msr	BASEPRI, r3
 8004dc4:	f3bf 8f6f 	isb	sy
 8004dc8:	f3bf 8f4f 	dsb	sy
 8004dcc:	e7fe      	b.n	8004dcc <xTaskPriorityDisinherit+0x20>
 8004dce:	6d23      	ldr	r3, [r4, #80]	; 0x50
 8004dd0:	b943      	cbnz	r3, 8004de4 <xTaskPriorityDisinherit+0x38>
 8004dd2:	f04f 0350 	mov.w	r3, #80	; 0x50
 8004dd6:	f383 8811 	msr	BASEPRI, r3
 8004dda:	f3bf 8f6f 	isb	sy
 8004dde:	f3bf 8f4f 	dsb	sy
 8004de2:	e7fe      	b.n	8004de2 <xTaskPriorityDisinherit+0x36>
 8004de4:	6ae1      	ldr	r1, [r4, #44]	; 0x2c
 8004de6:	6ce2      	ldr	r2, [r4, #76]	; 0x4c
 8004de8:	3b01      	subs	r3, #1
 8004dea:	4291      	cmp	r1, r2
 8004dec:	6523      	str	r3, [r4, #80]	; 0x50
 8004dee:	d0df      	beq.n	8004db0 <xTaskPriorityDisinherit+0x4>
 8004df0:	2b00      	cmp	r3, #0
 8004df2:	d1dd      	bne.n	8004db0 <xTaskPriorityDisinherit+0x4>
 8004df4:	1d25      	adds	r5, r4, #4
 8004df6:	4628      	mov	r0, r5
 8004df8:	f7ff f8cb 	bl	8003f92 <uxListRemove>
 8004dfc:	2014      	movs	r0, #20
 8004dfe:	6ce3      	ldr	r3, [r4, #76]	; 0x4c
 8004e00:	f1c3 0238 	rsb	r2, r3, #56	; 0x38
 8004e04:	61a2      	str	r2, [r4, #24]
 8004e06:	4a08      	ldr	r2, [pc, #32]	; (8004e28 <xTaskPriorityDisinherit+0x7c>)
 8004e08:	62e3      	str	r3, [r4, #44]	; 0x2c
 8004e0a:	6811      	ldr	r1, [r2, #0]
 8004e0c:	428b      	cmp	r3, r1
 8004e0e:	bf88      	it	hi
 8004e10:	6013      	strhi	r3, [r2, #0]
 8004e12:	4a06      	ldr	r2, [pc, #24]	; (8004e2c <xTaskPriorityDisinherit+0x80>)
 8004e14:	4629      	mov	r1, r5
 8004e16:	fb00 2003 	mla	r0, r0, r3, r2
 8004e1a:	f7ff f897 	bl	8003f4c <vListInsertEnd>
 8004e1e:	2001      	movs	r0, #1
 8004e20:	e7c7      	b.n	8004db2 <xTaskPriorityDisinherit+0x6>
 8004e22:	bf00      	nop
 8004e24:	20000b80 	.word	0x20000b80
 8004e28:	20000ffc 	.word	0x20000ffc
 8004e2c:	20000b8c 	.word	0x20000b8c

08004e30 <prvCheckForValidListAndQueue>:
 8004e30:	b5f7      	push	{r0, r1, r2, r4, r5, r6, r7, lr}
 8004e32:	4c11      	ldr	r4, [pc, #68]	; (8004e78 <prvCheckForValidListAndQueue+0x48>)
 8004e34:	f000 fa36 	bl	80052a4 <vPortEnterCritical>
 8004e38:	6825      	ldr	r5, [r4, #0]
 8004e3a:	b9bd      	cbnz	r5, 8004e6c <prvCheckForValidListAndQueue+0x3c>
 8004e3c:	4f0f      	ldr	r7, [pc, #60]	; (8004e7c <prvCheckForValidListAndQueue+0x4c>)
 8004e3e:	4e10      	ldr	r6, [pc, #64]	; (8004e80 <prvCheckForValidListAndQueue+0x50>)
 8004e40:	4638      	mov	r0, r7
 8004e42:	f7ff f875 	bl	8003f30 <vListInitialise>
 8004e46:	4630      	mov	r0, r6
 8004e48:	f7ff f872 	bl	8003f30 <vListInitialise>
 8004e4c:	4b0d      	ldr	r3, [pc, #52]	; (8004e84 <prvCheckForValidListAndQueue+0x54>)
 8004e4e:	2110      	movs	r1, #16
 8004e50:	601f      	str	r7, [r3, #0]
 8004e52:	4b0d      	ldr	r3, [pc, #52]	; (8004e88 <prvCheckForValidListAndQueue+0x58>)
 8004e54:	200a      	movs	r0, #10
 8004e56:	601e      	str	r6, [r3, #0]
 8004e58:	4a0c      	ldr	r2, [pc, #48]	; (8004e8c <prvCheckForValidListAndQueue+0x5c>)
 8004e5a:	4b0d      	ldr	r3, [pc, #52]	; (8004e90 <prvCheckForValidListAndQueue+0x60>)
 8004e5c:	9500      	str	r5, [sp, #0]
 8004e5e:	f7ff f973 	bl	8004148 <xQueueGenericCreateStatic>
 8004e62:	6020      	str	r0, [r4, #0]
 8004e64:	b110      	cbz	r0, 8004e6c <prvCheckForValidListAndQueue+0x3c>
 8004e66:	490b      	ldr	r1, [pc, #44]	; (8004e94 <prvCheckForValidListAndQueue+0x64>)
 8004e68:	f7ff fb6e 	bl	8004548 <vQueueAddToRegistry>
 8004e6c:	b003      	add	sp, #12
 8004e6e:	e8bd 40f0 	ldmia.w	sp!, {r4, r5, r6, r7, lr}
 8004e72:	f000 ba37 	b.w	80052e4 <vPortExitCritical>
 8004e76:	bf00      	nop
 8004e78:	20001174 	.word	0x20001174
 8004e7c:	200010f8 	.word	0x200010f8
 8004e80:	2000110c 	.word	0x2000110c
 8004e84:	20001050 	.word	0x20001050
 8004e88:	20001054 	.word	0x20001054
 8004e8c:	20001058 	.word	0x20001058
 8004e90:	20001124 	.word	0x20001124
 8004e94:	08009356 	.word	0x08009356

08004e98 <prvInsertTimerInActiveList>:
 8004e98:	4291      	cmp	r1, r2
 8004e9a:	b508      	push	{r3, lr}
 8004e9c:	6041      	str	r1, [r0, #4]
 8004e9e:	6100      	str	r0, [r0, #16]
 8004ea0:	d80a      	bhi.n	8004eb8 <prvInsertTimerInActiveList+0x20>
 8004ea2:	1ad2      	subs	r2, r2, r3
 8004ea4:	6983      	ldr	r3, [r0, #24]
 8004ea6:	429a      	cmp	r2, r3
 8004ea8:	d20d      	bcs.n	8004ec6 <prvInsertTimerInActiveList+0x2e>
 8004eaa:	4b08      	ldr	r3, [pc, #32]	; (8004ecc <prvInsertTimerInActiveList+0x34>)
 8004eac:	1d01      	adds	r1, r0, #4
 8004eae:	6818      	ldr	r0, [r3, #0]
 8004eb0:	f7ff f858 	bl	8003f64 <vListInsert>
 8004eb4:	2000      	movs	r0, #0
 8004eb6:	bd08      	pop	{r3, pc}
 8004eb8:	429a      	cmp	r2, r3
 8004eba:	d201      	bcs.n	8004ec0 <prvInsertTimerInActiveList+0x28>
 8004ebc:	4299      	cmp	r1, r3
 8004ebe:	d202      	bcs.n	8004ec6 <prvInsertTimerInActiveList+0x2e>
 8004ec0:	4b03      	ldr	r3, [pc, #12]	; (8004ed0 <prvInsertTimerInActiveList+0x38>)
 8004ec2:	1d01      	adds	r1, r0, #4
 8004ec4:	e7f3      	b.n	8004eae <prvInsertTimerInActiveList+0x16>
 8004ec6:	2001      	movs	r0, #1
 8004ec8:	e7f5      	b.n	8004eb6 <prvInsertTimerInActiveList+0x1e>
 8004eca:	bf00      	nop
 8004ecc:	20001054 	.word	0x20001054
 8004ed0:	20001050 	.word	0x20001050

08004ed4 <xTimerCreateTimerTask>:
 8004ed4:	b510      	push	{r4, lr}
 8004ed6:	b088      	sub	sp, #32
 8004ed8:	f7ff ffaa 	bl	8004e30 <prvCheckForValidListAndQueue>
 8004edc:	4b12      	ldr	r3, [pc, #72]	; (8004f28 <xTimerCreateTimerTask+0x54>)
 8004ede:	681b      	ldr	r3, [r3, #0]
 8004ee0:	b1b3      	cbz	r3, 8004f10 <xTimerCreateTimerTask+0x3c>
 8004ee2:	2400      	movs	r4, #0
 8004ee4:	aa07      	add	r2, sp, #28
 8004ee6:	a906      	add	r1, sp, #24
 8004ee8:	a805      	add	r0, sp, #20
 8004eea:	e9cd 4405 	strd	r4, r4, [sp, #20]
 8004eee:	f7ff f813 	bl	8003f18 <vApplicationGetTimerTaskMemory>
 8004ef2:	9b05      	ldr	r3, [sp, #20]
 8004ef4:	9a07      	ldr	r2, [sp, #28]
 8004ef6:	9302      	str	r3, [sp, #8]
 8004ef8:	9b06      	ldr	r3, [sp, #24]
 8004efa:	490c      	ldr	r1, [pc, #48]	; (8004f2c <xTimerCreateTimerTask+0x58>)
 8004efc:	9301      	str	r3, [sp, #4]
 8004efe:	2302      	movs	r3, #2
 8004f00:	480b      	ldr	r0, [pc, #44]	; (8004f30 <xTimerCreateTimerTask+0x5c>)
 8004f02:	9300      	str	r3, [sp, #0]
 8004f04:	4623      	mov	r3, r4
 8004f06:	f7ff fc62 	bl	80047ce <xTaskCreateStatic>
 8004f0a:	4b0a      	ldr	r3, [pc, #40]	; (8004f34 <xTimerCreateTimerTask+0x60>)
 8004f0c:	6018      	str	r0, [r3, #0]
 8004f0e:	b940      	cbnz	r0, 8004f22 <xTimerCreateTimerTask+0x4e>
 8004f10:	f04f 0350 	mov.w	r3, #80	; 0x50
 8004f14:	f383 8811 	msr	BASEPRI, r3
 8004f18:	f3bf 8f6f 	isb	sy
 8004f1c:	f3bf 8f4f 	dsb	sy
 8004f20:	e7fe      	b.n	8004f20 <xTimerCreateTimerTask+0x4c>
 8004f22:	2001      	movs	r0, #1
 8004f24:	b008      	add	sp, #32
 8004f26:	bd10      	pop	{r4, pc}
 8004f28:	20001174 	.word	0x20001174
 8004f2c:	0800935b 	.word	0x0800935b
 8004f30:	08005039 	.word	0x08005039
 8004f34:	20001178 	.word	0x20001178

08004f38 <xTimerGenericCommand>:
 8004f38:	b57f      	push	{r0, r1, r2, r3, r4, r5, r6, lr}
 8004f3a:	4616      	mov	r6, r2
 8004f3c:	4604      	mov	r4, r0
 8004f3e:	461a      	mov	r2, r3
 8004f40:	b940      	cbnz	r0, 8004f54 <xTimerGenericCommand+0x1c>
 8004f42:	f04f 0350 	mov.w	r3, #80	; 0x50
 8004f46:	f383 8811 	msr	BASEPRI, r3
 8004f4a:	f3bf 8f6f 	isb	sy
 8004f4e:	f3bf 8f4f 	dsb	sy
 8004f52:	e7fe      	b.n	8004f52 <xTimerGenericCommand+0x1a>
 8004f54:	4d0d      	ldr	r5, [pc, #52]	; (8004f8c <xTimerGenericCommand+0x54>)
 8004f56:	6828      	ldr	r0, [r5, #0]
 8004f58:	b180      	cbz	r0, 8004f7c <xTimerGenericCommand+0x44>
 8004f5a:	2905      	cmp	r1, #5
 8004f5c:	e9cd 1600 	strd	r1, r6, [sp]
 8004f60:	9402      	str	r4, [sp, #8]
 8004f62:	dc0d      	bgt.n	8004f80 <xTimerGenericCommand+0x48>
 8004f64:	f7ff ff12 	bl	8004d8c <xTaskGetSchedulerState>
 8004f68:	2300      	movs	r3, #0
 8004f6a:	2802      	cmp	r0, #2
 8004f6c:	bf18      	it	ne
 8004f6e:	461a      	movne	r2, r3
 8004f70:	4669      	mov	r1, sp
 8004f72:	bf08      	it	eq
 8004f74:	9a08      	ldreq	r2, [sp, #32]
 8004f76:	6828      	ldr	r0, [r5, #0]
 8004f78:	f7ff f933 	bl	80041e2 <xQueueGenericSend>
 8004f7c:	b004      	add	sp, #16
 8004f7e:	bd70      	pop	{r4, r5, r6, pc}
 8004f80:	2300      	movs	r3, #0
 8004f82:	4669      	mov	r1, sp
 8004f84:	f7ff f9e0 	bl	8004348 <xQueueGenericSendFromISR>
 8004f88:	e7f8      	b.n	8004f7c <xTimerGenericCommand+0x44>
 8004f8a:	bf00      	nop
 8004f8c:	20001174 	.word	0x20001174

08004f90 <prvSampleTimeNow>:
 8004f90:	e92d 4ff7 	stmdb	sp!, {r0, r1, r2, r4, r5, r6, r7, r8, r9, sl, fp, lr}
 8004f94:	4606      	mov	r6, r0
 8004f96:	f7ff fccd 	bl	8004934 <xTaskGetTickCount>
 8004f9a:	f8df 8090 	ldr.w	r8, [pc, #144]	; 800502c <prvSampleTimeNow+0x9c>
 8004f9e:	4605      	mov	r5, r0
 8004fa0:	f8d8 3000 	ldr.w	r3, [r8]
 8004fa4:	4283      	cmp	r3, r0
 8004fa6:	d93e      	bls.n	8005026 <prvSampleTimeNow+0x96>
 8004fa8:	f04f 0900 	mov.w	r9, #0
 8004fac:	4f20      	ldr	r7, [pc, #128]	; (8005030 <prvSampleTimeNow+0xa0>)
 8004fae:	683b      	ldr	r3, [r7, #0]
 8004fb0:	681a      	ldr	r2, [r3, #0]
 8004fb2:	b95a      	cbnz	r2, 8004fcc <prvSampleTimeNow+0x3c>
 8004fb4:	4a1f      	ldr	r2, [pc, #124]	; (8005034 <prvSampleTimeNow+0xa4>)
 8004fb6:	6811      	ldr	r1, [r2, #0]
 8004fb8:	6013      	str	r3, [r2, #0]
 8004fba:	2301      	movs	r3, #1
 8004fbc:	6039      	str	r1, [r7, #0]
 8004fbe:	4628      	mov	r0, r5
 8004fc0:	6033      	str	r3, [r6, #0]
 8004fc2:	f8c8 5000 	str.w	r5, [r8]
 8004fc6:	b003      	add	sp, #12
 8004fc8:	e8bd 8ff0 	ldmia.w	sp!, {r4, r5, r6, r7, r8, r9, sl, fp, pc}
 8004fcc:	68db      	ldr	r3, [r3, #12]
 8004fce:	68dc      	ldr	r4, [r3, #12]
 8004fd0:	f8d3 a000 	ldr.w	sl, [r3]
 8004fd4:	f104 0b04 	add.w	fp, r4, #4
 8004fd8:	4658      	mov	r0, fp
 8004fda:	f7fe ffda 	bl	8003f92 <uxListRemove>
 8004fde:	6a63      	ldr	r3, [r4, #36]	; 0x24
 8004fe0:	4620      	mov	r0, r4
 8004fe2:	4798      	blx	r3
 8004fe4:	69e3      	ldr	r3, [r4, #28]
 8004fe6:	2b01      	cmp	r3, #1
 8004fe8:	d1e1      	bne.n	8004fae <prvSampleTimeNow+0x1e>
 8004fea:	69a3      	ldr	r3, [r4, #24]
 8004fec:	4453      	add	r3, sl
 8004fee:	459a      	cmp	sl, r3
 8004ff0:	d206      	bcs.n	8005000 <prvSampleTimeNow+0x70>
 8004ff2:	4659      	mov	r1, fp
 8004ff4:	6838      	ldr	r0, [r7, #0]
 8004ff6:	6063      	str	r3, [r4, #4]
 8004ff8:	6124      	str	r4, [r4, #16]
 8004ffa:	f7fe ffb3 	bl	8003f64 <vListInsert>
 8004ffe:	e7d6      	b.n	8004fae <prvSampleTimeNow+0x1e>
 8005000:	2300      	movs	r3, #0
 8005002:	4652      	mov	r2, sl
 8005004:	4619      	mov	r1, r3
 8005006:	4620      	mov	r0, r4
 8005008:	f8cd 9000 	str.w	r9, [sp]
 800500c:	f7ff ff94 	bl	8004f38 <xTimerGenericCommand>
 8005010:	2800      	cmp	r0, #0
 8005012:	d1cc      	bne.n	8004fae <prvSampleTimeNow+0x1e>
 8005014:	f04f 0350 	mov.w	r3, #80	; 0x50
 8005018:	f383 8811 	msr	BASEPRI, r3
 800501c:	f3bf 8f6f 	isb	sy
 8005020:	f3bf 8f4f 	dsb	sy
 8005024:	e7fe      	b.n	8005024 <prvSampleTimeNow+0x94>
 8005026:	2300      	movs	r3, #0
 8005028:	e7c9      	b.n	8004fbe <prvSampleTimeNow+0x2e>
 800502a:	bf00      	nop
 800502c:	20001120 	.word	0x20001120
 8005030:	20001050 	.word	0x20001050
 8005034:	20001054 	.word	0x20001054

08005038 <prvTimerTask>:
 8005038:	e92d 43f0 	stmdb	sp!, {r4, r5, r6, r7, r8, r9, lr}
 800503c:	4e69      	ldr	r6, [pc, #420]	; (80051e4 <prvTimerTask+0x1ac>)
 800503e:	4f6a      	ldr	r7, [pc, #424]	; (80051e8 <prvTimerTask+0x1b0>)
 8005040:	b089      	sub	sp, #36	; 0x24
 8005042:	6833      	ldr	r3, [r6, #0]
 8005044:	681d      	ldr	r5, [r3, #0]
 8005046:	2d00      	cmp	r5, #0
 8005048:	d033      	beq.n	80050b2 <prvTimerTask+0x7a>
 800504a:	68db      	ldr	r3, [r3, #12]
 800504c:	f8d3 8000 	ldr.w	r8, [r3]
 8005050:	f7ff fc68 	bl	8004924 <vTaskSuspendAll>
 8005054:	a804      	add	r0, sp, #16
 8005056:	f7ff ff9b 	bl	8004f90 <prvSampleTimeNow>
 800505a:	9c04      	ldr	r4, [sp, #16]
 800505c:	4681      	mov	r9, r0
 800505e:	2c00      	cmp	r4, #0
 8005060:	d175      	bne.n	800514e <prvTimerTask+0x116>
 8005062:	2d00      	cmp	r5, #0
 8005064:	d058      	beq.n	8005118 <prvTimerTask+0xe0>
 8005066:	4540      	cmp	r0, r8
 8005068:	d35c      	bcc.n	8005124 <prvTimerTask+0xec>
 800506a:	f7ff fcf9 	bl	8004a60 <xTaskResumeAll>
 800506e:	6833      	ldr	r3, [r6, #0]
 8005070:	68db      	ldr	r3, [r3, #12]
 8005072:	68dd      	ldr	r5, [r3, #12]
 8005074:	1d28      	adds	r0, r5, #4
 8005076:	f7fe ff8c 	bl	8003f92 <uxListRemove>
 800507a:	69eb      	ldr	r3, [r5, #28]
 800507c:	2b01      	cmp	r3, #1
 800507e:	d11a      	bne.n	80050b6 <prvTimerTask+0x7e>
 8005080:	69a9      	ldr	r1, [r5, #24]
 8005082:	4643      	mov	r3, r8
 8005084:	464a      	mov	r2, r9
 8005086:	4628      	mov	r0, r5
 8005088:	4441      	add	r1, r8
 800508a:	f7ff ff05 	bl	8004e98 <prvInsertTimerInActiveList>
 800508e:	b190      	cbz	r0, 80050b6 <prvTimerTask+0x7e>
 8005090:	4623      	mov	r3, r4
 8005092:	4642      	mov	r2, r8
 8005094:	4621      	mov	r1, r4
 8005096:	4628      	mov	r0, r5
 8005098:	9400      	str	r4, [sp, #0]
 800509a:	f7ff ff4d 	bl	8004f38 <xTimerGenericCommand>
 800509e:	b950      	cbnz	r0, 80050b6 <prvTimerTask+0x7e>
 80050a0:	f04f 0350 	mov.w	r3, #80	; 0x50
 80050a4:	f383 8811 	msr	BASEPRI, r3
 80050a8:	f3bf 8f6f 	isb	sy
 80050ac:	f3bf 8f4f 	dsb	sy
 80050b0:	e7fe      	b.n	80050b0 <prvTimerTask+0x78>
 80050b2:	46a8      	mov	r8, r5
 80050b4:	e7cc      	b.n	8005050 <prvTimerTask+0x18>
 80050b6:	4628      	mov	r0, r5
 80050b8:	6a6b      	ldr	r3, [r5, #36]	; 0x24
 80050ba:	4798      	blx	r3
 80050bc:	2500      	movs	r5, #0
 80050be:	2200      	movs	r2, #0
 80050c0:	6838      	ldr	r0, [r7, #0]
 80050c2:	a904      	add	r1, sp, #16
 80050c4:	f7ff f9a1 	bl	800440a <xQueueReceive>
 80050c8:	2800      	cmp	r0, #0
 80050ca:	d0ba      	beq.n	8005042 <prvTimerTask+0xa>
 80050cc:	9b04      	ldr	r3, [sp, #16]
 80050ce:	9806      	ldr	r0, [sp, #24]
 80050d0:	2b00      	cmp	r3, #0
 80050d2:	db3f      	blt.n	8005154 <prvTimerTask+0x11c>
 80050d4:	9c06      	ldr	r4, [sp, #24]
 80050d6:	6963      	ldr	r3, [r4, #20]
 80050d8:	2b00      	cmp	r3, #0
 80050da:	d142      	bne.n	8005162 <prvTimerTask+0x12a>
 80050dc:	a803      	add	r0, sp, #12
 80050de:	f7ff ff57 	bl	8004f90 <prvSampleTimeNow>
 80050e2:	9b04      	ldr	r3, [sp, #16]
 80050e4:	4602      	mov	r2, r0
 80050e6:	2b09      	cmp	r3, #9
 80050e8:	d8e9      	bhi.n	80050be <prvTimerTask+0x86>
 80050ea:	a101      	add	r1, pc, #4	; (adr r1, 80050f0 <prvTimerTask+0xb8>)
 80050ec:	f851 f023 	ldr.w	pc, [r1, r3, lsl #2]
 80050f0:	0800516b 	.word	0x0800516b
 80050f4:	0800516b 	.word	0x0800516b
 80050f8:	0800516b 	.word	0x0800516b
 80050fc:	080050bf 	.word	0x080050bf
 8005100:	080051af 	.word	0x080051af
 8005104:	080051d3 	.word	0x080051d3
 8005108:	0800516b 	.word	0x0800516b
 800510c:	0800516b 	.word	0x0800516b
 8005110:	080050bf 	.word	0x080050bf
 8005114:	080051af 	.word	0x080051af
 8005118:	4b34      	ldr	r3, [pc, #208]	; (80051ec <prvTimerTask+0x1b4>)
 800511a:	681b      	ldr	r3, [r3, #0]
 800511c:	681c      	ldr	r4, [r3, #0]
 800511e:	fab4 f484 	clz	r4, r4
 8005122:	0964      	lsrs	r4, r4, #5
 8005124:	4622      	mov	r2, r4
 8005126:	6838      	ldr	r0, [r7, #0]
 8005128:	eba8 0109 	sub.w	r1, r8, r9
 800512c:	f7ff fa1e 	bl	800456c <vQueueWaitForMessageRestricted>
 8005130:	f7ff fc96 	bl	8004a60 <xTaskResumeAll>
 8005134:	2800      	cmp	r0, #0
 8005136:	d1c1      	bne.n	80050bc <prvTimerTask+0x84>
 8005138:	f04f 23e0 	mov.w	r3, #3758153728	; 0xe000e000
 800513c:	f04f 5280 	mov.w	r2, #268435456	; 0x10000000
 8005140:	f8c3 2d04 	str.w	r2, [r3, #3332]	; 0xd04
 8005144:	f3bf 8f4f 	dsb	sy
 8005148:	f3bf 8f6f 	isb	sy
 800514c:	e7b6      	b.n	80050bc <prvTimerTask+0x84>
 800514e:	f7ff fc87 	bl	8004a60 <xTaskResumeAll>
 8005152:	e7b3      	b.n	80050bc <prvTimerTask+0x84>
 8005154:	9b05      	ldr	r3, [sp, #20]
 8005156:	9907      	ldr	r1, [sp, #28]
 8005158:	4798      	blx	r3
 800515a:	9b04      	ldr	r3, [sp, #16]
 800515c:	2b00      	cmp	r3, #0
 800515e:	dbae      	blt.n	80050be <prvTimerTask+0x86>
 8005160:	e7b8      	b.n	80050d4 <prvTimerTask+0x9c>
 8005162:	1d20      	adds	r0, r4, #4
 8005164:	f7fe ff15 	bl	8003f92 <uxListRemove>
 8005168:	e7b8      	b.n	80050dc <prvTimerTask+0xa4>
 800516a:	69a1      	ldr	r1, [r4, #24]
 800516c:	9b05      	ldr	r3, [sp, #20]
 800516e:	4620      	mov	r0, r4
 8005170:	4419      	add	r1, r3
 8005172:	f7ff fe91 	bl	8004e98 <prvInsertTimerInActiveList>
 8005176:	2800      	cmp	r0, #0
 8005178:	d0a1      	beq.n	80050be <prvTimerTask+0x86>
 800517a:	6a63      	ldr	r3, [r4, #36]	; 0x24
 800517c:	4620      	mov	r0, r4
 800517e:	4798      	blx	r3
 8005180:	69e3      	ldr	r3, [r4, #28]
 8005182:	2b01      	cmp	r3, #1
 8005184:	d19b      	bne.n	80050be <prvTimerTask+0x86>
 8005186:	2300      	movs	r3, #0
 8005188:	69a2      	ldr	r2, [r4, #24]
 800518a:	9905      	ldr	r1, [sp, #20]
 800518c:	4620      	mov	r0, r4
 800518e:	440a      	add	r2, r1
 8005190:	9500      	str	r5, [sp, #0]
 8005192:	4619      	mov	r1, r3
 8005194:	f7ff fed0 	bl	8004f38 <xTimerGenericCommand>
 8005198:	2800      	cmp	r0, #0
 800519a:	d190      	bne.n	80050be <prvTimerTask+0x86>
 800519c:	f04f 0350 	mov.w	r3, #80	; 0x50
 80051a0:	f383 8811 	msr	BASEPRI, r3
 80051a4:	f3bf 8f6f 	isb	sy
 80051a8:	f3bf 8f4f 	dsb	sy
 80051ac:	e7fe      	b.n	80051ac <prvTimerTask+0x174>
 80051ae:	9905      	ldr	r1, [sp, #20]
 80051b0:	61a1      	str	r1, [r4, #24]
 80051b2:	b941      	cbnz	r1, 80051c6 <prvTimerTask+0x18e>
 80051b4:	f04f 0350 	mov.w	r3, #80	; 0x50
 80051b8:	f383 8811 	msr	BASEPRI, r3
 80051bc:	f3bf 8f6f 	isb	sy
 80051c0:	f3bf 8f4f 	dsb	sy
 80051c4:	e7fe      	b.n	80051c4 <prvTimerTask+0x18c>
 80051c6:	4603      	mov	r3, r0
 80051c8:	4401      	add	r1, r0
 80051ca:	4620      	mov	r0, r4
 80051cc:	f7ff fe64 	bl	8004e98 <prvInsertTimerInActiveList>
 80051d0:	e775      	b.n	80050be <prvTimerTask+0x86>
 80051d2:	f894 302c 	ldrb.w	r3, [r4, #44]	; 0x2c
 80051d6:	2b00      	cmp	r3, #0
 80051d8:	f47f af71 	bne.w	80050be <prvTimerTask+0x86>
 80051dc:	4620      	mov	r0, r4
 80051de:	f000 fa1f 	bl	8005620 <vPortFree>
 80051e2:	e76c      	b.n	80050be <prvTimerTask+0x86>
 80051e4:	20001050 	.word	0x20001050
 80051e8:	20001174 	.word	0x20001174
 80051ec:	20001054 	.word	0x20001054

080051f0 <prvPortStartFirstTask>:
 80051f0:	4806      	ldr	r0, [pc, #24]	; (800520c <prvPortStartFirstTask+0x1c>)
 80051f2:	6800      	ldr	r0, [r0, #0]
 80051f4:	6800      	ldr	r0, [r0, #0]
 80051f6:	f380 8808 	msr	MSP, r0
 80051fa:	b662      	cpsie	i
 80051fc:	b661      	cpsie	f
 80051fe:	f3bf 8f4f 	dsb	sy
 8005202:	f3bf 8f6f 	isb	sy
 8005206:	df00      	svc	0
 8005208:	bf00      	nop
 800520a:	0000      	.short	0x0000
 800520c:	e000ed08 	.word	0xe000ed08

08005210 <prvTaskExitError>:
 8005210:	2300      	movs	r3, #0
 8005212:	b082      	sub	sp, #8
 8005214:	9301      	str	r3, [sp, #4]
 8005216:	4b0d      	ldr	r3, [pc, #52]	; (800524c <prvTaskExitError+0x3c>)
 8005218:	681b      	ldr	r3, [r3, #0]
 800521a:	3301      	adds	r3, #1
 800521c:	d008      	beq.n	8005230 <prvTaskExitError+0x20>
 800521e:	f04f 0350 	mov.w	r3, #80	; 0x50
 8005222:	f383 8811 	msr	BASEPRI, r3
 8005226:	f3bf 8f6f 	isb	sy
 800522a:	f3bf 8f4f 	dsb	sy
 800522e:	e7fe      	b.n	800522e <prvTaskExitError+0x1e>
 8005230:	f04f 0350 	mov.w	r3, #80	; 0x50
 8005234:	f383 8811 	msr	BASEPRI, r3
 8005238:	f3bf 8f6f 	isb	sy
 800523c:	f3bf 8f4f 	dsb	sy
 8005240:	9b01      	ldr	r3, [sp, #4]
 8005242:	2b00      	cmp	r3, #0
 8005244:	d0fc      	beq.n	8005240 <prvTaskExitError+0x30>
 8005246:	b002      	add	sp, #8
 8005248:	4770      	bx	lr
 800524a:	bf00      	nop
 800524c:	2000011c 	.word	0x2000011c

08005250 <pxPortInitialiseStack>:
 8005250:	f04f 7380 	mov.w	r3, #16777216	; 0x1000000
 8005254:	f840 3c04 	str.w	r3, [r0, #-4]
 8005258:	4b05      	ldr	r3, [pc, #20]	; (8005270 <pxPortInitialiseStack+0x20>)
 800525a:	f021 0101 	bic.w	r1, r1, #1
 800525e:	f840 1c08 	str.w	r1, [r0, #-8]
 8005262:	f840 3c0c 	str.w	r3, [r0, #-12]
 8005266:	f840 2c20 	str.w	r2, [r0, #-32]
 800526a:	3840      	subs	r0, #64	; 0x40
 800526c:	4770      	bx	lr
 800526e:	bf00      	nop
 8005270:	08005211 	.word	0x08005211
	...

08005280 <SVC_Handler>:
 8005280:	4b07      	ldr	r3, [pc, #28]	; (80052a0 <pxCurrentTCBConst2>)
 8005282:	6819      	ldr	r1, [r3, #0]
 8005284:	6808      	ldr	r0, [r1, #0]
 8005286:	e8b0 0ff0 	ldmia.w	r0!, {r4, r5, r6, r7, r8, r9, sl, fp}
 800528a:	f380 8809 	msr	PSP, r0
 800528e:	f3bf 8f6f 	isb	sy
 8005292:	f04f 0000 	mov.w	r0, #0
 8005296:	f380 8811 	msr	BASEPRI, r0
 800529a:	f04e 0e0d 	orr.w	lr, lr, #13
 800529e:	4770      	bx	lr

080052a0 <pxCurrentTCBConst2>:
 80052a0:	20000b80 	.word	0x20000b80

080052a4 <vPortEnterCritical>:
 80052a4:	f04f 0350 	mov.w	r3, #80	; 0x50
 80052a8:	f383 8811 	msr	BASEPRI, r3
 80052ac:	f3bf 8f6f 	isb	sy
 80052b0:	f3bf 8f4f 	dsb	sy
 80052b4:	4a0a      	ldr	r2, [pc, #40]	; (80052e0 <vPortEnterCritical+0x3c>)
 80052b6:	6813      	ldr	r3, [r2, #0]
 80052b8:	3301      	adds	r3, #1
 80052ba:	2b01      	cmp	r3, #1
 80052bc:	6013      	str	r3, [r2, #0]
 80052be:	d10e      	bne.n	80052de <vPortEnterCritical+0x3a>
 80052c0:	f04f 23e0 	mov.w	r3, #3758153728	; 0xe000e000
 80052c4:	f8d3 3d04 	ldr.w	r3, [r3, #3332]	; 0xd04
 80052c8:	b2db      	uxtb	r3, r3
 80052ca:	b143      	cbz	r3, 80052de <vPortEnterCritical+0x3a>
 80052cc:	f04f 0350 	mov.w	r3, #80	; 0x50
 80052d0:	f383 8811 	msr	BASEPRI, r3
 80052d4:	f3bf 8f6f 	isb	sy
 80052d8:	f3bf 8f4f 	dsb	sy
 80052dc:	e7fe      	b.n	80052dc <vPortEnterCritical+0x38>
 80052de:	4770      	bx	lr
 80052e0:	2000011c 	.word	0x2000011c

080052e4 <vPortExitCritical>:
 80052e4:	4a08      	ldr	r2, [pc, #32]	; (8005308 <vPortExitCritical+0x24>)
 80052e6:	6813      	ldr	r3, [r2, #0]
 80052e8:	b943      	cbnz	r3, 80052fc <vPortExitCritical+0x18>
 80052ea:	f04f 0350 	mov.w	r3, #80	; 0x50
 80052ee:	f383 8811 	msr	BASEPRI, r3
 80052f2:	f3bf 8f6f 	isb	sy
 80052f6:	f3bf 8f4f 	dsb	sy
 80052fa:	e7fe      	b.n	80052fa <vPortExitCritical+0x16>
 80052fc:	3b01      	subs	r3, #1
 80052fe:	6013      	str	r3, [r2, #0]
 8005300:	b90b      	cbnz	r3, 8005306 <vPortExitCritical+0x22>
 8005302:	f383 8811 	msr	BASEPRI, r3
 8005306:	4770      	bx	lr
 8005308:	2000011c 	.word	0x2000011c
 800530c:	00000000 	.word	0x00000000

08005310 <PendSV_Handler>:
 8005310:	f3ef 8009 	mrs	r0, PSP
 8005314:	f3bf 8f6f 	isb	sy
 8005318:	4b0d      	ldr	r3, [pc, #52]	; (8005350 <pxCurrentTCBConst>)
 800531a:	681a      	ldr	r2, [r3, #0]
 800531c:	e920 0ff0 	stmdb	r0!, {r4, r5, r6, r7, r8, r9, sl, fp}
 8005320:	6010      	str	r0, [r2, #0]
 8005322:	e92d 4008 	stmdb	sp!, {r3, lr}
 8005326:	f04f 0050 	mov.w	r0, #80	; 0x50
 800532a:	f380 8811 	msr	BASEPRI, r0
 800532e:	f7ff fc2f 	bl	8004b90 <vTaskSwitchContext>
 8005332:	f04f 0000 	mov.w	r0, #0
 8005336:	f380 8811 	msr	BASEPRI, r0
 800533a:	e8bd 4008 	ldmia.w	sp!, {r3, lr}
 800533e:	6819      	ldr	r1, [r3, #0]
 8005340:	6808      	ldr	r0, [r1, #0]
 8005342:	e8b0 0ff0 	ldmia.w	r0!, {r4, r5, r6, r7, r8, r9, sl, fp}
 8005346:	f380 8809 	msr	PSP, r0
 800534a:	f3bf 8f6f 	isb	sy
 800534e:	4770      	bx	lr

08005350 <pxCurrentTCBConst>:
 8005350:	20000b80 	.word	0x20000b80

08005354 <SysTick_Handler>:
 8005354:	b508      	push	{r3, lr}
 8005356:	f04f 0350 	mov.w	r3, #80	; 0x50
 800535a:	f383 8811 	msr	BASEPRI, r3
 800535e:	f3bf 8f6f 	isb	sy
 8005362:	f3bf 8f4f 	dsb	sy
 8005366:	f7ff faeb 	bl	8004940 <xTaskIncrementTick>
 800536a:	b128      	cbz	r0, 8005378 <SysTick_Handler+0x24>
 800536c:	f04f 23e0 	mov.w	r3, #3758153728	; 0xe000e000
 8005370:	f04f 5280 	mov.w	r2, #268435456	; 0x10000000
 8005374:	f8c3 2d04 	str.w	r2, [r3, #3332]	; 0xd04
 8005378:	2300      	movs	r3, #0
 800537a:	f383 8811 	msr	BASEPRI, r3
 800537e:	bd08      	pop	{r3, pc}

08005380 <vPortSetupTimerInterrupt>:
 8005380:	f04f 22e0 	mov.w	r2, #3758153728	; 0xe000e000
 8005384:	2300      	movs	r3, #0
 8005386:	f44f 717a 	mov.w	r1, #1000	; 0x3e8
 800538a:	6113      	str	r3, [r2, #16]
 800538c:	6193      	str	r3, [r2, #24]
 800538e:	4b04      	ldr	r3, [pc, #16]	; (80053a0 <vPortSetupTimerInterrupt+0x20>)
 8005390:	681b      	ldr	r3, [r3, #0]
 8005392:	fbb3 f3f1 	udiv	r3, r3, r1
 8005396:	3b01      	subs	r3, #1
 8005398:	6153      	str	r3, [r2, #20]
 800539a:	2307      	movs	r3, #7
 800539c:	6113      	str	r3, [r2, #16]
 800539e:	4770      	bx	lr
 80053a0:	20000000 	.word	0x20000000

080053a4 <xPortStartScheduler>:
 80053a4:	b513      	push	{r0, r1, r4, lr}
 80053a6:	4b29      	ldr	r3, [pc, #164]	; (800544c <xPortStartScheduler+0xa8>)
 80053a8:	2100      	movs	r1, #0
 80053aa:	781a      	ldrb	r2, [r3, #0]
 80053ac:	b2d2      	uxtb	r2, r2
 80053ae:	9201      	str	r2, [sp, #4]
 80053b0:	22ff      	movs	r2, #255	; 0xff
 80053b2:	701a      	strb	r2, [r3, #0]
 80053b4:	781b      	ldrb	r3, [r3, #0]
 80053b6:	4a26      	ldr	r2, [pc, #152]	; (8005450 <xPortStartScheduler+0xac>)
 80053b8:	b2db      	uxtb	r3, r3
 80053ba:	f88d 3003 	strb.w	r3, [sp, #3]
 80053be:	f89d 3003 	ldrb.w	r3, [sp, #3]
 80053c2:	f003 0350 	and.w	r3, r3, #80	; 0x50
 80053c6:	7013      	strb	r3, [r2, #0]
 80053c8:	2307      	movs	r3, #7
 80053ca:	4a22      	ldr	r2, [pc, #136]	; (8005454 <xPortStartScheduler+0xb0>)
 80053cc:	6013      	str	r3, [r2, #0]
 80053ce:	f89d 0003 	ldrb.w	r0, [sp, #3]
 80053d2:	1e5c      	subs	r4, r3, #1
 80053d4:	0600      	lsls	r0, r0, #24
 80053d6:	d40c      	bmi.n	80053f2 <xPortStartScheduler+0x4e>
 80053d8:	b111      	cbz	r1, 80053e0 <xPortStartScheduler+0x3c>
 80053da:	2b03      	cmp	r3, #3
 80053dc:	6013      	str	r3, [r2, #0]
 80053de:	d011      	beq.n	8005404 <xPortStartScheduler+0x60>
 80053e0:	f04f 0350 	mov.w	r3, #80	; 0x50
 80053e4:	f383 8811 	msr	BASEPRI, r3
 80053e8:	f3bf 8f6f 	isb	sy
 80053ec:	f3bf 8f4f 	dsb	sy
 80053f0:	e7fe      	b.n	80053f0 <xPortStartScheduler+0x4c>
 80053f2:	f89d 3003 	ldrb.w	r3, [sp, #3]
 80053f6:	2101      	movs	r1, #1
 80053f8:	005b      	lsls	r3, r3, #1
 80053fa:	b2db      	uxtb	r3, r3
 80053fc:	f88d 3003 	strb.w	r3, [sp, #3]
 8005400:	4623      	mov	r3, r4
 8005402:	e7e4      	b.n	80053ce <xPortStartScheduler+0x2a>
 8005404:	f44f 7340 	mov.w	r3, #768	; 0x300
 8005408:	6013      	str	r3, [r2, #0]
 800540a:	9b01      	ldr	r3, [sp, #4]
 800540c:	4a0f      	ldr	r2, [pc, #60]	; (800544c <xPortStartScheduler+0xa8>)
 800540e:	b2db      	uxtb	r3, r3
 8005410:	7013      	strb	r3, [r2, #0]
 8005412:	f04f 23e0 	mov.w	r3, #3758153728	; 0xe000e000
 8005416:	2400      	movs	r4, #0
 8005418:	f8d3 2d20 	ldr.w	r2, [r3, #3360]	; 0xd20
 800541c:	f442 0270 	orr.w	r2, r2, #15728640	; 0xf00000
 8005420:	f8c3 2d20 	str.w	r2, [r3, #3360]	; 0xd20
 8005424:	f8d3 2d20 	ldr.w	r2, [r3, #3360]	; 0xd20
 8005428:	f042 4270 	orr.w	r2, r2, #4026531840	; 0xf0000000
 800542c:	f8c3 2d20 	str.w	r2, [r3, #3360]	; 0xd20
 8005430:	f7ff ffa6 	bl	8005380 <vPortSetupTimerInterrupt>
 8005434:	4b08      	ldr	r3, [pc, #32]	; (8005458 <xPortStartScheduler+0xb4>)
 8005436:	601c      	str	r4, [r3, #0]
 8005438:	f7ff feda 	bl	80051f0 <prvPortStartFirstTask>
 800543c:	f7ff fba8 	bl	8004b90 <vTaskSwitchContext>
 8005440:	4620      	mov	r0, r4
 8005442:	f7ff fee5 	bl	8005210 <prvTaskExitError>
 8005446:	b002      	add	sp, #8
 8005448:	bd10      	pop	{r4, pc}
 800544a:	bf00      	nop
 800544c:	e000e400 	.word	0xe000e400
 8005450:	2000117c 	.word	0x2000117c
 8005454:	20001180 	.word	0x20001180
 8005458:	2000011c 	.word	0x2000011c

0800545c <vPortValidateInterruptPriority>:
 800545c:	f3ef 8305 	mrs	r3, IPSR
 8005460:	2b0f      	cmp	r3, #15
 8005462:	d90e      	bls.n	8005482 <vPortValidateInterruptPriority+0x26>
 8005464:	4a11      	ldr	r2, [pc, #68]	; (80054ac <vPortValidateInterruptPriority+0x50>)
 8005466:	5c9b      	ldrb	r3, [r3, r2]
 8005468:	4a11      	ldr	r2, [pc, #68]	; (80054b0 <vPortValidateInterruptPriority+0x54>)
 800546a:	7812      	ldrb	r2, [r2, #0]
 800546c:	429a      	cmp	r2, r3
 800546e:	d908      	bls.n	8005482 <vPortValidateInterruptPriority+0x26>
 8005470:	f04f 0350 	mov.w	r3, #80	; 0x50
 8005474:	f383 8811 	msr	BASEPRI, r3
 8005478:	f3bf 8f6f 	isb	sy
 800547c:	f3bf 8f4f 	dsb	sy
 8005480:	e7fe      	b.n	8005480 <vPortValidateInterruptPriority+0x24>
 8005482:	f04f 23e0 	mov.w	r3, #3758153728	; 0xe000e000
 8005486:	4a0b      	ldr	r2, [pc, #44]	; (80054b4 <vPortValidateInterruptPriority+0x58>)
 8005488:	f8d3 3d0c 	ldr.w	r3, [r3, #3340]	; 0xd0c
 800548c:	6812      	ldr	r2, [r2, #0]
 800548e:	f403 63e0 	and.w	r3, r3, #1792	; 0x700
 8005492:	4293      	cmp	r3, r2
 8005494:	d908      	bls.n	80054a8 <vPortValidateInterruptPriority+0x4c>
 8005496:	f04f 0350 	mov.w	r3, #80	; 0x50
 800549a:	f383 8811 	msr	BASEPRI, r3
 800549e:	f3bf 8f6f 	isb	sy
 80054a2:	f3bf 8f4f 	dsb	sy
 80054a6:	e7fe      	b.n	80054a6 <vPortValidateInterruptPriority+0x4a>
 80054a8:	4770      	bx	lr
 80054aa:	bf00      	nop
 80054ac:	e000e3f0 	.word	0xe000e3f0
 80054b0:	2000117c 	.word	0x2000117c
 80054b4:	20001180 	.word	0x20001180

080054b8 <prvInsertBlockIntoFreeList>:
 80054b8:	b510      	push	{r4, lr}
 80054ba:	4b0f      	ldr	r3, [pc, #60]	; (80054f8 <prvInsertBlockIntoFreeList+0x40>)
 80054bc:	461a      	mov	r2, r3
 80054be:	681b      	ldr	r3, [r3, #0]
 80054c0:	4283      	cmp	r3, r0
 80054c2:	d3fb      	bcc.n	80054bc <prvInsertBlockIntoFreeList+0x4>
 80054c4:	6854      	ldr	r4, [r2, #4]
 80054c6:	1911      	adds	r1, r2, r4
 80054c8:	4288      	cmp	r0, r1
 80054ca:	bf01      	itttt	eq
 80054cc:	6841      	ldreq	r1, [r0, #4]
 80054ce:	4610      	moveq	r0, r2
 80054d0:	1909      	addeq	r1, r1, r4
 80054d2:	6051      	streq	r1, [r2, #4]
 80054d4:	6844      	ldr	r4, [r0, #4]
 80054d6:	1901      	adds	r1, r0, r4
 80054d8:	428b      	cmp	r3, r1
 80054da:	d107      	bne.n	80054ec <prvInsertBlockIntoFreeList+0x34>
 80054dc:	4907      	ldr	r1, [pc, #28]	; (80054fc <prvInsertBlockIntoFreeList+0x44>)
 80054de:	6809      	ldr	r1, [r1, #0]
 80054e0:	428b      	cmp	r3, r1
 80054e2:	bf1f      	itttt	ne
 80054e4:	6859      	ldrne	r1, [r3, #4]
 80054e6:	681b      	ldrne	r3, [r3, #0]
 80054e8:	1909      	addne	r1, r1, r4
 80054ea:	6041      	strne	r1, [r0, #4]
 80054ec:	4290      	cmp	r0, r2
 80054ee:	6003      	str	r3, [r0, #0]
 80054f0:	bf18      	it	ne
 80054f2:	6010      	strne	r0, [r2, #0]
 80054f4:	bd10      	pop	{r4, pc}
 80054f6:	bf00      	nop
 80054f8:	20001d94 	.word	0x20001d94
 80054fc:	20001184 	.word	0x20001184

08005500 <pvPortMalloc>:
 8005500:	e92d 41f0 	stmdb	sp!, {r4, r5, r6, r7, r8, lr}
 8005504:	4604      	mov	r4, r0
 8005506:	f7ff fa0d 	bl	8004924 <vTaskSuspendAll>
 800550a:	483f      	ldr	r0, [pc, #252]	; (8005608 <pvPortMalloc+0x108>)
 800550c:	4d3f      	ldr	r5, [pc, #252]	; (800560c <pvPortMalloc+0x10c>)
 800550e:	6803      	ldr	r3, [r0, #0]
 8005510:	bb0b      	cbnz	r3, 8005556 <pvPortMalloc+0x56>
 8005512:	493f      	ldr	r1, [pc, #252]	; (8005610 <pvPortMalloc+0x110>)
 8005514:	074e      	lsls	r6, r1, #29
 8005516:	bf1d      	ittte	ne
 8005518:	1dcb      	addne	r3, r1, #7
 800551a:	f023 0307 	bicne.w	r3, r3, #7
 800551e:	f501 6240 	addne.w	r2, r1, #3072	; 0xc00
 8005522:	f44f 6240 	moveq.w	r2, #3072	; 0xc00
 8005526:	bf1c      	itt	ne
 8005528:	4619      	movne	r1, r3
 800552a:	1ad2      	subne	r2, r2, r3
 800552c:	2300      	movs	r3, #0
 800552e:	440a      	add	r2, r1
 8005530:	4e38      	ldr	r6, [pc, #224]	; (8005614 <pvPortMalloc+0x114>)
 8005532:	3a08      	subs	r2, #8
 8005534:	f022 0207 	bic.w	r2, r2, #7
 8005538:	6073      	str	r3, [r6, #4]
 800553a:	6031      	str	r1, [r6, #0]
 800553c:	e9c2 3300 	strd	r3, r3, [r2]
 8005540:	1a53      	subs	r3, r2, r1
 8005542:	e9c1 2300 	strd	r2, r3, [r1]
 8005546:	6002      	str	r2, [r0, #0]
 8005548:	4a33      	ldr	r2, [pc, #204]	; (8005618 <pvPortMalloc+0x118>)
 800554a:	6013      	str	r3, [r2, #0]
 800554c:	4a33      	ldr	r2, [pc, #204]	; (800561c <pvPortMalloc+0x11c>)
 800554e:	6013      	str	r3, [r2, #0]
 8005550:	f04f 4300 	mov.w	r3, #2147483648	; 0x80000000
 8005554:	602b      	str	r3, [r5, #0]
 8005556:	682f      	ldr	r7, [r5, #0]
 8005558:	4227      	tst	r7, r4
 800555a:	d150      	bne.n	80055fe <pvPortMalloc+0xfe>
 800555c:	2c00      	cmp	r4, #0
 800555e:	d041      	beq.n	80055e4 <pvPortMalloc+0xe4>
 8005560:	f104 0308 	add.w	r3, r4, #8
 8005564:	0761      	lsls	r1, r4, #29
 8005566:	bf1c      	itt	ne
 8005568:	f023 0307 	bicne.w	r3, r3, #7
 800556c:	3308      	addne	r3, #8
 800556e:	2b00      	cmp	r3, #0
 8005570:	d045      	beq.n	80055fe <pvPortMalloc+0xfe>
 8005572:	4c2a      	ldr	r4, [pc, #168]	; (800561c <pvPortMalloc+0x11c>)
 8005574:	6826      	ldr	r6, [r4, #0]
 8005576:	429e      	cmp	r6, r3
 8005578:	d341      	bcc.n	80055fe <pvPortMalloc+0xfe>
 800557a:	4a26      	ldr	r2, [pc, #152]	; (8005614 <pvPortMalloc+0x114>)
 800557c:	6815      	ldr	r5, [r2, #0]
 800557e:	6869      	ldr	r1, [r5, #4]
 8005580:	4299      	cmp	r1, r3
 8005582:	d204      	bcs.n	800558e <pvPortMalloc+0x8e>
 8005584:	f8d5 c000 	ldr.w	ip, [r5]
 8005588:	f1bc 0f00 	cmp.w	ip, #0
 800558c:	d115      	bne.n	80055ba <pvPortMalloc+0xba>
 800558e:	6800      	ldr	r0, [r0, #0]
 8005590:	42a8      	cmp	r0, r5
 8005592:	d034      	beq.n	80055fe <pvPortMalloc+0xfe>
 8005594:	6828      	ldr	r0, [r5, #0]
 8005596:	1ac9      	subs	r1, r1, r3
 8005598:	2910      	cmp	r1, #16
 800559a:	f8d2 8000 	ldr.w	r8, [r2]
 800559e:	6010      	str	r0, [r2, #0]
 80055a0:	d912      	bls.n	80055c8 <pvPortMalloc+0xc8>
 80055a2:	18e8      	adds	r0, r5, r3
 80055a4:	0742      	lsls	r2, r0, #29
 80055a6:	d00b      	beq.n	80055c0 <pvPortMalloc+0xc0>
 80055a8:	f04f 0350 	mov.w	r3, #80	; 0x50
 80055ac:	f383 8811 	msr	BASEPRI, r3
 80055b0:	f3bf 8f6f 	isb	sy
 80055b4:	f3bf 8f4f 	dsb	sy
 80055b8:	e7fe      	b.n	80055b8 <pvPortMalloc+0xb8>
 80055ba:	462a      	mov	r2, r5
 80055bc:	4665      	mov	r5, ip
 80055be:	e7de      	b.n	800557e <pvPortMalloc+0x7e>
 80055c0:	6041      	str	r1, [r0, #4]
 80055c2:	606b      	str	r3, [r5, #4]
 80055c4:	f7ff ff78 	bl	80054b8 <prvInsertBlockIntoFreeList>
 80055c8:	686b      	ldr	r3, [r5, #4]
 80055ca:	4913      	ldr	r1, [pc, #76]	; (8005618 <pvPortMalloc+0x118>)
 80055cc:	1af6      	subs	r6, r6, r3
 80055ce:	431f      	orrs	r7, r3
 80055d0:	2300      	movs	r3, #0
 80055d2:	6808      	ldr	r0, [r1, #0]
 80055d4:	6026      	str	r6, [r4, #0]
 80055d6:	4286      	cmp	r6, r0
 80055d8:	bf38      	it	cc
 80055da:	600e      	strcc	r6, [r1, #0]
 80055dc:	f108 0408 	add.w	r4, r8, #8
 80055e0:	606f      	str	r7, [r5, #4]
 80055e2:	602b      	str	r3, [r5, #0]
 80055e4:	f7ff fa3c 	bl	8004a60 <xTaskResumeAll>
 80055e8:	0763      	lsls	r3, r4, #29
 80055ea:	d00a      	beq.n	8005602 <pvPortMalloc+0x102>
 80055ec:	f04f 0350 	mov.w	r3, #80	; 0x50
 80055f0:	f383 8811 	msr	BASEPRI, r3
 80055f4:	f3bf 8f6f 	isb	sy
 80055f8:	f3bf 8f4f 	dsb	sy
 80055fc:	e7fe      	b.n	80055fc <pvPortMalloc+0xfc>
 80055fe:	2400      	movs	r4, #0
 8005600:	e7f0      	b.n	80055e4 <pvPortMalloc+0xe4>
 8005602:	4620      	mov	r0, r4
 8005604:	e8bd 81f0 	ldmia.w	sp!, {r4, r5, r6, r7, r8, pc}
 8005608:	20001184 	.word	0x20001184
 800560c:	20001d88 	.word	0x20001d88
 8005610:	20001188 	.word	0x20001188
 8005614:	20001d94 	.word	0x20001d94
 8005618:	20001d90 	.word	0x20001d90
 800561c:	20001d8c 	.word	0x20001d8c

08005620 <vPortFree>:
 8005620:	b510      	push	{r4, lr}
 8005622:	4604      	mov	r4, r0
 8005624:	b370      	cbz	r0, 8005684 <vPortFree+0x64>
 8005626:	4a18      	ldr	r2, [pc, #96]	; (8005688 <vPortFree+0x68>)
 8005628:	f850 3c04 	ldr.w	r3, [r0, #-4]
 800562c:	6812      	ldr	r2, [r2, #0]
 800562e:	4213      	tst	r3, r2
 8005630:	d108      	bne.n	8005644 <vPortFree+0x24>
 8005632:	f04f 0350 	mov.w	r3, #80	; 0x50
 8005636:	f383 8811 	msr	BASEPRI, r3
 800563a:	f3bf 8f6f 	isb	sy
 800563e:	f3bf 8f4f 	dsb	sy
 8005642:	e7fe      	b.n	8005642 <vPortFree+0x22>
 8005644:	f850 1c08 	ldr.w	r1, [r0, #-8]
 8005648:	b141      	cbz	r1, 800565c <vPortFree+0x3c>
 800564a:	f04f 0350 	mov.w	r3, #80	; 0x50
 800564e:	f383 8811 	msr	BASEPRI, r3
 8005652:	f3bf 8f6f 	isb	sy
 8005656:	f3bf 8f4f 	dsb	sy
 800565a:	e7fe      	b.n	800565a <vPortFree+0x3a>
 800565c:	ea23 0302 	bic.w	r3, r3, r2
 8005660:	f840 3c04 	str.w	r3, [r0, #-4]
 8005664:	f7ff f95e 	bl	8004924 <vTaskSuspendAll>
 8005668:	4a08      	ldr	r2, [pc, #32]	; (800568c <vPortFree+0x6c>)
 800566a:	f854 3c04 	ldr.w	r3, [r4, #-4]
 800566e:	6811      	ldr	r1, [r2, #0]
 8005670:	f1a4 0008 	sub.w	r0, r4, #8
 8005674:	440b      	add	r3, r1
 8005676:	6013      	str	r3, [r2, #0]
 8005678:	f7ff ff1e 	bl	80054b8 <prvInsertBlockIntoFreeList>
 800567c:	e8bd 4010 	ldmia.w	sp!, {r4, lr}
 8005680:	f7ff b9ee 	b.w	8004a60 <xTaskResumeAll>
 8005684:	bd10      	pop	{r4, pc}
 8005686:	bf00      	nop
 8005688:	20001d88 	.word	0x20001d88
 800568c:	20001d8c 	.word	0x20001d8c

08005690 <ResetUsbConnection>:
 8005690:	b57f      	push	{r0, r1, r2, r3, r4, r5, r6, lr}
 8005692:	f44f 5680 	mov.w	r6, #4096	; 0x1000
 8005696:	2301      	movs	r3, #1
 8005698:	2400      	movs	r4, #0
 800569a:	e9cd 6300 	strd	r6, r3, [sp]
 800569e:	2302      	movs	r3, #2
 80056a0:	4d0d      	ldr	r5, [pc, #52]	; (80056d8 <ResetUsbConnection+0x48>)
 80056a2:	4669      	mov	r1, sp
 80056a4:	4628      	mov	r0, r5
 80056a6:	9303      	str	r3, [sp, #12]
 80056a8:	9402      	str	r4, [sp, #8]
 80056aa:	f7fb f8ff 	bl	80008ac <HAL_GPIO_Init>
 80056ae:	4622      	mov	r2, r4
 80056b0:	4631      	mov	r1, r6
 80056b2:	4628      	mov	r0, r5
 80056b4:	f7fb f9da 	bl	8000a6c <HAL_GPIO_WritePin>
 80056b8:	f44f 707a 	mov.w	r0, #1000	; 0x3e8
 80056bc:	f7fb f892 	bl	80007e4 <HAL_Delay>
 80056c0:	4669      	mov	r1, sp
 80056c2:	4628      	mov	r0, r5
 80056c4:	e9cd 4401 	strd	r4, r4, [sp, #4]
 80056c8:	f7fb f8f0 	bl	80008ac <HAL_GPIO_Init>
 80056cc:	2064      	movs	r0, #100	; 0x64
 80056ce:	f7fb f889 	bl	80007e4 <HAL_Delay>
 80056d2:	b004      	add	sp, #16
 80056d4:	bd70      	pop	{r4, r5, r6, pc}
 80056d6:	bf00      	nop
 80056d8:	40010800 	.word	0x40010800

080056dc <MX_USB_DEVICE_Init>:
 80056dc:	b508      	push	{r3, lr}
 80056de:	f7ff ffd7 	bl	8005690 <ResetUsbConnection>
 80056e2:	2200      	movs	r2, #0
 80056e4:	490e      	ldr	r1, [pc, #56]	; (8005720 <MX_USB_DEVICE_Init+0x44>)
 80056e6:	480f      	ldr	r0, [pc, #60]	; (8005724 <MX_USB_DEVICE_Init+0x48>)
 80056e8:	f7fd ffb8 	bl	800365c <USBD_Init>
 80056ec:	b108      	cbz	r0, 80056f2 <MX_USB_DEVICE_Init+0x16>
 80056ee:	f7fa fe0f 	bl	8000310 <Error_Handler>
 80056f2:	490d      	ldr	r1, [pc, #52]	; (8005728 <MX_USB_DEVICE_Init+0x4c>)
 80056f4:	480b      	ldr	r0, [pc, #44]	; (8005724 <MX_USB_DEVICE_Init+0x48>)
 80056f6:	f7fd ffc6 	bl	8003686 <USBD_RegisterClass>
 80056fa:	b108      	cbz	r0, 8005700 <MX_USB_DEVICE_Init+0x24>
 80056fc:	f7fa fe08 	bl	8000310 <Error_Handler>
 8005700:	490a      	ldr	r1, [pc, #40]	; (800572c <MX_USB_DEVICE_Init+0x50>)
 8005702:	4808      	ldr	r0, [pc, #32]	; (8005724 <MX_USB_DEVICE_Init+0x48>)
 8005704:	f7fd ff65 	bl	80035d2 <USBD_CDC_RegisterInterface>
 8005708:	b108      	cbz	r0, 800570e <MX_USB_DEVICE_Init+0x32>
 800570a:	f7fa fe01 	bl	8000310 <Error_Handler>
 800570e:	4805      	ldr	r0, [pc, #20]	; (8005724 <MX_USB_DEVICE_Init+0x48>)
 8005710:	f7fd ffc0 	bl	8003694 <USBD_Start>
 8005714:	b118      	cbz	r0, 800571e <MX_USB_DEVICE_Init+0x42>
 8005716:	e8bd 4008 	ldmia.w	sp!, {r3, lr}
 800571a:	f7fa bdf9 	b.w	8000310 <Error_Handler>
 800571e:	bd08      	pop	{r3, pc}
 8005720:	20000130 	.word	0x20000130
 8005724:	20001d9c 	.word	0x20001d9c
 8005728:	2000000c 	.word	0x2000000c
 800572c:	20000120 	.word	0x20000120

08005730 <CDC_DeInit_FS>:
 8005730:	2000      	movs	r0, #0
 8005732:	4770      	bx	lr

08005734 <CDC_Control_FS>:
 8005734:	2000      	movs	r0, #0
 8005736:	4770      	bx	lr

08005738 <CDC_Receive_FS>:
 8005738:	b508      	push	{r3, lr}
 800573a:	f000 ffa9 	bl	8006690 <putBufPtr>
 800573e:	2000      	movs	r0, #0
 8005740:	bd08      	pop	{r3, pc}
	...

08005744 <CDC_Init_FS>:
 8005744:	b510      	push	{r4, lr}
 8005746:	4c06      	ldr	r4, [pc, #24]	; (8005760 <CDC_Init_FS+0x1c>)
 8005748:	2200      	movs	r2, #0
 800574a:	4620      	mov	r0, r4
 800574c:	4905      	ldr	r1, [pc, #20]	; (8005764 <CDC_Init_FS+0x20>)
 800574e:	f7fd ff47 	bl	80035e0 <USBD_CDC_SetTxBuffer>
 8005752:	4620      	mov	r0, r4
 8005754:	4904      	ldr	r1, [pc, #16]	; (8005768 <CDC_Init_FS+0x24>)
 8005756:	f7fd ff4b 	bl	80035f0 <USBD_CDC_SetRxBuffer>
 800575a:	2000      	movs	r0, #0
 800575c:	bd10      	pop	{r4, pc}
 800575e:	bf00      	nop
 8005760:	20001d9c 	.word	0x20001d9c
 8005764:	200020c4 	.word	0x200020c4
 8005768:	20002060 	.word	0x20002060

0800576c <CDC_Transmit_FS>:
 800576c:	b510      	push	{r4, lr}
 800576e:	4c09      	ldr	r4, [pc, #36]	; (8005794 <CDC_Transmit_FS+0x28>)
 8005770:	460a      	mov	r2, r1
 8005772:	f8d4 32b8 	ldr.w	r3, [r4, #696]	; 0x2b8
 8005776:	f8d3 3214 	ldr.w	r3, [r3, #532]	; 0x214
 800577a:	b943      	cbnz	r3, 800578e <CDC_Transmit_FS+0x22>
 800577c:	4601      	mov	r1, r0
 800577e:	4620      	mov	r0, r4
 8005780:	f7fd ff2e 	bl	80035e0 <USBD_CDC_SetTxBuffer>
 8005784:	4620      	mov	r0, r4
 8005786:	e8bd 4010 	ldmia.w	sp!, {r4, lr}
 800578a:	f7fd bf37 	b.w	80035fc <USBD_CDC_TransmitPacket>
 800578e:	2001      	movs	r0, #1
 8005790:	bd10      	pop	{r4, pc}
 8005792:	bf00      	nop
 8005794:	20001d9c 	.word	0x20001d9c

08005798 <CDC_Receive_FS_ProcessNext>:
 8005798:	b510      	push	{r4, lr}
 800579a:	4c05      	ldr	r4, [pc, #20]	; (80057b0 <CDC_Receive_FS_ProcessNext+0x18>)
 800579c:	4601      	mov	r1, r0
 800579e:	4620      	mov	r0, r4
 80057a0:	f7fd ff26 	bl	80035f0 <USBD_CDC_SetRxBuffer>
 80057a4:	4620      	mov	r0, r4
 80057a6:	e8bd 4010 	ldmia.w	sp!, {r4, lr}
 80057aa:	f7fd bf40 	b.w	800362e <USBD_CDC_ReceivePacket>
 80057ae:	bf00      	nop
 80057b0:	20001d9c 	.word	0x20001d9c

080057b4 <USBD_FS_DeviceDescriptor>:
 80057b4:	2312      	movs	r3, #18
 80057b6:	4801      	ldr	r0, [pc, #4]	; (80057bc <USBD_FS_DeviceDescriptor+0x8>)
 80057b8:	800b      	strh	r3, [r1, #0]
 80057ba:	4770      	bx	lr
 80057bc:	2000014c 	.word	0x2000014c

080057c0 <USBD_FS_LangIDStrDescriptor>:
 80057c0:	2304      	movs	r3, #4
 80057c2:	4801      	ldr	r0, [pc, #4]	; (80057c8 <USBD_FS_LangIDStrDescriptor+0x8>)
 80057c4:	800b      	strh	r3, [r1, #0]
 80057c6:	4770      	bx	lr
 80057c8:	20000160 	.word	0x20000160

080057cc <IntToUnicode>:
 80057cc:	2300      	movs	r3, #0
 80057ce:	b570      	push	{r4, r5, r6, lr}
 80057d0:	461e      	mov	r6, r3
 80057d2:	1c4d      	adds	r5, r1, #1
 80057d4:	0f04      	lsrs	r4, r0, #28
 80057d6:	f1b0 4f20 	cmp.w	r0, #2684354560	; 0xa0000000
 80057da:	bf34      	ite	cc
 80057dc:	3430      	addcc	r4, #48	; 0x30
 80057de:	3437      	addcs	r4, #55	; 0x37
 80057e0:	f801 4013 	strb.w	r4, [r1, r3, lsl #1]
 80057e4:	f805 6013 	strb.w	r6, [r5, r3, lsl #1]
 80057e8:	3301      	adds	r3, #1
 80057ea:	b2dc      	uxtb	r4, r3
 80057ec:	42a2      	cmp	r2, r4
 80057ee:	ea4f 1000 	mov.w	r0, r0, lsl #4
 80057f2:	d8ef      	bhi.n	80057d4 <IntToUnicode+0x8>
 80057f4:	bd70      	pop	{r4, r5, r6, pc}
	...

080057f8 <USBD_FS_SerialStrDescriptor>:
 80057f8:	231a      	movs	r3, #26
 80057fa:	b510      	push	{r4, lr}
 80057fc:	800b      	strh	r3, [r1, #0]
 80057fe:	4b0a      	ldr	r3, [pc, #40]	; (8005828 <USBD_FS_SerialStrDescriptor+0x30>)
 8005800:	f8d3 07e8 	ldr.w	r0, [r3, #2024]	; 0x7e8
 8005804:	f8d3 27f0 	ldr.w	r2, [r3, #2032]	; 0x7f0
 8005808:	1880      	adds	r0, r0, r2
 800580a:	d00a      	beq.n	8005822 <USBD_FS_SerialStrDescriptor+0x2a>
 800580c:	f8d3 47ec 	ldr.w	r4, [r3, #2028]	; 0x7ec
 8005810:	4906      	ldr	r1, [pc, #24]	; (800582c <USBD_FS_SerialStrDescriptor+0x34>)
 8005812:	2208      	movs	r2, #8
 8005814:	f7ff ffda 	bl	80057cc <IntToUnicode>
 8005818:	2204      	movs	r2, #4
 800581a:	4620      	mov	r0, r4
 800581c:	3110      	adds	r1, #16
 800581e:	f7ff ffd5 	bl	80057cc <IntToUnicode>
 8005822:	4803      	ldr	r0, [pc, #12]	; (8005830 <USBD_FS_SerialStrDescriptor+0x38>)
 8005824:	bd10      	pop	{r4, pc}
 8005826:	bf00      	nop
 8005828:	1ffff000 	.word	0x1ffff000
 800582c:	20000166 	.word	0x20000166
 8005830:	20000164 	.word	0x20000164

08005834 <USBD_FS_ManufacturerStrDescriptor>:
 8005834:	b510      	push	{r4, lr}
 8005836:	4c04      	ldr	r4, [pc, #16]	; (8005848 <USBD_FS_ManufacturerStrDescriptor+0x14>)
 8005838:	460a      	mov	r2, r1
 800583a:	4804      	ldr	r0, [pc, #16]	; (800584c <USBD_FS_ManufacturerStrDescriptor+0x18>)
 800583c:	4621      	mov	r1, r4
 800583e:	f7fe fa4e 	bl	8003cde <USBD_GetString>
 8005842:	4620      	mov	r0, r4
 8005844:	bd10      	pop	{r4, pc}
 8005846:	bf00      	nop
 8005848:	20002128 	.word	0x20002128
 800584c:	08009363 	.word	0x08009363

08005850 <USBD_FS_ProductStrDescriptor>:
 8005850:	b510      	push	{r4, lr}
 8005852:	4c04      	ldr	r4, [pc, #16]	; (8005864 <USBD_FS_ProductStrDescriptor+0x14>)
 8005854:	460a      	mov	r2, r1
 8005856:	4804      	ldr	r0, [pc, #16]	; (8005868 <USBD_FS_ProductStrDescriptor+0x18>)
 8005858:	4621      	mov	r1, r4
 800585a:	f7fe fa40 	bl	8003cde <USBD_GetString>
 800585e:	4620      	mov	r0, r4
 8005860:	bd10      	pop	{r4, pc}
 8005862:	bf00      	nop
 8005864:	20002128 	.word	0x20002128
 8005868:	08009376 	.word	0x08009376

0800586c <USBD_FS_ConfigStrDescriptor>:
 800586c:	b510      	push	{r4, lr}
 800586e:	4c04      	ldr	r4, [pc, #16]	; (8005880 <USBD_FS_ConfigStrDescriptor+0x14>)
 8005870:	460a      	mov	r2, r1
 8005872:	4804      	ldr	r0, [pc, #16]	; (8005884 <USBD_FS_ConfigStrDescriptor+0x18>)
 8005874:	4621      	mov	r1, r4
 8005876:	f7fe fa32 	bl	8003cde <USBD_GetString>
 800587a:	4620      	mov	r0, r4
 800587c:	bd10      	pop	{r4, pc}
 800587e:	bf00      	nop
 8005880:	20002128 	.word	0x20002128
 8005884:	0800938c 	.word	0x0800938c

08005888 <USBD_FS_InterfaceStrDescriptor>:
 8005888:	b510      	push	{r4, lr}
 800588a:	4c04      	ldr	r4, [pc, #16]	; (800589c <USBD_FS_InterfaceStrDescriptor+0x14>)
 800588c:	460a      	mov	r2, r1
 800588e:	4804      	ldr	r0, [pc, #16]	; (80058a0 <USBD_FS_InterfaceStrDescriptor+0x18>)
 8005890:	4621      	mov	r1, r4
 8005892:	f7fe fa24 	bl	8003cde <USBD_GetString>
 8005896:	4620      	mov	r0, r4
 8005898:	bd10      	pop	{r4, pc}
 800589a:	bf00      	nop
 800589c:	20002128 	.word	0x20002128
 80058a0:	08009397 	.word	0x08009397

080058a4 <USBD_Get_USB_Status>:
 80058a4:	2803      	cmp	r0, #3
 80058a6:	bf9a      	itte	ls
 80058a8:	4b01      	ldrls	r3, [pc, #4]	; (80058b0 <USBD_Get_USB_Status+0xc>)
 80058aa:	5c18      	ldrbls	r0, [r3, r0]
 80058ac:	2002      	movhi	r0, #2
 80058ae:	4770      	bx	lr
 80058b0:	080093a5 	.word	0x080093a5

080058b4 <HAL_PCD_MspInit>:
 80058b4:	b507      	push	{r0, r1, r2, lr}
 80058b6:	4b0e      	ldr	r3, [pc, #56]	; (80058f0 <HAL_PCD_MspInit+0x3c>)
 80058b8:	6802      	ldr	r2, [r0, #0]
 80058ba:	429a      	cmp	r2, r3
 80058bc:	d115      	bne.n	80058ea <HAL_PCD_MspInit+0x36>
 80058be:	f503 33da 	add.w	r3, r3, #111616	; 0x1b400
 80058c2:	69da      	ldr	r2, [r3, #28]
 80058c4:	2105      	movs	r1, #5
 80058c6:	f442 0200 	orr.w	r2, r2, #8388608	; 0x800000
 80058ca:	61da      	str	r2, [r3, #28]
 80058cc:	69db      	ldr	r3, [r3, #28]
 80058ce:	2200      	movs	r2, #0
 80058d0:	f403 0300 	and.w	r3, r3, #8388608	; 0x800000
 80058d4:	9301      	str	r3, [sp, #4]
 80058d6:	2014      	movs	r0, #20
 80058d8:	9b01      	ldr	r3, [sp, #4]
 80058da:	f7fa ffa7 	bl	800082c <HAL_NVIC_SetPriority>
 80058de:	2014      	movs	r0, #20
 80058e0:	b003      	add	sp, #12
 80058e2:	f85d eb04 	ldr.w	lr, [sp], #4
 80058e6:	f7fa bfd3 	b.w	8000890 <HAL_NVIC_EnableIRQ>
 80058ea:	b003      	add	sp, #12
 80058ec:	f85d fb04 	ldr.w	pc, [sp], #4
 80058f0:	40005c00 	.word	0x40005c00

080058f4 <HAL_PCD_SetupStageCallback>:
 80058f4:	f500 712c 	add.w	r1, r0, #688	; 0x2b0
 80058f8:	f8d0 02e8 	ldr.w	r0, [r0, #744]	; 0x2e8
 80058fc:	f7fd bee1 	b.w	80036c2 <USBD_LL_SetupStage>

08005900 <HAL_PCD_DataOutStageCallback>:
 8005900:	2328      	movs	r3, #40	; 0x28
 8005902:	fb03 0301 	mla	r3, r3, r1, r0
 8005906:	f8d0 02e8 	ldr.w	r0, [r0, #744]	; 0x2e8
 800590a:	f8d3 217c 	ldr.w	r2, [r3, #380]	; 0x17c
 800590e:	f7fd bf05 	b.w	800371c <USBD_LL_DataOutStage>

08005912 <HAL_PCD_DataInStageCallback>:
 8005912:	2328      	movs	r3, #40	; 0x28
 8005914:	fb03 0301 	mla	r3, r3, r1, r0
 8005918:	f8d0 02e8 	ldr.w	r0, [r0, #744]	; 0x2e8
 800591c:	6bda      	ldr	r2, [r3, #60]	; 0x3c
 800591e:	f7fd bf37 	b.w	8003790 <USBD_LL_DataInStage>

08005922 <HAL_PCD_SOFCallback>:
 8005922:	f8d0 02e8 	ldr.w	r0, [r0, #744]	; 0x2e8
 8005926:	f7fd bfcb 	b.w	80038c0 <USBD_LL_SOF>

0800592a <HAL_PCD_ResetCallback>:
 800592a:	6883      	ldr	r3, [r0, #8]
 800592c:	b510      	push	{r4, lr}
 800592e:	2b02      	cmp	r3, #2
 8005930:	4604      	mov	r4, r0
 8005932:	d001      	beq.n	8005938 <HAL_PCD_ResetCallback+0xe>
 8005934:	f7fa fcec 	bl	8000310 <Error_Handler>
 8005938:	f8d4 02e8 	ldr.w	r0, [r4, #744]	; 0x2e8
 800593c:	2101      	movs	r1, #1
 800593e:	f7fd ffa9 	bl	8003894 <USBD_LL_SetSpeed>
 8005942:	f8d4 02e8 	ldr.w	r0, [r4, #744]	; 0x2e8
 8005946:	e8bd 4010 	ldmia.w	sp!, {r4, lr}
 800594a:	f7fd bf7c 	b.w	8003846 <USBD_LL_Reset>
	...

08005950 <HAL_PCD_SuspendCallback>:
 8005950:	b510      	push	{r4, lr}
 8005952:	4604      	mov	r4, r0
 8005954:	f8d0 02e8 	ldr.w	r0, [r0, #744]	; 0x2e8
 8005958:	f7fd ff9f 	bl	800389a <USBD_LL_Suspend>
 800595c:	69a3      	ldr	r3, [r4, #24]
 800595e:	b123      	cbz	r3, 800596a <HAL_PCD_SuspendCallback+0x1a>
 8005960:	4a02      	ldr	r2, [pc, #8]	; (800596c <HAL_PCD_SuspendCallback+0x1c>)
 8005962:	6913      	ldr	r3, [r2, #16]
 8005964:	f043 0306 	orr.w	r3, r3, #6
 8005968:	6113      	str	r3, [r2, #16]
 800596a:	bd10      	pop	{r4, pc}
 800596c:	e000ed00 	.word	0xe000ed00

08005970 <HAL_PCD_ResumeCallback>:
 8005970:	f8d0 02e8 	ldr.w	r0, [r0, #744]	; 0x2e8
 8005974:	f7fd bf9a 	b.w	80038ac <USBD_LL_Resume>

08005978 <USBD_LL_Init>:
 8005978:	2308      	movs	r3, #8
 800597a:	b510      	push	{r4, lr}
 800597c:	4a1d      	ldr	r2, [pc, #116]	; (80059f4 <USBD_LL_Init+0x7c>)
 800597e:	4604      	mov	r4, r0
 8005980:	481d      	ldr	r0, [pc, #116]	; (80059f8 <USBD_LL_Init+0x80>)
 8005982:	e9c0 2300 	strd	r2, r3, [r0]
 8005986:	2302      	movs	r3, #2
 8005988:	6083      	str	r3, [r0, #8]
 800598a:	2300      	movs	r3, #0
 800598c:	f8c0 42e8 	str.w	r4, [r0, #744]	; 0x2e8
 8005990:	f8c4 02c0 	str.w	r0, [r4, #704]	; 0x2c0
 8005994:	e9c0 3306 	strd	r3, r3, [r0, #24]
 8005998:	6203      	str	r3, [r0, #32]
 800599a:	f7fb f875 	bl	8000a88 <HAL_PCD_Init>
 800599e:	b108      	cbz	r0, 80059a4 <USBD_LL_Init+0x2c>
 80059a0:	f7fa fcb6 	bl	8000310 <Error_Handler>
 80059a4:	2200      	movs	r2, #0
 80059a6:	2318      	movs	r3, #24
 80059a8:	4611      	mov	r1, r2
 80059aa:	f8d4 02c0 	ldr.w	r0, [r4, #704]	; 0x2c0
 80059ae:	f7fb febc 	bl	800172a <HAL_PCDEx_PMAConfig>
 80059b2:	2358      	movs	r3, #88	; 0x58
 80059b4:	2200      	movs	r2, #0
 80059b6:	2180      	movs	r1, #128	; 0x80
 80059b8:	f8d4 02c0 	ldr.w	r0, [r4, #704]	; 0x2c0
 80059bc:	f7fb feb5 	bl	800172a <HAL_PCDEx_PMAConfig>
 80059c0:	23c0      	movs	r3, #192	; 0xc0
 80059c2:	2200      	movs	r2, #0
 80059c4:	2181      	movs	r1, #129	; 0x81
 80059c6:	f8d4 02c0 	ldr.w	r0, [r4, #704]	; 0x2c0
 80059ca:	f7fb feae 	bl	800172a <HAL_PCDEx_PMAConfig>
 80059ce:	f44f 7388 	mov.w	r3, #272	; 0x110
 80059d2:	2200      	movs	r2, #0
 80059d4:	2101      	movs	r1, #1
 80059d6:	f8d4 02c0 	ldr.w	r0, [r4, #704]	; 0x2c0
 80059da:	f7fb fea6 	bl	800172a <HAL_PCDEx_PMAConfig>
 80059de:	f44f 7380 	mov.w	r3, #256	; 0x100
 80059e2:	2200      	movs	r2, #0
 80059e4:	2182      	movs	r1, #130	; 0x82
 80059e6:	f8d4 02c0 	ldr.w	r0, [r4, #704]	; 0x2c0
 80059ea:	f7fb fe9e 	bl	800172a <HAL_PCDEx_PMAConfig>
 80059ee:	2000      	movs	r0, #0
 80059f0:	bd10      	pop	{r4, pc}
 80059f2:	bf00      	nop
 80059f4:	40005c00 	.word	0x40005c00
 80059f8:	20002328 	.word	0x20002328

080059fc <USBD_LL_Start>:
 80059fc:	b508      	push	{r3, lr}
 80059fe:	f8d0 02c0 	ldr.w	r0, [r0, #704]	; 0x2c0
 8005a02:	f7fb f8ba 	bl	8000b7a <HAL_PCD_Start>
 8005a06:	e8bd 4008 	ldmia.w	sp!, {r3, lr}
 8005a0a:	f7ff bf4b 	b.w	80058a4 <USBD_Get_USB_Status>

08005a0e <USBD_LL_OpenEP>:
 8005a0e:	b510      	push	{r4, lr}
 8005a10:	4614      	mov	r4, r2
 8005a12:	f8d0 02c0 	ldr.w	r0, [r0, #704]	; 0x2c0
 8005a16:	461a      	mov	r2, r3
 8005a18:	4623      	mov	r3, r4
 8005a1a:	f7fb fd8f 	bl	800153c <HAL_PCD_EP_Open>
 8005a1e:	e8bd 4010 	ldmia.w	sp!, {r4, lr}
 8005a22:	f7ff bf3f 	b.w	80058a4 <USBD_Get_USB_Status>

08005a26 <USBD_LL_CloseEP>:
 8005a26:	b508      	push	{r3, lr}
 8005a28:	f8d0 02c0 	ldr.w	r0, [r0, #704]	; 0x2c0
 8005a2c:	f7fb fdb7 	bl	800159e <HAL_PCD_EP_Close>
 8005a30:	e8bd 4008 	ldmia.w	sp!, {r3, lr}
 8005a34:	f7ff bf36 	b.w	80058a4 <USBD_Get_USB_Status>

08005a38 <USBD_LL_StallEP>:
 8005a38:	b508      	push	{r3, lr}
 8005a3a:	f8d0 02c0 	ldr.w	r0, [r0, #704]	; 0x2c0
 8005a3e:	f7fb fe0f 	bl	8001660 <HAL_PCD_EP_SetStall>
 8005a42:	e8bd 4008 	ldmia.w	sp!, {r3, lr}
 8005a46:	f7ff bf2d 	b.w	80058a4 <USBD_Get_USB_Status>

08005a4a <USBD_LL_ClearStallEP>:
 8005a4a:	b508      	push	{r3, lr}
 8005a4c:	f8d0 02c0 	ldr.w	r0, [r0, #704]	; 0x2c0
 8005a50:	f7fb fe3a 	bl	80016c8 <HAL_PCD_EP_ClrStall>
 8005a54:	e8bd 4008 	ldmia.w	sp!, {r3, lr}
 8005a58:	f7ff bf24 	b.w	80058a4 <USBD_Get_USB_Status>

08005a5c <USBD_LL_IsStallEP>:
 8005a5c:	2228      	movs	r2, #40	; 0x28
 8005a5e:	f011 0f80 	tst.w	r1, #128	; 0x80
 8005a62:	f8d0 32c0 	ldr.w	r3, [r0, #704]	; 0x2c0
 8005a66:	bf1b      	ittet	ne
 8005a68:	f001 017f 	andne.w	r1, r1, #127	; 0x7f
 8005a6c:	fb01 2102 	mlane	r1, r1, r2, r2
 8005a70:	fb02 3101 	mlaeq	r1, r2, r1, r3
 8005a74:	185b      	addne	r3, r3, r1
 8005a76:	bf14      	ite	ne
 8005a78:	7898      	ldrbne	r0, [r3, #2]
 8005a7a:	f891 016a 	ldrbeq.w	r0, [r1, #362]	; 0x16a
 8005a7e:	4770      	bx	lr

08005a80 <USBD_LL_SetUSBAddress>:
 8005a80:	b508      	push	{r3, lr}
 8005a82:	f8d0 02c0 	ldr.w	r0, [r0, #704]	; 0x2c0
 8005a86:	f7fb f891 	bl	8000bac <HAL_PCD_SetAddress>
 8005a8a:	e8bd 4008 	ldmia.w	sp!, {r3, lr}
 8005a8e:	f7ff bf09 	b.w	80058a4 <USBD_Get_USB_Status>

08005a92 <USBD_LL_Transmit>:
 8005a92:	b508      	push	{r3, lr}
 8005a94:	f8d0 02c0 	ldr.w	r0, [r0, #704]	; 0x2c0
 8005a98:	f7fb fdc8 	bl	800162c <HAL_PCD_EP_Transmit>
 8005a9c:	e8bd 4008 	ldmia.w	sp!, {r3, lr}
 8005aa0:	f7ff bf00 	b.w	80058a4 <USBD_Get_USB_Status>

08005aa4 <USBD_LL_PrepareReceive>:
 8005aa4:	b508      	push	{r3, lr}
 8005aa6:	f8d0 02c0 	ldr.w	r0, [r0, #704]	; 0x2c0
 8005aaa:	f7fb fda0 	bl	80015ee <HAL_PCD_EP_Receive>
 8005aae:	e8bd 4008 	ldmia.w	sp!, {r3, lr}
 8005ab2:	f7ff bef7 	b.w	80058a4 <USBD_Get_USB_Status>

08005ab6 <USBD_LL_GetRxDataSize>:
 8005ab6:	f8d0 02c0 	ldr.w	r0, [r0, #704]	; 0x2c0
 8005aba:	f7fb bdaf 	b.w	800161c <HAL_PCD_EP_GetRxCount>
	...

08005ac0 <USBD_static_malloc>:
 8005ac0:	4800      	ldr	r0, [pc, #0]	; (8005ac4 <USBD_static_malloc+0x4>)
 8005ac2:	4770      	bx	lr
 8005ac4:	20002614 	.word	0x20002614

08005ac8 <USBD_static_free>:
 8005ac8:	4770      	bx	lr

08005aca <HAL_PCDEx_SetConnectionState>:
 8005aca:	4770      	bx	lr

08005acc <EEPROM_SPI_INIT>:
 8005acc:	4b01      	ldr	r3, [pc, #4]	; (8005ad4 <EEPROM_SPI_INIT+0x8>)
 8005ace:	6018      	str	r0, [r3, #0]
 8005ad0:	4770      	bx	lr
 8005ad2:	bf00      	nop
 8005ad4:	20002834 	.word	0x20002834

08005ad8 <EEPROM_SPI_SendInstruction>:
 8005ad8:	b570      	push	{r4, r5, r6, lr}
 8005ada:	4604      	mov	r4, r0
 8005adc:	460d      	mov	r5, r1
 8005ade:	4e0a      	ldr	r6, [pc, #40]	; (8005b08 <EEPROM_SPI_SendInstruction+0x30>)
 8005ae0:	6830      	ldr	r0, [r6, #0]
 8005ae2:	f890 3051 	ldrb.w	r3, [r0, #81]	; 0x51
 8005ae6:	b14b      	cbz	r3, 8005afc <EEPROM_SPI_SendInstruction+0x24>
 8005ae8:	23c8      	movs	r3, #200	; 0xc8
 8005aea:	462a      	mov	r2, r5
 8005aec:	4621      	mov	r1, r4
 8005aee:	f7fc fb52 	bl	8002196 <HAL_SPI_Transmit>
 8005af2:	b138      	cbz	r0, 8005b04 <EEPROM_SPI_SendInstruction+0x2c>
 8005af4:	e8bd 4070 	ldmia.w	sp!, {r4, r5, r6, lr}
 8005af8:	f7fa bc0a 	b.w	8000310 <Error_Handler>
 8005afc:	2001      	movs	r0, #1
 8005afe:	f7fe f9e3 	bl	8003ec8 <osDelay>
 8005b02:	e7ed      	b.n	8005ae0 <EEPROM_SPI_SendInstruction+0x8>
 8005b04:	bd70      	pop	{r4, r5, r6, pc}
 8005b06:	bf00      	nop
 8005b08:	20002834 	.word	0x20002834

08005b0c <EEPROM_SPI_ReadBuffer>:
 8005b0c:	e92d 41f3 	stmdb	sp!, {r0, r1, r4, r5, r6, r7, r8, lr}
 8005b10:	4605      	mov	r5, r0
 8005b12:	460c      	mov	r4, r1
 8005b14:	4616      	mov	r6, r2
 8005b16:	4f18      	ldr	r7, [pc, #96]	; (8005b78 <EEPROM_SPI_ReadBuffer+0x6c>)
 8005b18:	683b      	ldr	r3, [r7, #0]
 8005b1a:	f893 3051 	ldrb.w	r3, [r3, #81]	; 0x51
 8005b1e:	2b01      	cmp	r3, #1
 8005b20:	d122      	bne.n	8005b68 <EEPROM_SPI_ReadBuffer+0x5c>
 8005b22:	f04f 0803 	mov.w	r8, #3
 8005b26:	2110      	movs	r1, #16
 8005b28:	4814      	ldr	r0, [pc, #80]	; (8005b7c <EEPROM_SPI_ReadBuffer+0x70>)
 8005b2a:	0a23      	lsrs	r3, r4, #8
 8005b2c:	2200      	movs	r2, #0
 8005b2e:	f88d 8004 	strb.w	r8, [sp, #4]
 8005b32:	f88d 3005 	strb.w	r3, [sp, #5]
 8005b36:	f88d 4006 	strb.w	r4, [sp, #6]
 8005b3a:	f7fa ff97 	bl	8000a6c <HAL_GPIO_WritePin>
 8005b3e:	4641      	mov	r1, r8
 8005b40:	a801      	add	r0, sp, #4
 8005b42:	f7ff ffc9 	bl	8005ad8 <EEPROM_SPI_SendInstruction>
 8005b46:	23c8      	movs	r3, #200	; 0xc8
 8005b48:	4632      	mov	r2, r6
 8005b4a:	4629      	mov	r1, r5
 8005b4c:	6838      	ldr	r0, [r7, #0]
 8005b4e:	f7fc fcc3 	bl	80024d8 <HAL_SPI_Receive>
 8005b52:	2802      	cmp	r0, #2
 8005b54:	d00c      	beq.n	8005b70 <EEPROM_SPI_ReadBuffer+0x64>
 8005b56:	2201      	movs	r2, #1
 8005b58:	2110      	movs	r1, #16
 8005b5a:	4808      	ldr	r0, [pc, #32]	; (8005b7c <EEPROM_SPI_ReadBuffer+0x70>)
 8005b5c:	f7fa ff86 	bl	8000a6c <HAL_GPIO_WritePin>
 8005b60:	2001      	movs	r0, #1
 8005b62:	b002      	add	sp, #8
 8005b64:	e8bd 81f0 	ldmia.w	sp!, {r4, r5, r6, r7, r8, pc}
 8005b68:	2001      	movs	r0, #1
 8005b6a:	f7fe f9ad 	bl	8003ec8 <osDelay>
 8005b6e:	e7d3      	b.n	8005b18 <EEPROM_SPI_ReadBuffer+0xc>
 8005b70:	2001      	movs	r0, #1
 8005b72:	f7fe f9a9 	bl	8003ec8 <osDelay>
 8005b76:	e7e6      	b.n	8005b46 <EEPROM_SPI_ReadBuffer+0x3a>
 8005b78:	20002834 	.word	0x20002834
 8005b7c:	40010800 	.word	0x40010800

08005b80 <sEE_WriteEnable>:
 8005b80:	b513      	push	{r0, r1, r4, lr}
 8005b82:	4c0a      	ldr	r4, [pc, #40]	; (8005bac <sEE_WriteEnable+0x2c>)
 8005b84:	2200      	movs	r2, #0
 8005b86:	4620      	mov	r0, r4
 8005b88:	2110      	movs	r1, #16
 8005b8a:	f7fa ff6f 	bl	8000a6c <HAL_GPIO_WritePin>
 8005b8e:	2306      	movs	r3, #6
 8005b90:	a801      	add	r0, sp, #4
 8005b92:	2101      	movs	r1, #1
 8005b94:	f88d 3004 	strb.w	r3, [sp, #4]
 8005b98:	f7ff ff9e 	bl	8005ad8 <EEPROM_SPI_SendInstruction>
 8005b9c:	2201      	movs	r2, #1
 8005b9e:	2110      	movs	r1, #16
 8005ba0:	4620      	mov	r0, r4
 8005ba2:	f7fa ff63 	bl	8000a6c <HAL_GPIO_WritePin>
 8005ba6:	b002      	add	sp, #8
 8005ba8:	bd10      	pop	{r4, pc}
 8005baa:	bf00      	nop
 8005bac:	40010800 	.word	0x40010800

08005bb0 <sEE_WriteDisable>:
 8005bb0:	b513      	push	{r0, r1, r4, lr}
 8005bb2:	4c0a      	ldr	r4, [pc, #40]	; (8005bdc <sEE_WriteDisable+0x2c>)
 8005bb4:	2200      	movs	r2, #0
 8005bb6:	4620      	mov	r0, r4
 8005bb8:	2110      	movs	r1, #16
 8005bba:	f7fa ff57 	bl	8000a6c <HAL_GPIO_WritePin>
 8005bbe:	2304      	movs	r3, #4
 8005bc0:	2101      	movs	r1, #1
 8005bc2:	eb0d 0003 	add.w	r0, sp, r3
 8005bc6:	f88d 3004 	strb.w	r3, [sp, #4]
 8005bca:	f7ff ff85 	bl	8005ad8 <EEPROM_SPI_SendInstruction>
 8005bce:	2201      	movs	r2, #1
 8005bd0:	2110      	movs	r1, #16
 8005bd2:	4620      	mov	r0, r4
 8005bd4:	f7fa ff4a 	bl	8000a6c <HAL_GPIO_WritePin>
 8005bd8:	b002      	add	sp, #8
 8005bda:	bd10      	pop	{r4, pc}
 8005bdc:	40010800 	.word	0x40010800

08005be0 <EEPROM_SPI_WaitStandbyState>:
 8005be0:	b537      	push	{r0, r1, r2, r4, r5, lr}
 8005be2:	2305      	movs	r3, #5
 8005be4:	2200      	movs	r2, #0
 8005be6:	2110      	movs	r1, #16
 8005be8:	4813      	ldr	r0, [pc, #76]	; (8005c38 <EEPROM_SPI_WaitStandbyState+0x58>)
 8005bea:	f88d 2000 	strb.w	r2, [sp]
 8005bee:	f88d 3004 	strb.w	r3, [sp, #4]
 8005bf2:	f7fa ff3b 	bl	8000a6c <HAL_GPIO_WritePin>
 8005bf6:	2101      	movs	r1, #1
 8005bf8:	a801      	add	r0, sp, #4
 8005bfa:	f7ff ff6d 	bl	8005ad8 <EEPROM_SPI_SendInstruction>
 8005bfe:	4d0f      	ldr	r5, [pc, #60]	; (8005c3c <EEPROM_SPI_WaitStandbyState+0x5c>)
 8005c00:	23c8      	movs	r3, #200	; 0xc8
 8005c02:	2201      	movs	r2, #1
 8005c04:	4669      	mov	r1, sp
 8005c06:	6828      	ldr	r0, [r5, #0]
 8005c08:	f7fc fc66 	bl	80024d8 <HAL_SPI_Receive>
 8005c0c:	2802      	cmp	r0, #2
 8005c0e:	f04f 0001 	mov.w	r0, #1
 8005c12:	d00e      	beq.n	8005c32 <EEPROM_SPI_WaitStandbyState+0x52>
 8005c14:	f7fe f958 	bl	8003ec8 <osDelay>
 8005c18:	f89d 0000 	ldrb.w	r0, [sp]
 8005c1c:	f010 0401 	ands.w	r4, r0, #1
 8005c20:	d1ee      	bne.n	8005c00 <EEPROM_SPI_WaitStandbyState+0x20>
 8005c22:	2201      	movs	r2, #1
 8005c24:	2110      	movs	r1, #16
 8005c26:	4804      	ldr	r0, [pc, #16]	; (8005c38 <EEPROM_SPI_WaitStandbyState+0x58>)
 8005c28:	f7fa ff20 	bl	8000a6c <HAL_GPIO_WritePin>
 8005c2c:	4620      	mov	r0, r4
 8005c2e:	b003      	add	sp, #12
 8005c30:	bd30      	pop	{r4, r5, pc}
 8005c32:	f7fe f949 	bl	8003ec8 <osDelay>
 8005c36:	e7e3      	b.n	8005c00 <EEPROM_SPI_WaitStandbyState+0x20>
 8005c38:	40010800 	.word	0x40010800
 8005c3c:	20002834 	.word	0x20002834

08005c40 <EEPROM_SPI_WritePage>:
 8005c40:	e92d 43f7 	stmdb	sp!, {r0, r1, r2, r4, r5, r6, r7, r8, r9, lr}
 8005c44:	4606      	mov	r6, r0
 8005c46:	460c      	mov	r4, r1
 8005c48:	4617      	mov	r7, r2
 8005c4a:	f8df 8084 	ldr.w	r8, [pc, #132]	; 8005cd0 <EEPROM_SPI_WritePage+0x90>
 8005c4e:	f8d8 3000 	ldr.w	r3, [r8]
 8005c52:	f893 3051 	ldrb.w	r3, [r3, #81]	; 0x51
 8005c56:	2b01      	cmp	r3, #1
 8005c58:	fa5f f983 	uxtb.w	r9, r3
 8005c5c:	d134      	bne.n	8005cc8 <EEPROM_SPI_WritePage+0x88>
 8005c5e:	f7ff ff8f 	bl	8005b80 <sEE_WriteEnable>
 8005c62:	2302      	movs	r3, #2
 8005c64:	2200      	movs	r2, #0
 8005c66:	2110      	movs	r1, #16
 8005c68:	481a      	ldr	r0, [pc, #104]	; (8005cd4 <EEPROM_SPI_WritePage+0x94>)
 8005c6a:	f88d 3004 	strb.w	r3, [sp, #4]
 8005c6e:	0a23      	lsrs	r3, r4, #8
 8005c70:	f88d 3005 	strb.w	r3, [sp, #5]
 8005c74:	f88d 4006 	strb.w	r4, [sp, #6]
 8005c78:	f7fa fef8 	bl	8000a6c <HAL_GPIO_WritePin>
 8005c7c:	2103      	movs	r1, #3
 8005c7e:	a801      	add	r0, sp, #4
 8005c80:	f7ff ff2a 	bl	8005ad8 <EEPROM_SPI_SendInstruction>
 8005c84:	2405      	movs	r4, #5
 8005c86:	2364      	movs	r3, #100	; 0x64
 8005c88:	463a      	mov	r2, r7
 8005c8a:	4631      	mov	r1, r6
 8005c8c:	f8d8 0000 	ldr.w	r0, [r8]
 8005c90:	f7fc fa81 	bl	8002196 <HAL_SPI_Transmit>
 8005c94:	2802      	cmp	r0, #2
 8005c96:	4605      	mov	r5, r0
 8005c98:	d106      	bne.n	8005ca8 <EEPROM_SPI_WritePage+0x68>
 8005c9a:	2005      	movs	r0, #5
 8005c9c:	3c01      	subs	r4, #1
 8005c9e:	f7fe f913 	bl	8003ec8 <osDelay>
 8005ca2:	f014 04ff 	ands.w	r4, r4, #255	; 0xff
 8005ca6:	d1ee      	bne.n	8005c86 <EEPROM_SPI_WritePage+0x46>
 8005ca8:	2201      	movs	r2, #1
 8005caa:	2110      	movs	r1, #16
 8005cac:	4809      	ldr	r0, [pc, #36]	; (8005cd4 <EEPROM_SPI_WritePage+0x94>)
 8005cae:	f7fa fedd 	bl	8000a6c <HAL_GPIO_WritePin>
 8005cb2:	f7ff ff95 	bl	8005be0 <EEPROM_SPI_WaitStandbyState>
 8005cb6:	f7ff ff7b 	bl	8005bb0 <sEE_WriteDisable>
 8005cba:	2d01      	cmp	r5, #1
 8005cbc:	bf14      	ite	ne
 8005cbe:	4648      	movne	r0, r9
 8005cc0:	2002      	moveq	r0, #2
 8005cc2:	b003      	add	sp, #12
 8005cc4:	e8bd 83f0 	ldmia.w	sp!, {r4, r5, r6, r7, r8, r9, pc}
 8005cc8:	2001      	movs	r0, #1
 8005cca:	f7fe f8fd 	bl	8003ec8 <osDelay>
 8005cce:	e7be      	b.n	8005c4e <EEPROM_SPI_WritePage+0xe>
 8005cd0:	20002834 	.word	0x20002834
 8005cd4:	40010800 	.word	0x40010800

08005cd8 <EEPROM_SPI_WriteBuffer>:
 8005cd8:	e92d 47f0 	stmdb	sp!, {r4, r5, r6, r7, r8, r9, sl, lr}
 8005cdc:	f011 0a1f 	ands.w	sl, r1, #31
 8005ce0:	4607      	mov	r7, r0
 8005ce2:	460c      	mov	r4, r1
 8005ce4:	4615      	mov	r5, r2
 8005ce6:	f002 081f 	and.w	r8, r2, #31
 8005cea:	d117      	bne.n	8005d1c <EEPROM_SPI_WriteBuffer+0x44>
 8005cec:	2a1f      	cmp	r2, #31
 8005cee:	d92c      	bls.n	8005d4a <EEPROM_SPI_WriteBuffer+0x72>
 8005cf0:	0955      	lsrs	r5, r2, #5
 8005cf2:	eb01 1545 	add.w	r5, r1, r5, lsl #5
 8005cf6:	b2ad      	uxth	r5, r5
 8005cf8:	42ac      	cmp	r4, r5
 8005cfa:	d103      	bne.n	8005d04 <EEPROM_SPI_WriteBuffer+0x2c>
 8005cfc:	4642      	mov	r2, r8
 8005cfe:	4621      	mov	r1, r4
 8005d00:	4638      	mov	r0, r7
 8005d02:	e022      	b.n	8005d4a <EEPROM_SPI_WriteBuffer+0x72>
 8005d04:	2220      	movs	r2, #32
 8005d06:	4621      	mov	r1, r4
 8005d08:	4638      	mov	r0, r7
 8005d0a:	f7ff ff99 	bl	8005c40 <EEPROM_SPI_WritePage>
 8005d0e:	2801      	cmp	r0, #1
 8005d10:	4606      	mov	r6, r0
 8005d12:	d135      	bne.n	8005d80 <EEPROM_SPI_WriteBuffer+0xa8>
 8005d14:	3420      	adds	r4, #32
 8005d16:	b2a4      	uxth	r4, r4
 8005d18:	3720      	adds	r7, #32
 8005d1a:	e7ed      	b.n	8005cf8 <EEPROM_SPI_WriteBuffer+0x20>
 8005d1c:	f1ca 0920 	rsb	r9, sl, #32
 8005d20:	2a1f      	cmp	r2, #31
 8005d22:	fa1f f989 	uxth.w	r9, r9
 8005d26:	d814      	bhi.n	8005d52 <EEPROM_SPI_WriteBuffer+0x7a>
 8005d28:	45c1      	cmp	r9, r8
 8005d2a:	d20e      	bcs.n	8005d4a <EEPROM_SPI_WriteBuffer+0x72>
 8005d2c:	464a      	mov	r2, r9
 8005d2e:	f7ff ff87 	bl	8005c40 <EEPROM_SPI_WritePage>
 8005d32:	2801      	cmp	r0, #1
 8005d34:	4606      	mov	r6, r0
 8005d36:	d123      	bne.n	8005d80 <EEPROM_SPI_WriteBuffer+0xa8>
 8005d38:	f1a8 0220 	sub.w	r2, r8, #32
 8005d3c:	4452      	add	r2, sl
 8005d3e:	eb04 0109 	add.w	r1, r4, r9
 8005d42:	b292      	uxth	r2, r2
 8005d44:	b289      	uxth	r1, r1
 8005d46:	eb07 0009 	add.w	r0, r7, r9
 8005d4a:	e8bd 47f0 	ldmia.w	sp!, {r4, r5, r6, r7, r8, r9, sl, lr}
 8005d4e:	f7ff bf77 	b.w	8005c40 <EEPROM_SPI_WritePage>
 8005d52:	464a      	mov	r2, r9
 8005d54:	f7ff ff74 	bl	8005c40 <EEPROM_SPI_WritePage>
 8005d58:	2801      	cmp	r0, #1
 8005d5a:	4606      	mov	r6, r0
 8005d5c:	d110      	bne.n	8005d80 <EEPROM_SPI_WriteBuffer+0xa8>
 8005d5e:	3d20      	subs	r5, #32
 8005d60:	4455      	add	r5, sl
 8005d62:	444c      	add	r4, r9
 8005d64:	fa1f f885 	uxth.w	r8, r5
 8005d68:	b2a4      	uxth	r4, r4
 8005d6a:	f3c5 154a 	ubfx	r5, r5, #5, #11
 8005d6e:	eb04 1545 	add.w	r5, r4, r5, lsl #5
 8005d72:	444f      	add	r7, r9
 8005d74:	b2ad      	uxth	r5, r5
 8005d76:	42ac      	cmp	r4, r5
 8005d78:	d105      	bne.n	8005d86 <EEPROM_SPI_WriteBuffer+0xae>
 8005d7a:	f018 021f 	ands.w	r2, r8, #31
 8005d7e:	d1be      	bne.n	8005cfe <EEPROM_SPI_WriteBuffer+0x26>
 8005d80:	4630      	mov	r0, r6
 8005d82:	e8bd 87f0 	ldmia.w	sp!, {r4, r5, r6, r7, r8, r9, sl, pc}
 8005d86:	2220      	movs	r2, #32
 8005d88:	4621      	mov	r1, r4
 8005d8a:	4638      	mov	r0, r7
 8005d8c:	f7ff ff58 	bl	8005c40 <EEPROM_SPI_WritePage>
 8005d90:	2801      	cmp	r0, #1
 8005d92:	d103      	bne.n	8005d9c <EEPROM_SPI_WriteBuffer+0xc4>
 8005d94:	3420      	adds	r4, #32
 8005d96:	b2a4      	uxth	r4, r4
 8005d98:	3720      	adds	r7, #32
 8005d9a:	e7ec      	b.n	8005d76 <EEPROM_SPI_WriteBuffer+0x9e>
 8005d9c:	4606      	mov	r6, r0
 8005d9e:	e7ef      	b.n	8005d80 <EEPROM_SPI_WriteBuffer+0xa8>

08005da0 <setInput>:
 8005da0:	281f      	cmp	r0, #31
 8005da2:	b530      	push	{r4, r5, lr}
 8005da4:	dc07      	bgt.n	8005db6 <setInput+0x16>
 8005da6:	2406      	movs	r4, #6
 8005da8:	4360      	muls	r0, r4
 8005daa:	4d03      	ldr	r5, [pc, #12]	; (8005db8 <setInput+0x18>)
 8005dac:	182c      	adds	r4, r5, r0
 8005dae:	5429      	strb	r1, [r5, r0]
 8005db0:	f8c4 2001 	str.w	r2, [r4, #1]
 8005db4:	7163      	strb	r3, [r4, #5]
 8005db6:	bd30      	pop	{r4, r5, pc}
 8005db8:	20002838 	.word	0x20002838

08005dbc <setInputClick>:
 8005dbc:	281f      	cmp	r0, #31
 8005dbe:	b530      	push	{r4, r5, lr}
 8005dc0:	dc09      	bgt.n	8005dd6 <setInputClick+0x1a>
 8005dc2:	2506      	movs	r5, #6
 8005dc4:	4c04      	ldr	r4, [pc, #16]	; (8005dd8 <setInputClick+0x1c>)
 8005dc6:	fb05 4000 	mla	r0, r5, r0, r4
 8005dca:	f880 10c0 	strb.w	r1, [r0, #192]	; 0xc0
 8005dce:	f8c0 20c1 	str.w	r2, [r0, #193]	; 0xc1
 8005dd2:	f880 30c5 	strb.w	r3, [r0, #197]	; 0xc5
 8005dd6:	bd30      	pop	{r4, r5, pc}
 8005dd8:	20002838 	.word	0x20002838

08005ddc <setInputDoubleClick>:
 8005ddc:	281f      	cmp	r0, #31
 8005dde:	b530      	push	{r4, r5, lr}
 8005de0:	dc09      	bgt.n	8005df6 <setInputDoubleClick+0x1a>
 8005de2:	2506      	movs	r5, #6
 8005de4:	4c04      	ldr	r4, [pc, #16]	; (8005df8 <setInputDoubleClick+0x1c>)
 8005de6:	fb05 4000 	mla	r0, r5, r0, r4
 8005dea:	f880 1180 	strb.w	r1, [r0, #384]	; 0x180
 8005dee:	f8c0 2181 	str.w	r2, [r0, #385]	; 0x181
 8005df2:	f880 3185 	strb.w	r3, [r0, #389]	; 0x185
 8005df6:	bd30      	pop	{r4, r5, pc}
 8005df8:	20002838 	.word	0x20002838

08005dfc <setInputLPress>:
 8005dfc:	281f      	cmp	r0, #31
 8005dfe:	b530      	push	{r4, r5, lr}
 8005e00:	dc09      	bgt.n	8005e16 <setInputLPress+0x1a>
 8005e02:	2506      	movs	r5, #6
 8005e04:	4c04      	ldr	r4, [pc, #16]	; (8005e18 <setInputLPress+0x1c>)
 8005e06:	fb05 4000 	mla	r0, r5, r0, r4
 8005e0a:	f880 1240 	strb.w	r1, [r0, #576]	; 0x240
 8005e0e:	f8c0 2241 	str.w	r2, [r0, #577]	; 0x241
 8005e12:	f880 3245 	strb.w	r3, [r0, #581]	; 0x245
 8005e16:	bd30      	pop	{r4, r5, pc}
 8005e18:	20002838 	.word	0x20002838

08005e1c <setConfigTimer>:
 8005e1c:	281f      	cmp	r0, #31
 8005e1e:	dc06      	bgt.n	8005e2e <setConfigTimer+0x12>
 8005e20:	4b03      	ldr	r3, [pc, #12]	; (8005e30 <setConfigTimer+0x14>)
 8005e22:	3060      	adds	r0, #96	; 0x60
 8005e24:	f843 1030 	str.w	r1, [r3, r0, lsl #3]
 8005e28:	eb03 00c0 	add.w	r0, r3, r0, lsl #3
 8005e2c:	6042      	str	r2, [r0, #4]
 8005e2e:	4770      	bx	lr
 8005e30:	20002838 	.word	0x20002838

08005e34 <getInput>:
 8005e34:	281f      	cmp	r0, #31
 8005e36:	bfdd      	ittte	le
 8005e38:	2206      	movle	r2, #6
 8005e3a:	4b02      	ldrle	r3, [pc, #8]	; (8005e44 <getInput+0x10>)
 8005e3c:	fb02 3000 	mlale	r0, r2, r0, r3
 8005e40:	2000      	movgt	r0, #0
 8005e42:	4770      	bx	lr
 8005e44:	20002838 	.word	0x20002838

08005e48 <getInputClick>:
 8005e48:	281f      	cmp	r0, #31
 8005e4a:	bfdf      	itttt	le
 8005e4c:	2206      	movle	r2, #6
 8005e4e:	4b03      	ldrle	r3, [pc, #12]	; (8005e5c <getInputClick+0x14>)
 8005e50:	fb02 3000 	mlale	r0, r2, r0, r3
 8005e54:	30c0      	addle	r0, #192	; 0xc0
 8005e56:	bfc8      	it	gt
 8005e58:	2000      	movgt	r0, #0
 8005e5a:	4770      	bx	lr
 8005e5c:	20002838 	.word	0x20002838

08005e60 <getInputDoubleClick>:
 8005e60:	281f      	cmp	r0, #31
 8005e62:	bfdf      	itttt	le
 8005e64:	2206      	movle	r2, #6
 8005e66:	4b04      	ldrle	r3, [pc, #16]	; (8005e78 <getInputDoubleClick+0x18>)
 8005e68:	fb02 3000 	mlale	r0, r2, r0, r3
 8005e6c:	f500 70c0 	addle.w	r0, r0, #384	; 0x180
 8005e70:	bfc8      	it	gt
 8005e72:	2000      	movgt	r0, #0
 8005e74:	4770      	bx	lr
 8005e76:	bf00      	nop
 8005e78:	20002838 	.word	0x20002838

08005e7c <getInputLPress>:
 8005e7c:	281f      	cmp	r0, #31
 8005e7e:	bfdf      	itttt	le
 8005e80:	2206      	movle	r2, #6
 8005e82:	4b04      	ldrle	r3, [pc, #16]	; (8005e94 <getInputLPress+0x18>)
 8005e84:	fb02 3000 	mlale	r0, r2, r0, r3
 8005e88:	f500 7010 	addle.w	r0, r0, #576	; 0x240
 8005e8c:	bfc8      	it	gt
 8005e8e:	2000      	movgt	r0, #0
 8005e90:	4770      	bx	lr
 8005e92:	bf00      	nop
 8005e94:	20002838 	.word	0x20002838

08005e98 <getConfigTimer>:
 8005e98:	281f      	cmp	r0, #31
 8005e9a:	bfdd      	ittte	le
 8005e9c:	4b02      	ldrle	r3, [pc, #8]	; (8005ea8 <getConfigTimer+0x10>)
 8005e9e:	3060      	addle	r0, #96	; 0x60
 8005ea0:	eb03 00c0 	addle.w	r0, r3, r0, lsl #3
 8005ea4:	2000      	movgt	r0, #0
 8005ea6:	4770      	bx	lr
 8005ea8:	20002838 	.word	0x20002838

08005eac <loadFromFlash>:
 8005eac:	b570      	push	{r4, r5, r6, lr}
 8005eae:	2400      	movs	r4, #0
 8005eb0:	b08a      	sub	sp, #40	; 0x28
 8005eb2:	4820      	ldr	r0, [pc, #128]	; (8005f34 <loadFromFlash+0x88>)
 8005eb4:	f7ff fe0a 	bl	8005acc <EEPROM_SPI_INIT>
 8005eb8:	221d      	movs	r2, #29
 8005eba:	4621      	mov	r1, r4
 8005ebc:	a802      	add	r0, sp, #8
 8005ebe:	9401      	str	r4, [sp, #4]
 8005ec0:	f001 fad2 	bl	8007468 <memset>
 8005ec4:	2221      	movs	r2, #33	; 0x21
 8005ec6:	4621      	mov	r1, r4
 8005ec8:	a801      	add	r0, sp, #4
 8005eca:	f7ff fe1f 	bl	8005b0c <EEPROM_SPI_ReadBuffer>
 8005ece:	2221      	movs	r2, #33	; 0x21
 8005ed0:	4819      	ldr	r0, [pc, #100]	; (8005f38 <loadFromFlash+0x8c>)
 8005ed2:	a901      	add	r1, sp, #4
 8005ed4:	f001 fb93 	bl	80075fe <strncmp>
 8005ed8:	b940      	cbnz	r0, 8005eec <loadFromFlash+0x40>
 8005eda:	f44f 6280 	mov.w	r2, #1024	; 0x400
 8005ede:	2121      	movs	r1, #33	; 0x21
 8005ee0:	4816      	ldr	r0, [pc, #88]	; (8005f3c <loadFromFlash+0x90>)
 8005ee2:	f7ff fe13 	bl	8005b0c <EEPROM_SPI_ReadBuffer>
 8005ee6:	2000      	movs	r0, #0
 8005ee8:	b00a      	add	sp, #40	; 0x28
 8005eea:	bd70      	pop	{r4, r5, r6, pc}
 8005eec:	4b13      	ldr	r3, [pc, #76]	; (8005f3c <loadFromFlash+0x90>)
 8005eee:	f44f 6280 	mov.w	r2, #1024	; 0x400
 8005ef2:	4618      	mov	r0, r3
 8005ef4:	4621      	mov	r1, r4
 8005ef6:	f001 fab7 	bl	8007468 <memset>
 8005efa:	2202      	movs	r2, #2
 8005efc:	f880 2240 	strb.w	r2, [r0, #576]	; 0x240
 8005f00:	f04f 32ff 	mov.w	r2, #4294967295
 8005f04:	4603      	mov	r3, r0
 8005f06:	f880 2241 	strb.w	r2, [r0, #577]	; 0x241
 8005f0a:	f880 2242 	strb.w	r2, [r0, #578]	; 0x242
 8005f0e:	f880 2243 	strb.w	r2, [r0, #579]	; 0x243
 8005f12:	f880 2244 	strb.w	r2, [r0, #580]	; 0x244
 8005f16:	2606      	movs	r6, #6
 8005f18:	2503      	movs	r5, #3
 8005f1a:	2001      	movs	r0, #1
 8005f1c:	fb06 f204 	mul.w	r2, r6, r4
 8005f20:	fa00 f104 	lsl.w	r1, r0, r4
 8005f24:	3401      	adds	r4, #1
 8005f26:	549d      	strb	r5, [r3, r2]
 8005f28:	2c20      	cmp	r4, #32
 8005f2a:	441a      	add	r2, r3
 8005f2c:	f8c2 1001 	str.w	r1, [r2, #1]
 8005f30:	d1f4      	bne.n	8005f1c <loadFromFlash+0x70>
 8005f32:	e7d8      	b.n	8005ee6 <loadFromFlash+0x3a>
 8005f34:	20000680 	.word	0x20000680
 8005f38:	2000017e 	.word	0x2000017e
 8005f3c:	20002838 	.word	0x20002838

08005f40 <saveToFlash>:
 8005f40:	b508      	push	{r3, lr}
 8005f42:	480a      	ldr	r0, [pc, #40]	; (8005f6c <saveToFlash+0x2c>)
 8005f44:	f7ff fdc2 	bl	8005acc <EEPROM_SPI_INIT>
 8005f48:	2221      	movs	r2, #33	; 0x21
 8005f4a:	2100      	movs	r1, #0
 8005f4c:	4808      	ldr	r0, [pc, #32]	; (8005f70 <saveToFlash+0x30>)
 8005f4e:	f7ff fec3 	bl	8005cd8 <EEPROM_SPI_WriteBuffer>
 8005f52:	2801      	cmp	r0, #1
 8005f54:	d107      	bne.n	8005f66 <saveToFlash+0x26>
 8005f56:	f44f 6280 	mov.w	r2, #1024	; 0x400
 8005f5a:	2121      	movs	r1, #33	; 0x21
 8005f5c:	4805      	ldr	r0, [pc, #20]	; (8005f74 <saveToFlash+0x34>)
 8005f5e:	f7ff febb 	bl	8005cd8 <EEPROM_SPI_WriteBuffer>
 8005f62:	2000      	movs	r0, #0
 8005f64:	bd08      	pop	{r3, pc}
 8005f66:	f04f 30ff 	mov.w	r0, #4294967295
 8005f6a:	e7fb      	b.n	8005f64 <saveToFlash+0x24>
 8005f6c:	20000680 	.word	0x20000680
 8005f70:	2000017e 	.word	0x2000017e
 8005f74:	20002838 	.word	0x20002838

08005f78 <print>:
 8005f78:	b510      	push	{r4, lr}
 8005f7a:	4604      	mov	r4, r0
 8005f7c:	4620      	mov	r0, r4
 8005f7e:	f7fa f8f1 	bl	8000164 <strlen>
 8005f82:	b281      	uxth	r1, r0
 8005f84:	4620      	mov	r0, r4
 8005f86:	f7ff fbf1 	bl	800576c <CDC_Transmit_FS>
 8005f8a:	2801      	cmp	r0, #1
 8005f8c:	d000      	beq.n	8005f90 <print+0x18>
 8005f8e:	bd10      	pop	{r4, pc}
 8005f90:	200a      	movs	r0, #10
 8005f92:	f7fd ff99 	bl	8003ec8 <osDelay>
 8005f96:	e7f1      	b.n	8005f7c <print+0x4>

08005f98 <cmdSave>:
 8005f98:	b508      	push	{r3, lr}
 8005f9a:	f7ff ffd1 	bl	8005f40 <saveToFlash>
 8005f9e:	b920      	cbnz	r0, 8005faa <cmdSave+0x12>
 8005fa0:	4803      	ldr	r0, [pc, #12]	; (8005fb0 <cmdSave+0x18>)
 8005fa2:	f7ff ffe9 	bl	8005f78 <print>
 8005fa6:	2001      	movs	r0, #1
 8005fa8:	bd08      	pop	{r3, pc}
 8005faa:	2000      	movs	r0, #0
 8005fac:	e7fc      	b.n	8005fa8 <cmdSave+0x10>
 8005fae:	bf00      	nop
 8005fb0:	080093a9 	.word	0x080093a9

08005fb4 <consThread>:
 8005fb4:	b5f8      	push	{r3, r4, r5, r6, r7, lr}
 8005fb6:	f642 64e0 	movw	r4, #12000	; 0x2ee0
 8005fba:	2700      	movs	r7, #0
 8005fbc:	4d0e      	ldr	r5, [pc, #56]	; (8005ff8 <consThread+0x44>)
 8005fbe:	4e0f      	ldr	r6, [pc, #60]	; (8005ffc <consThread+0x48>)
 8005fc0:	682b      	ldr	r3, [r5, #0]
 8005fc2:	b18b      	cbz	r3, 8005fe8 <consThread+0x34>
 8005fc4:	6832      	ldr	r2, [r6, #0]
 8005fc6:	f642 64e0 	movw	r4, #12000	; 0x2ee0
 8005fca:	6812      	ldr	r2, [r2, #0]
 8005fcc:	549f      	strb	r7, [r3, r2]
 8005fce:	6831      	ldr	r1, [r6, #0]
 8005fd0:	6828      	ldr	r0, [r5, #0]
 8005fd2:	f000 ff5d 	bl	8006e90 <processConsoleStr>
 8005fd6:	6828      	ldr	r0, [r5, #0]
 8005fd8:	602f      	str	r7, [r5, #0]
 8005fda:	f7ff fbdd 	bl	8005798 <CDC_Receive_FS_ProcessNext>
 8005fde:	3c01      	subs	r4, #1
 8005fe0:	200a      	movs	r0, #10
 8005fe2:	f7fd ff71 	bl	8003ec8 <osDelay>
 8005fe6:	e7eb      	b.n	8005fc0 <consThread+0xc>
 8005fe8:	2c00      	cmp	r4, #0
 8005fea:	dcf8      	bgt.n	8005fde <consThread+0x2a>
 8005fec:	d1f8      	bne.n	8005fe0 <consThread+0x2c>
 8005fee:	f000 fd0d 	bl	8006a0c <closeTerm>
 8005ff2:	f04f 34ff 	mov.w	r4, #4294967295
 8005ff6:	e7f3      	b.n	8005fe0 <consThread+0x2c>
 8005ff8:	20002c38 	.word	0x20002c38
 8005ffc:	20002c3c 	.word	0x20002c3c

08006000 <printHelpCommands>:
 8006000:	b570      	push	{r4, r5, r6, lr}
 8006002:	480e      	ldr	r0, [pc, #56]	; (800603c <printHelpCommands+0x3c>)
 8006004:	f7ff ffb8 	bl	8005f78 <print>
 8006008:	4c0d      	ldr	r4, [pc, #52]	; (8006040 <printHelpCommands+0x40>)
 800600a:	4d0e      	ldr	r5, [pc, #56]	; (8006044 <printHelpCommands+0x44>)
 800600c:	4e0e      	ldr	r6, [pc, #56]	; (8006048 <printHelpCommands+0x48>)
 800600e:	68e3      	ldr	r3, [r4, #12]
 8006010:	3410      	adds	r4, #16
 8006012:	b923      	cbnz	r3, 800601e <printHelpCommands+0x1e>
 8006014:	e8bd 4070 	ldmia.w	sp!, {r4, r5, r6, lr}
 8006018:	480c      	ldr	r0, [pc, #48]	; (800604c <printHelpCommands+0x4c>)
 800601a:	f7ff bfad 	b.w	8005f78 <print>
 800601e:	f854 0c10 	ldr.w	r0, [r4, #-16]
 8006022:	f7ff ffa9 	bl	8005f78 <print>
 8006026:	4628      	mov	r0, r5
 8006028:	f7ff ffa6 	bl	8005f78 <print>
 800602c:	f854 0c0c 	ldr.w	r0, [r4, #-12]
 8006030:	f7ff ffa2 	bl	8005f78 <print>
 8006034:	4630      	mov	r0, r6
 8006036:	f7ff ff9f 	bl	8005f78 <print>
 800603a:	e7e8      	b.n	800600e <printHelpCommands+0xe>
 800603c:	080093cc 	.word	0x080093cc
 8006040:	200001a0 	.word	0x200001a0
 8006044:	080093e2 	.word	0x080093e2
 8006048:	080099a0 	.word	0x080099a0
 800604c:	080093e6 	.word	0x080093e6

08006050 <cmdHelp>:
 8006050:	b570      	push	{r4, r5, r6, lr}
 8006052:	4606      	mov	r6, r0
 8006054:	bb10      	cbnz	r0, 800609c <cmdHelp+0x4c>
 8006056:	f7ff ffd3 	bl	8006000 <printHelpCommands>
 800605a:	2001      	movs	r0, #1
 800605c:	bd70      	pop	{r4, r5, r6, pc}
 800605e:	4620      	mov	r0, r4
 8006060:	f7fa f880 	bl	8000164 <strlen>
 8006064:	4621      	mov	r1, r4
 8006066:	4602      	mov	r2, r0
 8006068:	4630      	mov	r0, r6
 800606a:	f001 fac8 	bl	80075fe <strncmp>
 800606e:	b960      	cbnz	r0, 800608a <cmdHelp+0x3a>
 8006070:	480b      	ldr	r0, [pc, #44]	; (80060a0 <cmdHelp+0x50>)
 8006072:	f7ff ff81 	bl	8005f78 <print>
 8006076:	68a8      	ldr	r0, [r5, #8]
 8006078:	b128      	cbz	r0, 8006086 <cmdHelp+0x36>
 800607a:	f7ff ff7d 	bl	8005f78 <print>
 800607e:	4808      	ldr	r0, [pc, #32]	; (80060a0 <cmdHelp+0x50>)
 8006080:	f7ff ff7a 	bl	8005f78 <print>
 8006084:	e7e9      	b.n	800605a <cmdHelp+0xa>
 8006086:	6868      	ldr	r0, [r5, #4]
 8006088:	e7f7      	b.n	800607a <cmdHelp+0x2a>
 800608a:	3510      	adds	r5, #16
 800608c:	682c      	ldr	r4, [r5, #0]
 800608e:	2c00      	cmp	r4, #0
 8006090:	d1e5      	bne.n	800605e <cmdHelp+0xe>
 8006092:	4804      	ldr	r0, [pc, #16]	; (80060a4 <cmdHelp+0x54>)
 8006094:	f7ff ff70 	bl	8005f78 <print>
 8006098:	4620      	mov	r0, r4
 800609a:	e7df      	b.n	800605c <cmdHelp+0xc>
 800609c:	4d02      	ldr	r5, [pc, #8]	; (80060a8 <cmdHelp+0x58>)
 800609e:	e7f5      	b.n	800608c <cmdHelp+0x3c>
 80060a0:	080099a0 	.word	0x080099a0
 80060a4:	08009413 	.word	0x08009413
 80060a8:	200001a0 	.word	0x200001a0

080060ac <convertToInt>:
 80060ac:	b513      	push	{r0, r1, r4, lr}
 80060ae:	4604      	mov	r4, r0
 80060b0:	f7fa f858 	bl	8000164 <strlen>
 80060b4:	2802      	cmp	r0, #2
 80060b6:	d919      	bls.n	80060ec <convertToInt+0x40>
 80060b8:	7823      	ldrb	r3, [r4, #0]
 80060ba:	2b30      	cmp	r3, #48	; 0x30
 80060bc:	d116      	bne.n	80060ec <convertToInt+0x40>
 80060be:	7863      	ldrb	r3, [r4, #1]
 80060c0:	2b78      	cmp	r3, #120	; 0x78
 80060c2:	d10e      	bne.n	80060e2 <convertToInt+0x36>
 80060c4:	2210      	movs	r2, #16
 80060c6:	3402      	adds	r4, #2
 80060c8:	a901      	add	r1, sp, #4
 80060ca:	4620      	mov	r0, r4
 80060cc:	f001 fb7c 	bl	80077c8 <strtoul>
 80060d0:	9b01      	ldr	r3, [sp, #4]
 80060d2:	2100      	movs	r1, #0
 80060d4:	429c      	cmp	r4, r3
 80060d6:	d302      	bcc.n	80060de <convertToInt+0x32>
 80060d8:	f04f 30ff 	mov.w	r0, #4294967295
 80060dc:	4601      	mov	r1, r0
 80060de:	b002      	add	sp, #8
 80060e0:	bd10      	pop	{r4, pc}
 80060e2:	2b62      	cmp	r3, #98	; 0x62
 80060e4:	d102      	bne.n	80060ec <convertToInt+0x40>
 80060e6:	2202      	movs	r2, #2
 80060e8:	3402      	adds	r4, #2
 80060ea:	e7ed      	b.n	80060c8 <convertToInt+0x1c>
 80060ec:	a901      	add	r1, sp, #4
 80060ee:	220a      	movs	r2, #10
 80060f0:	4620      	mov	r0, r4
 80060f2:	f001 fb69 	bl	80077c8 <strtoul>
 80060f6:	9b01      	ldr	r3, [sp, #4]
 80060f8:	2100      	movs	r1, #0
 80060fa:	42a3      	cmp	r3, r4
 80060fc:	d8ef      	bhi.n	80060de <convertToInt+0x32>
 80060fe:	e7eb      	b.n	80060d8 <convertToInt+0x2c>

08006100 <printOp>:
 8006100:	2803      	cmp	r0, #3
 8006102:	d80c      	bhi.n	800611e <printOp+0x1e>
 8006104:	3801      	subs	r0, #1
 8006106:	2802      	cmp	r0, #2
 8006108:	d810      	bhi.n	800612c <printOp+0x2c>
 800610a:	e8df f000 	tbb	[pc, r0]
 800610e:	1614      	.short	0x1614
 8006110:	12          	.byte	0x12
 8006111:	00          	.byte	0x00
 8006112:	2b03      	cmp	r3, #3
 8006114:	d813      	bhi.n	800613e <printOp+0x3e>
 8006116:	e8df f003 	tbb	[pc, r3]
 800611a:	0e09      	.short	0x0e09
 800611c:	0c10      	.short	0x0c10
 800611e:	f1a0 0380 	sub.w	r3, r0, #128	; 0x80
 8006122:	f080 0080 	eor.w	r0, r0, #128	; 0x80
 8006126:	2803      	cmp	r0, #3
 8006128:	d9f3      	bls.n	8006112 <printOp+0x12>
 800612a:	4770      	bx	lr
 800612c:	4804      	ldr	r0, [pc, #16]	; (8006140 <printOp+0x40>)
 800612e:	f7ff bf23 	b.w	8005f78 <print>
 8006132:	4804      	ldr	r0, [pc, #16]	; (8006144 <printOp+0x44>)
 8006134:	e7fb      	b.n	800612e <printOp+0x2e>
 8006136:	4804      	ldr	r0, [pc, #16]	; (8006148 <printOp+0x48>)
 8006138:	e7f9      	b.n	800612e <printOp+0x2e>
 800613a:	4804      	ldr	r0, [pc, #16]	; (800614c <printOp+0x4c>)
 800613c:	e7f7      	b.n	800612e <printOp+0x2e>
 800613e:	4770      	bx	lr
 8006140:	0800942b 	.word	0x0800942b
 8006144:	0800942f 	.word	0x0800942f
 8006148:	0800943f 	.word	0x0800943f
 800614c:	0800944b 	.word	0x0800944b

08006150 <printHex>:
 8006150:	b510      	push	{r4, lr}
 8006152:	460c      	mov	r4, r1
 8006154:	4603      	mov	r3, r0
 8006156:	4611      	mov	r1, r2
 8006158:	4620      	mov	r0, r4
 800615a:	4a04      	ldr	r2, [pc, #16]	; (800616c <printHex+0x1c>)
 800615c:	f001 f98c 	bl	8007478 <sniprintf>
 8006160:	4620      	mov	r0, r4
 8006162:	e8bd 4010 	ldmia.w	sp!, {r4, lr}
 8006166:	f7ff bf07 	b.w	8005f78 <print>
 800616a:	bf00      	nop
 800616c:	08009458 	.word	0x08009458

08006170 <printDec>:
 8006170:	b507      	push	{r0, r1, r2, lr}
 8006172:	4603      	mov	r3, r0
 8006174:	2105      	movs	r1, #5
 8006176:	4a05      	ldr	r2, [pc, #20]	; (800618c <printDec+0x1c>)
 8006178:	4668      	mov	r0, sp
 800617a:	f001 f97d 	bl	8007478 <sniprintf>
 800617e:	4668      	mov	r0, sp
 8006180:	f7ff fefa 	bl	8005f78 <print>
 8006184:	b003      	add	sp, #12
 8006186:	f85d fb04 	ldr.w	pc, [sp], #4
 800618a:	bf00      	nop
 800618c:	0800945b 	.word	0x0800945b

08006190 <printOutputState>:
 8006190:	b510      	push	{r4, lr}
 8006192:	4604      	mov	r4, r0
 8006194:	480b      	ldr	r0, [pc, #44]	; (80061c4 <printOutputState+0x34>)
 8006196:	f7ff feef 	bl	8005f78 <print>
 800619a:	4620      	mov	r0, r4
 800619c:	f7ff ffe8 	bl	8006170 <printDec>
 80061a0:	4809      	ldr	r0, [pc, #36]	; (80061c8 <printOutputState+0x38>)
 80061a2:	f7ff fee9 	bl	8005f78 <print>
 80061a6:	4620      	mov	r0, r4
 80061a8:	f000 ff38 	bl	800701c <getOutputState>
 80061ac:	b138      	cbz	r0, 80061be <printOutputState+0x2e>
 80061ae:	4807      	ldr	r0, [pc, #28]	; (80061cc <printOutputState+0x3c>)
 80061b0:	f7ff fee2 	bl	8005f78 <print>
 80061b4:	e8bd 4010 	ldmia.w	sp!, {r4, lr}
 80061b8:	4805      	ldr	r0, [pc, #20]	; (80061d0 <printOutputState+0x40>)
 80061ba:	f7ff bedd 	b.w	8005f78 <print>
 80061be:	4805      	ldr	r0, [pc, #20]	; (80061d4 <printOutputState+0x44>)
 80061c0:	e7f6      	b.n	80061b0 <printOutputState+0x20>
 80061c2:	bf00      	nop
 80061c4:	0800945e 	.word	0x0800945e
 80061c8:	08009493 	.word	0x08009493
 80061cc:	0800943f 	.word	0x0800943f
 80061d0:	080099a0 	.word	0x080099a0
 80061d4:	0800944b 	.word	0x0800944b

080061d8 <cmdOutput>:
 80061d8:	b538      	push	{r3, r4, r5, lr}
 80061da:	491a      	ldr	r1, [pc, #104]	; (8006244 <cmdOutput+0x6c>)
 80061dc:	f001 fa24 	bl	8007628 <strtok>
 80061e0:	b908      	cbnz	r0, 80061e6 <cmdOutput+0xe>
 80061e2:	2000      	movs	r0, #0
 80061e4:	bd38      	pop	{r3, r4, r5, pc}
 80061e6:	f7ff ff61 	bl	80060ac <convertToInt>
 80061ea:	2820      	cmp	r0, #32
 80061ec:	f171 0300 	sbcs.w	r3, r1, #0
 80061f0:	4604      	mov	r4, r0
 80061f2:	d2f6      	bcs.n	80061e2 <cmdOutput+0xa>
 80061f4:	2000      	movs	r0, #0
 80061f6:	4913      	ldr	r1, [pc, #76]	; (8006244 <cmdOutput+0x6c>)
 80061f8:	f001 fa16 	bl	8007628 <strtok>
 80061fc:	4605      	mov	r5, r0
 80061fe:	2800      	cmp	r0, #0
 8006200:	d0ef      	beq.n	80061e2 <cmdOutput+0xa>
 8006202:	4601      	mov	r1, r0
 8006204:	4810      	ldr	r0, [pc, #64]	; (8006248 <cmdOutput+0x70>)
 8006206:	f7f9 ffa3 	bl	8000150 <strcmp>
 800620a:	b938      	cbnz	r0, 800621c <cmdOutput+0x44>
 800620c:	4620      	mov	r0, r4
 800620e:	f000 fef7 	bl	8007000 <setOutputToggle>
 8006212:	4620      	mov	r0, r4
 8006214:	f7ff ffbc 	bl	8006190 <printOutputState>
 8006218:	2001      	movs	r0, #1
 800621a:	e7e3      	b.n	80061e4 <cmdOutput+0xc>
 800621c:	4629      	mov	r1, r5
 800621e:	480b      	ldr	r0, [pc, #44]	; (800624c <cmdOutput+0x74>)
 8006220:	f7f9 ff96 	bl	8000150 <strcmp>
 8006224:	b918      	cbnz	r0, 800622e <cmdOutput+0x56>
 8006226:	4620      	mov	r0, r4
 8006228:	f000 fecc 	bl	8006fc4 <setOutputOn>
 800622c:	e7f1      	b.n	8006212 <cmdOutput+0x3a>
 800622e:	4629      	mov	r1, r5
 8006230:	4807      	ldr	r0, [pc, #28]	; (8006250 <cmdOutput+0x78>)
 8006232:	f7f9 ff8d 	bl	8000150 <strcmp>
 8006236:	2800      	cmp	r0, #0
 8006238:	d1d3      	bne.n	80061e2 <cmdOutput+0xa>
 800623a:	4620      	mov	r0, r4
 800623c:	f000 fed0 	bl	8006fe0 <setOutputOff>
 8006240:	e7e7      	b.n	8006212 <cmdOutput+0x3a>
 8006242:	bf00      	nop
 8006244:	08009493 	.word	0x08009493
 8006248:	08009466 	.word	0x08009466
 800624c:	0800946d 	.word	0x0800946d
 8006250:	08009470 	.word	0x08009470

08006254 <printConfigInput1Op>:
 8006254:	b570      	push	{r4, r5, r6, lr}
 8006256:	4604      	mov	r4, r0
 8006258:	7800      	ldrb	r0, [r0, #0]
 800625a:	460d      	mov	r5, r1
 800625c:	4616      	mov	r6, r2
 800625e:	f7ff ff4f 	bl	8006100 <printOp>
 8006262:	7823      	ldrb	r3, [r4, #0]
 8006264:	2b80      	cmp	r3, #128	; 0x80
 8006266:	d10a      	bne.n	800627e <printConfigInput1Op+0x2a>
 8006268:	480c      	ldr	r0, [pc, #48]	; (800629c <printConfigInput1Op+0x48>)
 800626a:	f7ff fe85 	bl	8005f78 <print>
 800626e:	7960      	ldrb	r0, [r4, #5]
 8006270:	f7ff ff7e 	bl	8006170 <printDec>
 8006274:	e8bd 4070 	ldmia.w	sp!, {r4, r5, r6, lr}
 8006278:	4809      	ldr	r0, [pc, #36]	; (80062a0 <printConfigInput1Op+0x4c>)
 800627a:	f7ff be7d 	b.w	8005f78 <print>
 800627e:	4809      	ldr	r0, [pc, #36]	; (80062a4 <printConfigInput1Op+0x50>)
 8006280:	f7ff fe7a 	bl	8005f78 <print>
 8006284:	4632      	mov	r2, r6
 8006286:	4629      	mov	r1, r5
 8006288:	f8d4 0001 	ldr.w	r0, [r4, #1]
 800628c:	f7ff ff60 	bl	8006150 <printHex>
 8006290:	f994 3000 	ldrsb.w	r3, [r4]
 8006294:	2b00      	cmp	r3, #0
 8006296:	daed      	bge.n	8006274 <printConfigInput1Op+0x20>
 8006298:	e7e6      	b.n	8006268 <printConfigInput1Op+0x14>
 800629a:	bf00      	nop
 800629c:	08009474 	.word	0x08009474
 80062a0:	080097ef 	.word	0x080097ef
 80062a4:	0800947c 	.word	0x0800947c

080062a8 <printConfigInput>:
 80062a8:	b530      	push	{r4, r5, lr}
 80062aa:	4604      	mov	r4, r0
 80062ac:	b087      	sub	sp, #28
 80062ae:	4823      	ldr	r0, [pc, #140]	; (800633c <printConfigInput+0x94>)
 80062b0:	f7ff fe62 	bl	8005f78 <print>
 80062b4:	4623      	mov	r3, r4
 80062b6:	2114      	movs	r1, #20
 80062b8:	4a21      	ldr	r2, [pc, #132]	; (8006340 <printConfigInput+0x98>)
 80062ba:	a801      	add	r0, sp, #4
 80062bc:	f001 f8dc 	bl	8007478 <sniprintf>
 80062c0:	a801      	add	r0, sp, #4
 80062c2:	f7ff fe59 	bl	8005f78 <print>
 80062c6:	4620      	mov	r0, r4
 80062c8:	f7ff fdb4 	bl	8005e34 <getInput>
 80062cc:	7803      	ldrb	r3, [r0, #0]
 80062ce:	4605      	mov	r5, r0
 80062d0:	b13b      	cbz	r3, 80062e2 <printConfigInput+0x3a>
 80062d2:	481c      	ldr	r0, [pc, #112]	; (8006344 <printConfigInput+0x9c>)
 80062d4:	f7ff fe50 	bl	8005f78 <print>
 80062d8:	2214      	movs	r2, #20
 80062da:	4628      	mov	r0, r5
 80062dc:	a901      	add	r1, sp, #4
 80062de:	f7ff ffb9 	bl	8006254 <printConfigInput1Op>
 80062e2:	4620      	mov	r0, r4
 80062e4:	f7ff fdb0 	bl	8005e48 <getInputClick>
 80062e8:	7803      	ldrb	r3, [r0, #0]
 80062ea:	4605      	mov	r5, r0
 80062ec:	b13b      	cbz	r3, 80062fe <printConfigInput+0x56>
 80062ee:	4816      	ldr	r0, [pc, #88]	; (8006348 <printConfigInput+0xa0>)
 80062f0:	f7ff fe42 	bl	8005f78 <print>
 80062f4:	2214      	movs	r2, #20
 80062f6:	4628      	mov	r0, r5
 80062f8:	a901      	add	r1, sp, #4
 80062fa:	f7ff ffab 	bl	8006254 <printConfigInput1Op>
 80062fe:	4620      	mov	r0, r4
 8006300:	f7ff fdae 	bl	8005e60 <getInputDoubleClick>
 8006304:	7803      	ldrb	r3, [r0, #0]
 8006306:	4605      	mov	r5, r0
 8006308:	b13b      	cbz	r3, 800631a <printConfigInput+0x72>
 800630a:	4810      	ldr	r0, [pc, #64]	; (800634c <printConfigInput+0xa4>)
 800630c:	f7ff fe34 	bl	8005f78 <print>
 8006310:	2214      	movs	r2, #20
 8006312:	4628      	mov	r0, r5
 8006314:	a901      	add	r1, sp, #4
 8006316:	f7ff ff9d 	bl	8006254 <printConfigInput1Op>
 800631a:	4620      	mov	r0, r4
 800631c:	f7ff fdae 	bl	8005e7c <getInputLPress>
 8006320:	7803      	ldrb	r3, [r0, #0]
 8006322:	4604      	mov	r4, r0
 8006324:	b13b      	cbz	r3, 8006336 <printConfigInput+0x8e>
 8006326:	480a      	ldr	r0, [pc, #40]	; (8006350 <printConfigInput+0xa8>)
 8006328:	f7ff fe26 	bl	8005f78 <print>
 800632c:	2214      	movs	r2, #20
 800632e:	4620      	mov	r0, r4
 8006330:	a901      	add	r1, sp, #4
 8006332:	f7ff ff8f 	bl	8006254 <printConfigInput1Op>
 8006336:	b007      	add	sp, #28
 8006338:	bd30      	pop	{r4, r5, pc}
 800633a:	bf00      	nop
 800633c:	08009480 	.word	0x08009480
 8006340:	08009487 	.word	0x08009487
 8006344:	0800948c 	.word	0x0800948c
 8006348:	08009495 	.word	0x08009495
 800634c:	0800949e 	.word	0x0800949e
 8006350:	080094a8 	.word	0x080094a8

08006354 <cmdInput>:
 8006354:	b5f8      	push	{r3, r4, r5, r6, r7, lr}
 8006356:	494d      	ldr	r1, [pc, #308]	; (800648c <cmdInput+0x138>)
 8006358:	f001 f966 	bl	8007628 <strtok>
 800635c:	b908      	cbnz	r0, 8006362 <cmdInput+0xe>
 800635e:	2000      	movs	r0, #0
 8006360:	bdf8      	pop	{r3, r4, r5, r6, r7, pc}
 8006362:	f7ff fea3 	bl	80060ac <convertToInt>
 8006366:	2820      	cmp	r0, #32
 8006368:	f171 0300 	sbcs.w	r3, r1, #0
 800636c:	4605      	mov	r5, r0
 800636e:	d2f6      	bcs.n	800635e <cmdInput+0xa>
 8006370:	2000      	movs	r0, #0
 8006372:	4946      	ldr	r1, [pc, #280]	; (800648c <cmdInput+0x138>)
 8006374:	f001 f958 	bl	8007628 <strtok>
 8006378:	4604      	mov	r4, r0
 800637a:	2800      	cmp	r0, #0
 800637c:	d0ef      	beq.n	800635e <cmdInput+0xa>
 800637e:	4944      	ldr	r1, [pc, #272]	; (8006490 <cmdInput+0x13c>)
 8006380:	f7f9 fee6 	bl	8000150 <strcmp>
 8006384:	2800      	cmp	r0, #0
 8006386:	d030      	beq.n	80063ea <cmdInput+0x96>
 8006388:	4620      	mov	r0, r4
 800638a:	4942      	ldr	r1, [pc, #264]	; (8006494 <cmdInput+0x140>)
 800638c:	f7f9 fee0 	bl	8000150 <strcmp>
 8006390:	b150      	cbz	r0, 80063a8 <cmdInput+0x54>
 8006392:	4620      	mov	r0, r4
 8006394:	4940      	ldr	r1, [pc, #256]	; (8006498 <cmdInput+0x144>)
 8006396:	f7f9 fedb 	bl	8000150 <strcmp>
 800639a:	b128      	cbz	r0, 80063a8 <cmdInput+0x54>
 800639c:	4620      	mov	r0, r4
 800639e:	493f      	ldr	r1, [pc, #252]	; (800649c <cmdInput+0x148>)
 80063a0:	f7f9 fed6 	bl	8000150 <strcmp>
 80063a4:	2800      	cmp	r0, #0
 80063a6:	d1da      	bne.n	800635e <cmdInput+0xa>
 80063a8:	7827      	ldrb	r7, [r4, #0]
 80063aa:	2000      	movs	r0, #0
 80063ac:	4937      	ldr	r1, [pc, #220]	; (800648c <cmdInput+0x138>)
 80063ae:	f001 f93b 	bl	8007628 <strtok>
 80063b2:	4604      	mov	r4, r0
 80063b4:	2800      	cmp	r0, #0
 80063b6:	d0d2      	beq.n	800635e <cmdInput+0xa>
 80063b8:	4939      	ldr	r1, [pc, #228]	; (80064a0 <cmdInput+0x14c>)
 80063ba:	f7f9 fec9 	bl	8000150 <strcmp>
 80063be:	b1b0      	cbz	r0, 80063ee <cmdInput+0x9a>
 80063c0:	4620      	mov	r0, r4
 80063c2:	4938      	ldr	r1, [pc, #224]	; (80064a4 <cmdInput+0x150>)
 80063c4:	f7f9 fec4 	bl	8000150 <strcmp>
 80063c8:	2800      	cmp	r0, #0
 80063ca:	d038      	beq.n	800643e <cmdInput+0xea>
 80063cc:	4620      	mov	r0, r4
 80063ce:	4936      	ldr	r1, [pc, #216]	; (80064a8 <cmdInput+0x154>)
 80063d0:	f7f9 febe 	bl	8000150 <strcmp>
 80063d4:	2800      	cmp	r0, #0
 80063d6:	d034      	beq.n	8006442 <cmdInput+0xee>
 80063d8:	4620      	mov	r0, r4
 80063da:	4934      	ldr	r1, [pc, #208]	; (80064ac <cmdInput+0x158>)
 80063dc:	f7f9 feb8 	bl	8000150 <strcmp>
 80063e0:	4604      	mov	r4, r0
 80063e2:	2800      	cmp	r0, #0
 80063e4:	d1bb      	bne.n	800635e <cmdInput+0xa>
 80063e6:	4606      	mov	r6, r0
 80063e8:	e00d      	b.n	8006406 <cmdInput+0xb2>
 80063ea:	276e      	movs	r7, #110	; 0x6e
 80063ec:	e7dd      	b.n	80063aa <cmdInput+0x56>
 80063ee:	2403      	movs	r4, #3
 80063f0:	2000      	movs	r0, #0
 80063f2:	4926      	ldr	r1, [pc, #152]	; (800648c <cmdInput+0x138>)
 80063f4:	f001 f918 	bl	8007628 <strtok>
 80063f8:	2800      	cmp	r0, #0
 80063fa:	d0b0      	beq.n	800635e <cmdInput+0xa>
 80063fc:	f7ff fe56 	bl	80060ac <convertToInt>
 8006400:	2900      	cmp	r1, #0
 8006402:	4606      	mov	r6, r0
 8006404:	dbab      	blt.n	800635e <cmdInput+0xa>
 8006406:	4921      	ldr	r1, [pc, #132]	; (800648c <cmdInput+0x138>)
 8006408:	2000      	movs	r0, #0
 800640a:	f001 f90d 	bl	8007628 <strtok>
 800640e:	4928      	ldr	r1, [pc, #160]	; (80064b0 <cmdInput+0x15c>)
 8006410:	f7f9 fe9e 	bl	8000150 <strcmp>
 8006414:	b9b8      	cbnz	r0, 8006446 <cmdInput+0xf2>
 8006416:	491d      	ldr	r1, [pc, #116]	; (800648c <cmdInput+0x138>)
 8006418:	f001 f906 	bl	8007628 <strtok>
 800641c:	f7ff fe46 	bl	80060ac <convertToInt>
 8006420:	2900      	cmp	r1, #0
 8006422:	db9c      	blt.n	800635e <cmdInput+0xa>
 8006424:	f044 0480 	orr.w	r4, r4, #128	; 0x80
 8006428:	3f63      	subs	r7, #99	; 0x63
 800642a:	2f0b      	cmp	r7, #11
 800642c:	d813      	bhi.n	8006456 <cmdInput+0x102>
 800642e:	e8df f007 	tbb	[pc, r7]
 8006432:	1e17      	.short	0x1e17
 8006434:	12121212 	.word	0x12121212
 8006438:	25121212 	.word	0x25121212
 800643c:	0c12      	.short	0x0c12
 800643e:	2401      	movs	r4, #1
 8006440:	e7d6      	b.n	80063f0 <cmdInput+0x9c>
 8006442:	2402      	movs	r4, #2
 8006444:	e7d4      	b.n	80063f0 <cmdInput+0x9c>
 8006446:	2000      	movs	r0, #0
 8006448:	e7ee      	b.n	8006428 <cmdInput+0xd4>
 800644a:	b2c3      	uxtb	r3, r0
 800644c:	4632      	mov	r2, r6
 800644e:	4621      	mov	r1, r4
 8006450:	4628      	mov	r0, r5
 8006452:	f7ff fca5 	bl	8005da0 <setInput>
 8006456:	4628      	mov	r0, r5
 8006458:	f7ff ff26 	bl	80062a8 <printConfigInput>
 800645c:	2001      	movs	r0, #1
 800645e:	e77f      	b.n	8006360 <cmdInput+0xc>
 8006460:	b2c3      	uxtb	r3, r0
 8006462:	4632      	mov	r2, r6
 8006464:	4621      	mov	r1, r4
 8006466:	4628      	mov	r0, r5
 8006468:	f7ff fca8 	bl	8005dbc <setInputClick>
 800646c:	e7f3      	b.n	8006456 <cmdInput+0x102>
 800646e:	b2c3      	uxtb	r3, r0
 8006470:	4632      	mov	r2, r6
 8006472:	4621      	mov	r1, r4
 8006474:	4628      	mov	r0, r5
 8006476:	f7ff fcb1 	bl	8005ddc <setInputDoubleClick>
 800647a:	e7ec      	b.n	8006456 <cmdInput+0x102>
 800647c:	b2c3      	uxtb	r3, r0
 800647e:	4632      	mov	r2, r6
 8006480:	4621      	mov	r1, r4
 8006482:	4628      	mov	r0, r5
 8006484:	f7ff fcba 	bl	8005dfc <setInputLPress>
 8006488:	e7e5      	b.n	8006456 <cmdInput+0x102>
 800648a:	bf00      	nop
 800648c:	08009493 	.word	0x08009493
 8006490:	080094b1 	.word	0x080094b1
 8006494:	080094b7 	.word	0x080094b7
 8006498:	080094b6 	.word	0x080094b6
 800649c:	080094bd 	.word	0x080094bd
 80064a0:	08009466 	.word	0x08009466
 80064a4:	0800946d 	.word	0x0800946d
 80064a8:	08009470 	.word	0x08009470
 80064ac:	0800942b 	.word	0x0800942b
 80064b0:	080094c4 	.word	0x080094c4

080064b4 <printConfigTimer>:
 80064b4:	b510      	push	{r4, lr}
 80064b6:	4604      	mov	r4, r0
 80064b8:	b086      	sub	sp, #24
 80064ba:	4814      	ldr	r0, [pc, #80]	; (800650c <printConfigTimer+0x58>)
 80064bc:	f7ff fd5c 	bl	8005f78 <print>
 80064c0:	4623      	mov	r3, r4
 80064c2:	2114      	movs	r1, #20
 80064c4:	4a12      	ldr	r2, [pc, #72]	; (8006510 <printConfigTimer+0x5c>)
 80064c6:	a801      	add	r0, sp, #4
 80064c8:	f000 ffd6 	bl	8007478 <sniprintf>
 80064cc:	a801      	add	r0, sp, #4
 80064ce:	f7ff fd53 	bl	8005f78 <print>
 80064d2:	4620      	mov	r0, r4
 80064d4:	f7ff fce0 	bl	8005e98 <getConfigTimer>
 80064d8:	4604      	mov	r4, r0
 80064da:	480e      	ldr	r0, [pc, #56]	; (8006514 <printConfigTimer+0x60>)
 80064dc:	f7ff fd4c 	bl	8005f78 <print>
 80064e0:	6863      	ldr	r3, [r4, #4]
 80064e2:	2114      	movs	r1, #20
 80064e4:	4a0c      	ldr	r2, [pc, #48]	; (8006518 <printConfigTimer+0x64>)
 80064e6:	a801      	add	r0, sp, #4
 80064e8:	f000 ffc6 	bl	8007478 <sniprintf>
 80064ec:	a801      	add	r0, sp, #4
 80064ee:	f7ff fd43 	bl	8005f78 <print>
 80064f2:	480a      	ldr	r0, [pc, #40]	; (800651c <printConfigTimer+0x68>)
 80064f4:	f7ff fd40 	bl	8005f78 <print>
 80064f8:	2214      	movs	r2, #20
 80064fa:	6820      	ldr	r0, [r4, #0]
 80064fc:	a901      	add	r1, sp, #4
 80064fe:	f7ff fe27 	bl	8006150 <printHex>
 8006502:	4807      	ldr	r0, [pc, #28]	; (8006520 <printConfigTimer+0x6c>)
 8006504:	f7ff fd38 	bl	8005f78 <print>
 8006508:	b006      	add	sp, #24
 800650a:	bd10      	pop	{r4, pc}
 800650c:	08009475 	.word	0x08009475
 8006510:	080094ca 	.word	0x080094ca
 8006514:	08009493 	.word	0x08009493
 8006518:	080094ce 	.word	0x080094ce
 800651c:	0800947c 	.word	0x0800947c
 8006520:	080097ef 	.word	0x080097ef

08006524 <cmdTimer>:
 8006524:	b538      	push	{r3, r4, r5, lr}
 8006526:	4916      	ldr	r1, [pc, #88]	; (8006580 <cmdTimer+0x5c>)
 8006528:	f001 f87e 	bl	8007628 <strtok>
 800652c:	b908      	cbnz	r0, 8006532 <cmdTimer+0xe>
 800652e:	2000      	movs	r0, #0
 8006530:	bd38      	pop	{r3, r4, r5, pc}
 8006532:	f7ff fdbb 	bl	80060ac <convertToInt>
 8006536:	2820      	cmp	r0, #32
 8006538:	f171 0300 	sbcs.w	r3, r1, #0
 800653c:	4604      	mov	r4, r0
 800653e:	d2f6      	bcs.n	800652e <cmdTimer+0xa>
 8006540:	2000      	movs	r0, #0
 8006542:	490f      	ldr	r1, [pc, #60]	; (8006580 <cmdTimer+0x5c>)
 8006544:	f001 f870 	bl	8007628 <strtok>
 8006548:	2800      	cmp	r0, #0
 800654a:	d0f0      	beq.n	800652e <cmdTimer+0xa>
 800654c:	f7ff fdae 	bl	80060ac <convertToInt>
 8006550:	2900      	cmp	r1, #0
 8006552:	4605      	mov	r5, r0
 8006554:	dbeb      	blt.n	800652e <cmdTimer+0xa>
 8006556:	2000      	movs	r0, #0
 8006558:	4909      	ldr	r1, [pc, #36]	; (8006580 <cmdTimer+0x5c>)
 800655a:	f001 f865 	bl	8007628 <strtok>
 800655e:	2800      	cmp	r0, #0
 8006560:	d0e5      	beq.n	800652e <cmdTimer+0xa>
 8006562:	f7ff fda3 	bl	80060ac <convertToInt>
 8006566:	2900      	cmp	r1, #0
 8006568:	dbe1      	blt.n	800652e <cmdTimer+0xa>
 800656a:	4601      	mov	r1, r0
 800656c:	462a      	mov	r2, r5
 800656e:	4620      	mov	r0, r4
 8006570:	f7ff fc54 	bl	8005e1c <setConfigTimer>
 8006574:	4620      	mov	r0, r4
 8006576:	f7ff ff9d 	bl	80064b4 <printConfigTimer>
 800657a:	2001      	movs	r0, #1
 800657c:	e7d8      	b.n	8006530 <cmdTimer+0xc>
 800657e:	bf00      	nop
 8006580:	08009493 	.word	0x08009493

08006584 <cmdShow>:
 8006584:	b538      	push	{r3, r4, r5, lr}
 8006586:	493b      	ldr	r1, [pc, #236]	; (8006674 <cmdShow+0xf0>)
 8006588:	f001 f84e 	bl	8007628 <strtok>
 800658c:	4605      	mov	r5, r0
 800658e:	b908      	cbnz	r0, 8006594 <cmdShow+0x10>
 8006590:	2000      	movs	r0, #0
 8006592:	bd38      	pop	{r3, r4, r5, pc}
 8006594:	4938      	ldr	r1, [pc, #224]	; (8006678 <cmdShow+0xf4>)
 8006596:	f7f9 fddb 	bl	8000150 <strcmp>
 800659a:	4604      	mov	r4, r0
 800659c:	b9a0      	cbnz	r0, 80065c8 <cmdShow+0x44>
 800659e:	4837      	ldr	r0, [pc, #220]	; (800667c <cmdShow+0xf8>)
 80065a0:	f7ff fcea 	bl	8005f78 <print>
 80065a4:	4625      	mov	r5, r4
 80065a6:	4628      	mov	r0, r5
 80065a8:	3501      	adds	r5, #1
 80065aa:	f7ff fe7d 	bl	80062a8 <printConfigInput>
 80065ae:	2d20      	cmp	r5, #32
 80065b0:	d1f9      	bne.n	80065a6 <cmdShow+0x22>
 80065b2:	4833      	ldr	r0, [pc, #204]	; (8006680 <cmdShow+0xfc>)
 80065b4:	f7ff fce0 	bl	8005f78 <print>
 80065b8:	4620      	mov	r0, r4
 80065ba:	3401      	adds	r4, #1
 80065bc:	f7ff ff7a 	bl	80064b4 <printConfigTimer>
 80065c0:	2c20      	cmp	r4, #32
 80065c2:	d1f9      	bne.n	80065b8 <cmdShow+0x34>
 80065c4:	2001      	movs	r0, #1
 80065c6:	e7e4      	b.n	8006592 <cmdShow+0xe>
 80065c8:	4628      	mov	r0, r5
 80065ca:	492e      	ldr	r1, [pc, #184]	; (8006684 <cmdShow+0x100>)
 80065cc:	f7f9 fdc0 	bl	8000150 <strcmp>
 80065d0:	b150      	cbz	r0, 80065e8 <cmdShow+0x64>
 80065d2:	4628      	mov	r0, r5
 80065d4:	492c      	ldr	r1, [pc, #176]	; (8006688 <cmdShow+0x104>)
 80065d6:	f7f9 fdbb 	bl	8000150 <strcmp>
 80065da:	b128      	cbz	r0, 80065e8 <cmdShow+0x64>
 80065dc:	4628      	mov	r0, r5
 80065de:	492b      	ldr	r1, [pc, #172]	; (800668c <cmdShow+0x108>)
 80065e0:	f7f9 fdb6 	bl	8000150 <strcmp>
 80065e4:	2800      	cmp	r0, #0
 80065e6:	d1d3      	bne.n	8006590 <cmdShow+0xc>
 80065e8:	4922      	ldr	r1, [pc, #136]	; (8006674 <cmdShow+0xf0>)
 80065ea:	2000      	movs	r0, #0
 80065ec:	782c      	ldrb	r4, [r5, #0]
 80065ee:	f001 f81b 	bl	8007628 <strtok>
 80065f2:	f7ff fd5b 	bl	80060ac <convertToInt>
 80065f6:	2900      	cmp	r1, #0
 80065f8:	da1d      	bge.n	8006636 <cmdShow+0xb2>
 80065fa:	2c6f      	cmp	r4, #111	; 0x6f
 80065fc:	d013      	beq.n	8006626 <cmdShow+0xa2>
 80065fe:	2c74      	cmp	r4, #116	; 0x74
 8006600:	d009      	beq.n	8006616 <cmdShow+0x92>
 8006602:	2c69      	cmp	r4, #105	; 0x69
 8006604:	d1de      	bne.n	80065c4 <cmdShow+0x40>
 8006606:	2400      	movs	r4, #0
 8006608:	4620      	mov	r0, r4
 800660a:	3401      	adds	r4, #1
 800660c:	f7ff fe4c 	bl	80062a8 <printConfigInput>
 8006610:	2c20      	cmp	r4, #32
 8006612:	d1f9      	bne.n	8006608 <cmdShow+0x84>
 8006614:	e7d6      	b.n	80065c4 <cmdShow+0x40>
 8006616:	2400      	movs	r4, #0
 8006618:	4620      	mov	r0, r4
 800661a:	3401      	adds	r4, #1
 800661c:	f7ff ff4a 	bl	80064b4 <printConfigTimer>
 8006620:	2c20      	cmp	r4, #32
 8006622:	d1f9      	bne.n	8006618 <cmdShow+0x94>
 8006624:	e7ce      	b.n	80065c4 <cmdShow+0x40>
 8006626:	2400      	movs	r4, #0
 8006628:	4620      	mov	r0, r4
 800662a:	3401      	adds	r4, #1
 800662c:	f7ff fdb0 	bl	8006190 <printOutputState>
 8006630:	2c20      	cmp	r4, #32
 8006632:	d1f9      	bne.n	8006628 <cmdShow+0xa4>
 8006634:	e7c6      	b.n	80065c4 <cmdShow+0x40>
 8006636:	2820      	cmp	r0, #32
 8006638:	f171 0300 	sbcs.w	r3, r1, #0
 800663c:	db0a      	blt.n	8006654 <cmdShow+0xd0>
 800663e:	f1a4 0369 	sub.w	r3, r4, #105	; 0x69
 8006642:	b2db      	uxtb	r3, r3
 8006644:	2b0b      	cmp	r3, #11
 8006646:	d8bd      	bhi.n	80065c4 <cmdShow+0x40>
 8006648:	f640 0241 	movw	r2, #2113	; 0x841
 800664c:	fa22 f303 	lsr.w	r3, r2, r3
 8006650:	07db      	lsls	r3, r3, #31
 8006652:	d49d      	bmi.n	8006590 <cmdShow+0xc>
 8006654:	2c6f      	cmp	r4, #111	; 0x6f
 8006656:	d009      	beq.n	800666c <cmdShow+0xe8>
 8006658:	2c74      	cmp	r4, #116	; 0x74
 800665a:	d004      	beq.n	8006666 <cmdShow+0xe2>
 800665c:	2c69      	cmp	r4, #105	; 0x69
 800665e:	d1b1      	bne.n	80065c4 <cmdShow+0x40>
 8006660:	f7ff fe22 	bl	80062a8 <printConfigInput>
 8006664:	e7ae      	b.n	80065c4 <cmdShow+0x40>
 8006666:	f7ff ff25 	bl	80064b4 <printConfigTimer>
 800666a:	e7ab      	b.n	80065c4 <cmdShow+0x40>
 800666c:	f7ff fd90 	bl	8006190 <printOutputState>
 8006670:	e7a8      	b.n	80065c4 <cmdShow+0x40>
 8006672:	bf00      	nop
 8006674:	08009493 	.word	0x08009493
 8006678:	080094d4 	.word	0x080094d4
 800667c:	080094db 	.word	0x080094db
 8006680:	080094e4 	.word	0x080094e4
 8006684:	080094ed 	.word	0x080094ed
 8006688:	080094c4 	.word	0x080094c4
 800668c:	08009828 	.word	0x08009828

08006690 <putBufPtr>:
 8006690:	4b02      	ldr	r3, [pc, #8]	; (800669c <putBufPtr+0xc>)
 8006692:	6018      	str	r0, [r3, #0]
 8006694:	4b02      	ldr	r3, [pc, #8]	; (80066a0 <putBufPtr+0x10>)
 8006696:	6019      	str	r1, [r3, #0]
 8006698:	4770      	bx	lr
 800669a:	bf00      	nop
 800669c:	20002c38 	.word	0x20002c38
 80066a0:	20002c3c 	.word	0x20002c3c

080066a4 <consInit>:
 80066a4:	b508      	push	{r3, lr}
 80066a6:	4905      	ldr	r1, [pc, #20]	; (80066bc <consInit+0x18>)
 80066a8:	4805      	ldr	r0, [pc, #20]	; (80066c0 <consInit+0x1c>)
 80066aa:	f000 f82f 	bl	800670c <initCLI>
 80066ae:	e8bd 4008 	ldmia.w	sp!, {r3, lr}
 80066b2:	2100      	movs	r1, #0
 80066b4:	4a03      	ldr	r2, [pc, #12]	; (80066c4 <consInit+0x20>)
 80066b6:	4804      	ldr	r0, [pc, #16]	; (80066c8 <consInit+0x24>)
 80066b8:	f7fd bbaa 	b.w	8003e10 <osThreadNew>
 80066bc:	08005f79 	.word	0x08005f79
 80066c0:	200001a0 	.word	0x200001a0
 80066c4:	0800992c 	.word	0x0800992c
 80066c8:	08005fb5 	.word	0x08005fb5

080066cc <histMove.part.0>:
 80066cc:	4a0b      	ldr	r2, [pc, #44]	; (80066fc <histMove.part.0+0x30>)
 80066ce:	b570      	push	{r4, r5, r6, lr}
 80066d0:	480b      	ldr	r0, [pc, #44]	; (8006700 <histMove.part.0+0x34>)
 80066d2:	8815      	ldrh	r5, [r2, #0]
 80066d4:	4a0b      	ldr	r2, [pc, #44]	; (8006704 <histMove.part.0+0x38>)
 80066d6:	8803      	ldrh	r3, [r0, #0]
 80066d8:	8811      	ldrh	r1, [r2, #0]
 80066da:	4c0b      	ldr	r4, [pc, #44]	; (8006708 <histMove.part.0+0x3c>)
 80066dc:	3301      	adds	r3, #1
 80066de:	1e4e      	subs	r6, r1, #1
 80066e0:	42ab      	cmp	r3, r5
 80066e2:	da08      	bge.n	80066f6 <histMove.part.0+0x2a>
 80066e4:	18ca      	adds	r2, r1, r3
 80066e6:	b2d2      	uxtb	r2, r2
 80066e8:	5ca2      	ldrb	r2, [r4, r2]
 80066ea:	b12a      	cbz	r2, 80066f8 <histMove.part.0+0x2c>
 80066ec:	18f2      	adds	r2, r6, r3
 80066ee:	b2d2      	uxtb	r2, r2
 80066f0:	5ca2      	ldrb	r2, [r4, r2]
 80066f2:	b90a      	cbnz	r2, 80066f8 <histMove.part.0+0x2c>
 80066f4:	8003      	strh	r3, [r0, #0]
 80066f6:	bd70      	pop	{r4, r5, r6, pc}
 80066f8:	3301      	adds	r3, #1
 80066fa:	e7f1      	b.n	80066e0 <histMove.part.0+0x14>
 80066fc:	20002d4c 	.word	0x20002d4c
 8006700:	20002d48 	.word	0x20002d48
 8006704:	20002d4a 	.word	0x20002d4a
 8006708:	20002c48 	.word	0x20002c48

0800670c <initCLI>:
 800670c:	4b02      	ldr	r3, [pc, #8]	; (8006718 <initCLI+0xc>)
 800670e:	6018      	str	r0, [r3, #0]
 8006710:	4b02      	ldr	r3, [pc, #8]	; (800671c <initCLI+0x10>)
 8006712:	6019      	str	r1, [r3, #0]
 8006714:	4770      	bx	lr
 8006716:	bf00      	nop
 8006718:	20002c44 	.word	0x20002c44
 800671c:	20002dd8 	.word	0x20002dd8

08006720 <printCh>:
 8006720:	b507      	push	{r0, r1, r2, lr}
 8006722:	4b07      	ldr	r3, [pc, #28]	; (8006740 <printCh+0x20>)
 8006724:	781b      	ldrb	r3, [r3, #0]
 8006726:	b143      	cbz	r3, 800673a <printCh+0x1a>
 8006728:	2300      	movs	r3, #0
 800672a:	f8ad 3004 	strh.w	r3, [sp, #4]
 800672e:	4b05      	ldr	r3, [pc, #20]	; (8006744 <printCh+0x24>)
 8006730:	f88d 0004 	strb.w	r0, [sp, #4]
 8006734:	681b      	ldr	r3, [r3, #0]
 8006736:	a801      	add	r0, sp, #4
 8006738:	4798      	blx	r3
 800673a:	b003      	add	sp, #12
 800673c:	f85d fb04 	ldr.w	pc, [sp], #4
 8006740:	20002de4 	.word	0x20002de4
 8006744:	20002dd8 	.word	0x20002dd8

08006748 <redrawLineAfterCursor>:
 8006748:	b510      	push	{r4, lr}
 800674a:	4c09      	ldr	r4, [pc, #36]	; (8006770 <redrawLineAfterCursor+0x28>)
 800674c:	4809      	ldr	r0, [pc, #36]	; (8006774 <redrawLineAfterCursor+0x2c>)
 800674e:	6823      	ldr	r3, [r4, #0]
 8006750:	4798      	blx	r3
 8006752:	6823      	ldr	r3, [r4, #0]
 8006754:	4808      	ldr	r0, [pc, #32]	; (8006778 <redrawLineAfterCursor+0x30>)
 8006756:	4798      	blx	r3
 8006758:	4b08      	ldr	r3, [pc, #32]	; (800677c <redrawLineAfterCursor+0x34>)
 800675a:	4809      	ldr	r0, [pc, #36]	; (8006780 <redrawLineAfterCursor+0x38>)
 800675c:	781a      	ldrb	r2, [r3, #0]
 800675e:	6823      	ldr	r3, [r4, #0]
 8006760:	4410      	add	r0, r2
 8006762:	4798      	blx	r3
 8006764:	6823      	ldr	r3, [r4, #0]
 8006766:	4807      	ldr	r0, [pc, #28]	; (8006784 <redrawLineAfterCursor+0x3c>)
 8006768:	e8bd 4010 	ldmia.w	sp!, {r4, lr}
 800676c:	4718      	bx	r3
 800676e:	bf00      	nop
 8006770:	20002dd8 	.word	0x20002dd8
 8006774:	08009950 	.word	0x08009950
 8006778:	08009955 	.word	0x08009955
 800677c:	20002dcf 	.word	0x20002dcf
 8006780:	20002d4e 	.word	0x20002d4e
 8006784:	0800995f 	.word	0x0800995f

08006788 <redrawCursor>:
 8006788:	2300      	movs	r3, #0
 800678a:	b507      	push	{r0, r1, r2, lr}
 800678c:	e9cd 3300 	strd	r3, r3, [sp]
 8006790:	4b07      	ldr	r3, [pc, #28]	; (80067b0 <redrawCursor+0x28>)
 8006792:	2107      	movs	r1, #7
 8006794:	781b      	ldrb	r3, [r3, #0]
 8006796:	4a07      	ldr	r2, [pc, #28]	; (80067b4 <redrawCursor+0x2c>)
 8006798:	4668      	mov	r0, sp
 800679a:	3308      	adds	r3, #8
 800679c:	f000 fe6c 	bl	8007478 <sniprintf>
 80067a0:	4b05      	ldr	r3, [pc, #20]	; (80067b8 <redrawCursor+0x30>)
 80067a2:	4668      	mov	r0, sp
 80067a4:	681b      	ldr	r3, [r3, #0]
 80067a6:	4798      	blx	r3
 80067a8:	b003      	add	sp, #12
 80067aa:	f85d fb04 	ldr.w	pc, [sp], #4
 80067ae:	bf00      	nop
 80067b0:	20002dcf 	.word	0x20002dcf
 80067b4:	08009969 	.word	0x08009969
 80067b8:	20002dd8 	.word	0x20002dd8

080067bc <histClean>:
 80067bc:	e92d 47f0 	stmdb	sp!, {r4, r5, r6, r7, r8, r9, sl, lr}
 80067c0:	2700      	movs	r7, #0
 80067c2:	4d15      	ldr	r5, [pc, #84]	; (8006818 <histClean+0x5c>)
 80067c4:	4e15      	ldr	r6, [pc, #84]	; (800681c <histClean+0x60>)
 80067c6:	8829      	ldrh	r1, [r5, #0]
 80067c8:	8834      	ldrh	r4, [r6, #0]
 80067ca:	f8df c054 	ldr.w	ip, [pc, #84]	; 8006820 <histClean+0x64>
 80067ce:	eb00 0901 	add.w	r9, r0, r1
 80067d2:	e016      	b.n	8006802 <histClean+0x46>
 80067d4:	f102 0e01 	add.w	lr, r2, #1
 80067d8:	fa5f f88e 	uxtb.w	r8, lr
 80067dc:	f81c a008 	ldrb.w	sl, [ip, r8]
 80067e0:	f1ba 0f00 	cmp.w	sl, #0
 80067e4:	d008      	beq.n	80067f8 <histClean+0x3c>
 80067e6:	b2d2      	uxtb	r2, r2
 80067e8:	f81c 2002 	ldrb.w	r2, [ip, r2]
 80067ec:	b922      	cbnz	r2, 80067f8 <histClean+0x3c>
 80067ee:	1acb      	subs	r3, r1, r3
 80067f0:	4644      	mov	r4, r8
 80067f2:	2701      	movs	r7, #1
 80067f4:	b299      	uxth	r1, r3
 80067f6:	e7ea      	b.n	80067ce <histClean+0x12>
 80067f8:	4672      	mov	r2, lr
 80067fa:	3301      	adds	r3, #1
 80067fc:	b29b      	uxth	r3, r3
 80067fe:	428b      	cmp	r3, r1
 8006800:	d3e8      	bcc.n	80067d4 <histClean+0x18>
 8006802:	f5b9 7f80 	cmp.w	r9, #256	; 0x100
 8006806:	dd02      	ble.n	800680e <histClean+0x52>
 8006808:	4622      	mov	r2, r4
 800680a:	2301      	movs	r3, #1
 800680c:	e7f7      	b.n	80067fe <histClean+0x42>
 800680e:	b10f      	cbz	r7, 8006814 <histClean+0x58>
 8006810:	8034      	strh	r4, [r6, #0]
 8006812:	8029      	strh	r1, [r5, #0]
 8006814:	e8bd 87f0 	ldmia.w	sp!, {r4, r5, r6, r7, r8, r9, sl, pc}
 8006818:	20002d4c 	.word	0x20002d4c
 800681c:	20002d4a 	.word	0x20002d4a
 8006820:	20002c48 	.word	0x20002c48

08006824 <histPutIn>:
 8006824:	b5f8      	push	{r3, r4, r5, r6, r7, lr}
 8006826:	4814      	ldr	r0, [pc, #80]	; (8006878 <histPutIn+0x54>)
 8006828:	f7f9 fc9c 	bl	8000164 <strlen>
 800682c:	1c45      	adds	r5, r0, #1
 800682e:	b1d8      	cbz	r0, 8006868 <histPutIn+0x44>
 8006830:	4c12      	ldr	r4, [pc, #72]	; (800687c <histPutIn+0x58>)
 8006832:	b2a8      	uxth	r0, r5
 8006834:	8822      	ldrh	r2, [r4, #0]
 8006836:	f5c2 7280 	rsb	r2, r2, #256	; 0x100
 800683a:	42aa      	cmp	r2, r5
 800683c:	da01      	bge.n	8006842 <histPutIn+0x1e>
 800683e:	f7ff ffbd 	bl	80067bc <histClean>
 8006842:	2100      	movs	r1, #0
 8006844:	4a0e      	ldr	r2, [pc, #56]	; (8006880 <histPutIn+0x5c>)
 8006846:	8823      	ldrh	r3, [r4, #0]
 8006848:	8816      	ldrh	r6, [r2, #0]
 800684a:	f8df c038 	ldr.w	ip, [pc, #56]	; 8006884 <histPutIn+0x60>
 800684e:	f8df e028 	ldr.w	lr, [pc, #40]	; 8006878 <histPutIn+0x54>
 8006852:	441e      	add	r6, r3
 8006854:	b28a      	uxth	r2, r1
 8006856:	42aa      	cmp	r2, r5
 8006858:	f101 0101 	add.w	r1, r1, #1
 800685c:	db05      	blt.n	800686a <histPutIn+0x46>
 800685e:	4a0a      	ldr	r2, [pc, #40]	; (8006888 <histPutIn+0x64>)
 8006860:	4403      	add	r3, r0
 8006862:	b29b      	uxth	r3, r3
 8006864:	8023      	strh	r3, [r4, #0]
 8006866:	8013      	strh	r3, [r2, #0]
 8006868:	bdf8      	pop	{r3, r4, r5, r6, r7, pc}
 800686a:	18b7      	adds	r7, r6, r2
 800686c:	f81e 2002 	ldrb.w	r2, [lr, r2]
 8006870:	b2ff      	uxtb	r7, r7
 8006872:	f80c 2007 	strb.w	r2, [ip, r7]
 8006876:	e7ed      	b.n	8006854 <histPutIn+0x30>
 8006878:	20002d4e 	.word	0x20002d4e
 800687c:	20002d4c 	.word	0x20002d4c
 8006880:	20002d4a 	.word	0x20002d4a
 8006884:	20002c48 	.word	0x20002c48
 8006888:	20002d48 	.word	0x20002d48

0800688c <histGetFrom>:
 800688c:	b538      	push	{r3, r4, r5, lr}
 800688e:	4b0f      	ldr	r3, [pc, #60]	; (80068cc <histGetFrom+0x40>)
 8006890:	4d0f      	ldr	r5, [pc, #60]	; (80068d0 <histGetFrom+0x44>)
 8006892:	8819      	ldrh	r1, [r3, #0]
 8006894:	4b0f      	ldr	r3, [pc, #60]	; (80068d4 <histGetFrom+0x48>)
 8006896:	4c10      	ldr	r4, [pc, #64]	; (80068d8 <histGetFrom+0x4c>)
 8006898:	881b      	ldrh	r3, [r3, #0]
 800689a:	4419      	add	r1, r3
 800689c:	2300      	movs	r3, #0
 800689e:	b298      	uxth	r0, r3
 80068a0:	180a      	adds	r2, r1, r0
 80068a2:	b2d2      	uxtb	r2, r2
 80068a4:	5caa      	ldrb	r2, [r5, r2]
 80068a6:	5422      	strb	r2, [r4, r0]
 80068a8:	4618      	mov	r0, r3
 80068aa:	3301      	adds	r3, #1
 80068ac:	2a00      	cmp	r2, #0
 80068ae:	d1f6      	bne.n	800689e <histGetFrom+0x12>
 80068b0:	4d0a      	ldr	r5, [pc, #40]	; (80068dc <histGetFrom+0x50>)
 80068b2:	4c0b      	ldr	r4, [pc, #44]	; (80068e0 <histGetFrom+0x54>)
 80068b4:	7028      	strb	r0, [r5, #0]
 80068b6:	7022      	strb	r2, [r4, #0]
 80068b8:	f7ff ff66 	bl	8006788 <redrawCursor>
 80068bc:	f7ff ff44 	bl	8006748 <redrawLineAfterCursor>
 80068c0:	782b      	ldrb	r3, [r5, #0]
 80068c2:	7023      	strb	r3, [r4, #0]
 80068c4:	e8bd 4038 	ldmia.w	sp!, {r3, r4, r5, lr}
 80068c8:	f7ff bf5e 	b.w	8006788 <redrawCursor>
 80068cc:	20002d4a 	.word	0x20002d4a
 80068d0:	20002c48 	.word	0x20002c48
 80068d4:	20002d48 	.word	0x20002d48
 80068d8:	20002d4e 	.word	0x20002d4e
 80068dc:	20002dd0 	.word	0x20002dd0
 80068e0:	20002dcf 	.word	0x20002dcf

080068e4 <histMove>:
 80068e4:	b470      	push	{r4, r5, r6}
 80068e6:	b110      	cbz	r0, 80068ee <histMove+0xa>
 80068e8:	bc70      	pop	{r4, r5, r6}
 80068ea:	f7ff beef 	b.w	80066cc <histMove.part.0>
 80068ee:	4c0d      	ldr	r4, [pc, #52]	; (8006924 <histMove+0x40>)
 80068f0:	4a0d      	ldr	r2, [pc, #52]	; (8006928 <histMove+0x44>)
 80068f2:	8823      	ldrh	r3, [r4, #0]
 80068f4:	8810      	ldrh	r0, [r2, #0]
 80068f6:	4d0d      	ldr	r5, [pc, #52]	; (800692c <histMove+0x48>)
 80068f8:	3b01      	subs	r3, #1
 80068fa:	1e46      	subs	r6, r0, #1
 80068fc:	1c5a      	adds	r2, r3, #1
 80068fe:	d00c      	beq.n	800691a <histMove+0x36>
 8006900:	18c2      	adds	r2, r0, r3
 8006902:	b2d2      	uxtb	r2, r2
 8006904:	5caa      	ldrb	r2, [r5, r2]
 8006906:	b152      	cbz	r2, 800691e <histMove+0x3a>
 8006908:	18f2      	adds	r2, r6, r3
 800690a:	4251      	negs	r1, r2
 800690c:	b2c9      	uxtb	r1, r1
 800690e:	b2d2      	uxtb	r2, r2
 8006910:	bf58      	it	pl
 8006912:	424a      	negpl	r2, r1
 8006914:	5caa      	ldrb	r2, [r5, r2]
 8006916:	b912      	cbnz	r2, 800691e <histMove+0x3a>
 8006918:	8023      	strh	r3, [r4, #0]
 800691a:	bc70      	pop	{r4, r5, r6}
 800691c:	4770      	bx	lr
 800691e:	3b01      	subs	r3, #1
 8006920:	e7ec      	b.n	80068fc <histMove+0x18>
 8006922:	bf00      	nop
 8006924:	20002d48 	.word	0x20002d48
 8006928:	20002d4a 	.word	0x20002d4a
 800692c:	20002c48 	.word	0x20002c48

08006930 <putInLineCh>:
 8006930:	e92d 43f8 	stmdb	sp!, {r3, r4, r5, r6, r7, r8, r9, lr}
 8006934:	f8df 9060 	ldr.w	r9, [pc, #96]	; 8006998 <putInLineCh+0x68>
 8006938:	4b18      	ldr	r3, [pc, #96]	; (800699c <putInLineCh+0x6c>)
 800693a:	f899 4000 	ldrb.w	r4, [r9]
 800693e:	681b      	ldr	r3, [r3, #0]
 8006940:	4607      	mov	r7, r0
 8006942:	429c      	cmp	r4, r3
 8006944:	da22      	bge.n	800698c <putInLineCh+0x5c>
 8006946:	2300      	movs	r3, #0
 8006948:	f8df 8054 	ldr.w	r8, [pc, #84]	; 80069a0 <putInLineCh+0x70>
 800694c:	4e15      	ldr	r6, [pc, #84]	; (80069a4 <putInLineCh+0x74>)
 800694e:	f898 5000 	ldrb.w	r5, [r8]
 8006952:	5533      	strb	r3, [r6, r4]
 8006954:	42ac      	cmp	r4, r5
 8006956:	d905      	bls.n	8006964 <putInLineCh+0x34>
 8006958:	1c68      	adds	r0, r5, #1
 800695a:	1b62      	subs	r2, r4, r5
 800695c:	1971      	adds	r1, r6, r5
 800695e:	4430      	add	r0, r6
 8006960:	f000 fd68 	bl	8007434 <memmove>
 8006964:	2300      	movs	r3, #0
 8006966:	3401      	adds	r4, #1
 8006968:	b2e4      	uxtb	r4, r4
 800696a:	42a5      	cmp	r5, r4
 800696c:	5577      	strb	r7, [r6, r5]
 800696e:	f889 4000 	strb.w	r4, [r9]
 8006972:	5533      	strb	r3, [r6, r4]
 8006974:	d20c      	bcs.n	8006990 <putInLineCh+0x60>
 8006976:	f7ff fee7 	bl	8006748 <redrawLineAfterCursor>
 800697a:	4b0b      	ldr	r3, [pc, #44]	; (80069a8 <putInLineCh+0x78>)
 800697c:	480b      	ldr	r0, [pc, #44]	; (80069ac <putInLineCh+0x7c>)
 800697e:	681b      	ldr	r3, [r3, #0]
 8006980:	4798      	blx	r3
 8006982:	f898 3000 	ldrb.w	r3, [r8]
 8006986:	3301      	adds	r3, #1
 8006988:	f888 3000 	strb.w	r3, [r8]
 800698c:	e8bd 83f8 	ldmia.w	sp!, {r3, r4, r5, r6, r7, r8, r9, pc}
 8006990:	4638      	mov	r0, r7
 8006992:	f7ff fec5 	bl	8006720 <printCh>
 8006996:	e7f4      	b.n	8006982 <putInLineCh+0x52>
 8006998:	20002dd0 	.word	0x20002dd0
 800699c:	20002dd4 	.word	0x20002dd4
 80069a0:	20002dcf 	.word	0x20002dcf
 80069a4:	20002d4e 	.word	0x20002d4e
 80069a8:	20002dd8 	.word	0x20002dd8
 80069ac:	0800996f 	.word	0x0800996f

080069b0 <delInLine>:
 80069b0:	b570      	push	{r4, r5, r6, lr}
 80069b2:	4d11      	ldr	r5, [pc, #68]	; (80069f8 <delInLine+0x48>)
 80069b4:	782a      	ldrb	r2, [r5, #0]
 80069b6:	b1ea      	cbz	r2, 80069f4 <delInLine+0x44>
 80069b8:	4e10      	ldr	r6, [pc, #64]	; (80069fc <delInLine+0x4c>)
 80069ba:	7833      	ldrb	r3, [r6, #0]
 80069bc:	b1c0      	cbz	r0, 80069f0 <delInLine+0x40>
 80069be:	b12b      	cbz	r3, 80069cc <delInLine+0x1c>
 80069c0:	3b01      	subs	r3, #1
 80069c2:	7033      	strb	r3, [r6, #0]
 80069c4:	4b0e      	ldr	r3, [pc, #56]	; (8006a00 <delInLine+0x50>)
 80069c6:	480f      	ldr	r0, [pc, #60]	; (8006a04 <delInLine+0x54>)
 80069c8:	681b      	ldr	r3, [r3, #0]
 80069ca:	4798      	blx	r3
 80069cc:	7830      	ldrb	r0, [r6, #0]
 80069ce:	782c      	ldrb	r4, [r5, #0]
 80069d0:	4e0d      	ldr	r6, [pc, #52]	; (8006a08 <delInLine+0x58>)
 80069d2:	1c41      	adds	r1, r0, #1
 80069d4:	1a22      	subs	r2, r4, r0
 80069d6:	4431      	add	r1, r6
 80069d8:	4430      	add	r0, r6
 80069da:	f000 fd2b 	bl	8007434 <memmove>
 80069de:	2300      	movs	r3, #0
 80069e0:	3c01      	subs	r4, #1
 80069e2:	b2e4      	uxtb	r4, r4
 80069e4:	5533      	strb	r3, [r6, r4]
 80069e6:	702c      	strb	r4, [r5, #0]
 80069e8:	e8bd 4070 	ldmia.w	sp!, {r4, r5, r6, lr}
 80069ec:	f7ff beac 	b.w	8006748 <redrawLineAfterCursor>
 80069f0:	429a      	cmp	r2, r3
 80069f2:	d8eb      	bhi.n	80069cc <delInLine+0x1c>
 80069f4:	bd70      	pop	{r4, r5, r6, pc}
 80069f6:	bf00      	nop
 80069f8:	20002dd0 	.word	0x20002dd0
 80069fc:	20002dcf 	.word	0x20002dcf
 8006a00:	20002dd8 	.word	0x20002dd8
 8006a04:	08009974 	.word	0x08009974
 8006a08:	20002d4e 	.word	0x20002d4e

08006a0c <closeTerm>:
 8006a0c:	2200      	movs	r2, #0
 8006a0e:	4b03      	ldr	r3, [pc, #12]	; (8006a1c <closeTerm+0x10>)
 8006a10:	4803      	ldr	r0, [pc, #12]	; (8006a20 <closeTerm+0x14>)
 8006a12:	701a      	strb	r2, [r3, #0]
 8006a14:	4b03      	ldr	r3, [pc, #12]	; (8006a24 <closeTerm+0x18>)
 8006a16:	681b      	ldr	r3, [r3, #0]
 8006a18:	4718      	bx	r3
 8006a1a:	bf00      	nop
 8006a1c:	20002de4 	.word	0x20002de4
 8006a20:	08009979 	.word	0x08009979
 8006a24:	20002dd8 	.word	0x20002dd8

08006a28 <processCmds>:
 8006a28:	e92d 41f0 	stmdb	sp!, {r4, r5, r6, r7, r8, lr}
 8006a2c:	7803      	ldrb	r3, [r0, #0]
 8006a2e:	4606      	mov	r6, r0
 8006a30:	b1eb      	cbz	r3, 8006a6e <processCmds+0x46>
 8006a32:	4b10      	ldr	r3, [pc, #64]	; (8006a74 <processCmds+0x4c>)
 8006a34:	681f      	ldr	r7, [r3, #0]
 8006a36:	683c      	ldr	r4, [r7, #0]
 8006a38:	4620      	mov	r0, r4
 8006a3a:	b90c      	cbnz	r4, 8006a40 <processCmds+0x18>
 8006a3c:	e8bd 81f0 	ldmia.w	sp!, {r4, r5, r6, r7, r8, pc}
 8006a40:	f7f9 fb90 	bl	8000164 <strlen>
 8006a44:	4621      	mov	r1, r4
 8006a46:	4605      	mov	r5, r0
 8006a48:	4602      	mov	r2, r0
 8006a4a:	4630      	mov	r0, r6
 8006a4c:	f000 fdd7 	bl	80075fe <strncmp>
 8006a50:	b958      	cbnz	r0, 8006a6a <processCmds+0x42>
 8006a52:	5d73      	ldrb	r3, [r6, r5]
 8006a54:	2b20      	cmp	r3, #32
 8006a56:	d105      	bne.n	8006a64 <processCmds+0x3c>
 8006a58:	3501      	adds	r5, #1
 8006a5a:	68fb      	ldr	r3, [r7, #12]
 8006a5c:	1970      	adds	r0, r6, r5
 8006a5e:	e8bd 41f0 	ldmia.w	sp!, {r4, r5, r6, r7, r8, lr}
 8006a62:	4718      	bx	r3
 8006a64:	b90b      	cbnz	r3, 8006a6a <processCmds+0x42>
 8006a66:	68fb      	ldr	r3, [r7, #12]
 8006a68:	e7f9      	b.n	8006a5e <processCmds+0x36>
 8006a6a:	3710      	adds	r7, #16
 8006a6c:	e7e3      	b.n	8006a36 <processCmds+0xe>
 8006a6e:	2001      	movs	r0, #1
 8006a70:	e7e4      	b.n	8006a3c <processCmds+0x14>
 8006a72:	bf00      	nop
 8006a74:	20002c44 	.word	0x20002c44

08006a78 <toLower>:
 8006a78:	b510      	push	{r4, lr}
 8006a7a:	4c07      	ldr	r4, [pc, #28]	; (8006a98 <toLower+0x20>)
 8006a7c:	1e42      	subs	r2, r0, #1
 8006a7e:	f812 3f01 	ldrb.w	r3, [r2, #1]!
 8006a82:	b903      	cbnz	r3, 8006a86 <toLower+0xe>
 8006a84:	bd10      	pop	{r4, pc}
 8006a86:	5ce1      	ldrb	r1, [r4, r3]
 8006a88:	f001 0103 	and.w	r1, r1, #3
 8006a8c:	2901      	cmp	r1, #1
 8006a8e:	bf08      	it	eq
 8006a90:	3320      	addeq	r3, #32
 8006a92:	7013      	strb	r3, [r2, #0]
 8006a94:	e7f3      	b.n	8006a7e <toLower+0x6>
 8006a96:	bf00      	nop
 8006a98:	08009b25 	.word	0x08009b25

08006a9c <processNewLine>:
 8006a9c:	e92d 43f8 	stmdb	sp!, {r3, r4, r5, r6, r7, r8, r9, lr}
 8006aa0:	f8df 905c 	ldr.w	r9, [pc, #92]	; 8006b00 <processNewLine+0x64>
 8006aa4:	4d17      	ldr	r5, [pc, #92]	; (8006b04 <processNewLine+0x68>)
 8006aa6:	f899 6000 	ldrb.w	r6, [r9]
 8006aaa:	682b      	ldr	r3, [r5, #0]
 8006aac:	4c16      	ldr	r4, [pc, #88]	; (8006b08 <processNewLine+0x6c>)
 8006aae:	f8df 805c 	ldr.w	r8, [pc, #92]	; 8006b0c <processNewLine+0x70>
 8006ab2:	4f17      	ldr	r7, [pc, #92]	; (8006b10 <processNewLine+0x74>)
 8006ab4:	b96e      	cbnz	r6, 8006ad2 <processNewLine+0x36>
 8006ab6:	4817      	ldr	r0, [pc, #92]	; (8006b14 <processNewLine+0x78>)
 8006ab8:	4798      	blx	r3
 8006aba:	682b      	ldr	r3, [r5, #0]
 8006abc:	4816      	ldr	r0, [pc, #88]	; (8006b18 <processNewLine+0x7c>)
 8006abe:	4798      	blx	r3
 8006ac0:	2301      	movs	r3, #1
 8006ac2:	7026      	strb	r6, [r4, #0]
 8006ac4:	f889 3000 	strb.w	r3, [r9]
 8006ac8:	f888 6000 	strb.w	r6, [r8]
 8006acc:	703e      	strb	r6, [r7, #0]
 8006ace:	e8bd 83f8 	ldmia.w	sp!, {r3, r4, r5, r6, r7, r8, r9, pc}
 8006ad2:	4812      	ldr	r0, [pc, #72]	; (8006b1c <processNewLine+0x80>)
 8006ad4:	4798      	blx	r3
 8006ad6:	4620      	mov	r0, r4
 8006ad8:	f7ff ffce 	bl	8006a78 <toLower>
 8006adc:	f7ff fea2 	bl	8006824 <histPutIn>
 8006ae0:	4620      	mov	r0, r4
 8006ae2:	f7ff ffa1 	bl	8006a28 <processCmds>
 8006ae6:	b910      	cbnz	r0, 8006aee <processNewLine+0x52>
 8006ae8:	682b      	ldr	r3, [r5, #0]
 8006aea:	480d      	ldr	r0, [pc, #52]	; (8006b20 <processNewLine+0x84>)
 8006aec:	4798      	blx	r3
 8006aee:	682b      	ldr	r3, [r5, #0]
 8006af0:	480c      	ldr	r0, [pc, #48]	; (8006b24 <processNewLine+0x88>)
 8006af2:	4798      	blx	r3
 8006af4:	2300      	movs	r3, #0
 8006af6:	7023      	strb	r3, [r4, #0]
 8006af8:	f888 3000 	strb.w	r3, [r8]
 8006afc:	703b      	strb	r3, [r7, #0]
 8006afe:	e7e6      	b.n	8006ace <processNewLine+0x32>
 8006b00:	20002de4 	.word	0x20002de4
 8006b04:	20002dd8 	.word	0x20002dd8
 8006b08:	20002d4e 	.word	0x20002d4e
 8006b0c:	20002dd0 	.word	0x20002dd0
 8006b10:	20002dcf 	.word	0x20002dcf
 8006b14:	080099a3 	.word	0x080099a3
 8006b18:	080099c8 	.word	0x080099c8
 8006b1c:	080099a0 	.word	0x080099a0
 8006b20:	08009a32 	.word	0x08009a32
 8006b24:	08009a2a 	.word	0x08009a2a

08006b28 <moveLineCursor>:
 8006b28:	b5f8      	push	{r3, r4, r5, r6, r7, lr}
 8006b2a:	4a2c      	ldr	r2, [pc, #176]	; (8006bdc <moveLineCursor+0xb4>)
 8006b2c:	7813      	ldrb	r3, [r2, #0]
 8006b2e:	b368      	cbz	r0, 8006b8c <moveLineCursor+0x64>
 8006b30:	482b      	ldr	r0, [pc, #172]	; (8006be0 <moveLineCursor+0xb8>)
 8006b32:	7800      	ldrb	r0, [r0, #0]
 8006b34:	4298      	cmp	r0, r3
 8006b36:	d94f      	bls.n	8006bd8 <moveLineCursor+0xb0>
 8006b38:	3301      	adds	r3, #1
 8006b3a:	b2db      	uxtb	r3, r3
 8006b3c:	7013      	strb	r3, [r2, #0]
 8006b3e:	2900      	cmp	r1, #0
 8006b40:	d035      	beq.n	8006bae <moveLineCursor+0x86>
 8006b42:	2400      	movs	r4, #0
 8006b44:	4927      	ldr	r1, [pc, #156]	; (8006be4 <moveLineCursor+0xbc>)
 8006b46:	18ce      	adds	r6, r1, r3
 8006b48:	4298      	cmp	r0, r3
 8006b4a:	d10c      	bne.n	8006b66 <moveLineCursor+0x3e>
 8006b4c:	b104      	cbz	r4, 8006b50 <moveLineCursor+0x28>
 8006b4e:	7010      	strb	r0, [r2, #0]
 8006b50:	2400      	movs	r4, #0
 8006b52:	7813      	ldrb	r3, [r2, #0]
 8006b54:	4419      	add	r1, r3
 8006b56:	4298      	cmp	r0, r3
 8006b58:	d80f      	bhi.n	8006b7a <moveLineCursor+0x52>
 8006b5a:	b344      	cbz	r4, 8006bae <moveLineCursor+0x86>
 8006b5c:	7013      	strb	r3, [r2, #0]
 8006b5e:	e026      	b.n	8006bae <moveLineCursor+0x86>
 8006b60:	462b      	mov	r3, r5
 8006b62:	2401      	movs	r4, #1
 8006b64:	e7f0      	b.n	8006b48 <moveLineCursor+0x20>
 8006b66:	f816 7b01 	ldrb.w	r7, [r6], #1
 8006b6a:	1c5d      	adds	r5, r3, #1
 8006b6c:	2f20      	cmp	r7, #32
 8006b6e:	b2ed      	uxtb	r5, r5
 8006b70:	d1f6      	bne.n	8006b60 <moveLineCursor+0x38>
 8006b72:	2c00      	cmp	r4, #0
 8006b74:	d0ec      	beq.n	8006b50 <moveLineCursor+0x28>
 8006b76:	7013      	strb	r3, [r2, #0]
 8006b78:	e7ea      	b.n	8006b50 <moveLineCursor+0x28>
 8006b7a:	f811 6b01 	ldrb.w	r6, [r1], #1
 8006b7e:	1c5d      	adds	r5, r3, #1
 8006b80:	2e20      	cmp	r6, #32
 8006b82:	b2ed      	uxtb	r5, r5
 8006b84:	d1e9      	bne.n	8006b5a <moveLineCursor+0x32>
 8006b86:	462b      	mov	r3, r5
 8006b88:	2401      	movs	r4, #1
 8006b8a:	e7e4      	b.n	8006b56 <moveLineCursor+0x2e>
 8006b8c:	b193      	cbz	r3, 8006bb4 <moveLineCursor+0x8c>
 8006b8e:	3b01      	subs	r3, #1
 8006b90:	b2db      	uxtb	r3, r3
 8006b92:	7013      	strb	r3, [r2, #0]
 8006b94:	b159      	cbz	r1, 8006bae <moveLineCursor+0x86>
 8006b96:	4913      	ldr	r1, [pc, #76]	; (8006be4 <moveLineCursor+0xbc>)
 8006b98:	18cc      	adds	r4, r1, r3
 8006b9a:	b96b      	cbnz	r3, 8006bb8 <moveLineCursor+0x90>
 8006b9c:	b100      	cbz	r0, 8006ba0 <moveLineCursor+0x78>
 8006b9e:	7013      	strb	r3, [r2, #0]
 8006ba0:	7813      	ldrb	r3, [r2, #0]
 8006ba2:	1e58      	subs	r0, r3, #1
 8006ba4:	4401      	add	r1, r0
 8006ba6:	2000      	movs	r0, #0
 8006ba8:	b973      	cbnz	r3, 8006bc8 <moveLineCursor+0xa0>
 8006baa:	2800      	cmp	r0, #0
 8006bac:	d1d6      	bne.n	8006b5c <moveLineCursor+0x34>
 8006bae:	f7ff fdeb 	bl	8006788 <redrawCursor>
 8006bb2:	2301      	movs	r3, #1
 8006bb4:	4618      	mov	r0, r3
 8006bb6:	bdf8      	pop	{r3, r4, r5, r6, r7, pc}
 8006bb8:	f814 5901 	ldrb.w	r5, [r4], #-1
 8006bbc:	2d20      	cmp	r5, #32
 8006bbe:	d1ed      	bne.n	8006b9c <moveLineCursor+0x74>
 8006bc0:	3b01      	subs	r3, #1
 8006bc2:	2001      	movs	r0, #1
 8006bc4:	b2db      	uxtb	r3, r3
 8006bc6:	e7e8      	b.n	8006b9a <moveLineCursor+0x72>
 8006bc8:	f811 4901 	ldrb.w	r4, [r1], #-1
 8006bcc:	2c20      	cmp	r4, #32
 8006bce:	d0ec      	beq.n	8006baa <moveLineCursor+0x82>
 8006bd0:	3b01      	subs	r3, #1
 8006bd2:	2001      	movs	r0, #1
 8006bd4:	b2db      	uxtb	r3, r3
 8006bd6:	e7e7      	b.n	8006ba8 <moveLineCursor+0x80>
 8006bd8:	2300      	movs	r3, #0
 8006bda:	e7eb      	b.n	8006bb4 <moveLineCursor+0x8c>
 8006bdc:	20002dcf 	.word	0x20002dcf
 8006be0:	20002dd0 	.word	0x20002dd0
 8006be4:	20002d4e 	.word	0x20002d4e

08006be8 <processACMultiple>:
 8006be8:	4b28      	ldr	r3, [pc, #160]	; (8006c8c <processACMultiple+0xa4>)
 8006bea:	e92d 4ff7 	stmdb	sp!, {r0, r1, r2, r4, r5, r6, r7, r8, r9, sl, fp, lr}
 8006bee:	4d28      	ldr	r5, [pc, #160]	; (8006c90 <processACMultiple+0xa8>)
 8006bf0:	681c      	ldr	r4, [r3, #0]
 8006bf2:	4606      	mov	r6, r0
 8006bf4:	682b      	ldr	r3, [r5, #0]
 8006bf6:	4827      	ldr	r0, [pc, #156]	; (8006c94 <processACMultiple+0xac>)
 8006bf8:	f104 0810 	add.w	r8, r4, #16
 8006bfc:	4798      	blx	r3
 8006bfe:	2400      	movs	r4, #0
 8006c00:	f8df 9094 	ldr.w	r9, [pc, #148]	; 8006c98 <processACMultiple+0xb0>
 8006c04:	f8df a094 	ldr.w	sl, [pc, #148]	; 8006c9c <processACMultiple+0xb4>
 8006c08:	f8df b094 	ldr.w	fp, [pc, #148]	; 8006ca0 <processACMultiple+0xb8>
 8006c0c:	f858 7c10 	ldr.w	r7, [r8, #-16]
 8006c10:	b9df      	cbnz	r7, 8006c4a <processACMultiple+0x62>
 8006c12:	682b      	ldr	r3, [r5, #0]
 8006c14:	4823      	ldr	r0, [pc, #140]	; (8006ca4 <processACMultiple+0xbc>)
 8006c16:	4798      	blx	r3
 8006c18:	682b      	ldr	r3, [r5, #0]
 8006c1a:	4823      	ldr	r0, [pc, #140]	; (8006ca8 <processACMultiple+0xc0>)
 8006c1c:	4798      	blx	r3
 8006c1e:	682b      	ldr	r3, [r5, #0]
 8006c20:	481e      	ldr	r0, [pc, #120]	; (8006c9c <processACMultiple+0xb4>)
 8006c22:	4798      	blx	r3
 8006c24:	f899 0000 	ldrb.w	r0, [r9]
 8006c28:	4a1c      	ldr	r2, [pc, #112]	; (8006c9c <processACMultiple+0xb4>)
 8006c2a:	4603      	mov	r3, r0
 8006c2c:	429c      	cmp	r4, r3
 8006c2e:	dc29      	bgt.n	8006c84 <processACMultiple+0x9c>
 8006c30:	2300      	movs	r3, #0
 8006c32:	4410      	add	r0, r2
 8006c34:	5513      	strb	r3, [r2, r4]
 8006c36:	682b      	ldr	r3, [r5, #0]
 8006c38:	4798      	blx	r3
 8006c3a:	4b1c      	ldr	r3, [pc, #112]	; (8006cac <processACMultiple+0xc4>)
 8006c3c:	b2e4      	uxtb	r4, r4
 8006c3e:	f889 4000 	strb.w	r4, [r9]
 8006c42:	701c      	strb	r4, [r3, #0]
 8006c44:	b003      	add	sp, #12
 8006c46:	e8bd 8ff0 	ldmia.w	sp!, {r4, r5, r6, r7, r8, r9, sl, fp, pc}
 8006c4a:	f899 2000 	ldrb.w	r2, [r9]
 8006c4e:	4651      	mov	r1, sl
 8006c50:	4638      	mov	r0, r7
 8006c52:	9201      	str	r2, [sp, #4]
 8006c54:	f000 fcd3 	bl	80075fe <strncmp>
 8006c58:	b968      	cbnz	r0, 8006c76 <processACMultiple+0x8e>
 8006c5a:	42b7      	cmp	r7, r6
 8006c5c:	d005      	beq.n	8006c6a <processACMultiple+0x82>
 8006c5e:	9a01      	ldr	r2, [sp, #4]
 8006c60:	4614      	mov	r4, r2
 8006c62:	5d32      	ldrb	r2, [r6, r4]
 8006c64:	b10a      	cbz	r2, 8006c6a <processACMultiple+0x82>
 8006c66:	5d3b      	ldrb	r3, [r7, r4]
 8006c68:	b943      	cbnz	r3, 8006c7c <processACMultiple+0x94>
 8006c6a:	4638      	mov	r0, r7
 8006c6c:	682b      	ldr	r3, [r5, #0]
 8006c6e:	4798      	blx	r3
 8006c70:	4658      	mov	r0, fp
 8006c72:	682b      	ldr	r3, [r5, #0]
 8006c74:	4798      	blx	r3
 8006c76:	f108 0810 	add.w	r8, r8, #16
 8006c7a:	e7c7      	b.n	8006c0c <processACMultiple+0x24>
 8006c7c:	429a      	cmp	r2, r3
 8006c7e:	d1f4      	bne.n	8006c6a <processACMultiple+0x82>
 8006c80:	3401      	adds	r4, #1
 8006c82:	e7ee      	b.n	8006c62 <processACMultiple+0x7a>
 8006c84:	5cf1      	ldrb	r1, [r6, r3]
 8006c86:	54d1      	strb	r1, [r2, r3]
 8006c88:	3301      	adds	r3, #1
 8006c8a:	e7cf      	b.n	8006c2c <processACMultiple+0x44>
 8006c8c:	20002c44 	.word	0x20002c44
 8006c90:	20002dd8 	.word	0x20002dd8
 8006c94:	08009a74 	.word	0x08009a74
 8006c98:	20002dd0 	.word	0x20002dd0
 8006c9c:	20002d4e 	.word	0x20002d4e
 8006ca0:	08009493 	.word	0x08009493
 8006ca4:	080099a0 	.word	0x080099a0
 8006ca8:	08009a2a 	.word	0x08009a2a
 8006cac:	20002dcf 	.word	0x20002dcf

08006cb0 <processAutoComplete>:
 8006cb0:	e92d 47f0 	stmdb	sp!, {r4, r5, r6, r7, r8, r9, sl, lr}
 8006cb4:	4f1b      	ldr	r7, [pc, #108]	; (8006d24 <processAutoComplete+0x74>)
 8006cb6:	f897 8000 	ldrb.w	r8, [r7]
 8006cba:	f1b8 0f00 	cmp.w	r8, #0
 8006cbe:	d01e      	beq.n	8006cfe <processAutoComplete+0x4e>
 8006cc0:	2600      	movs	r6, #0
 8006cc2:	4634      	mov	r4, r6
 8006cc4:	4b18      	ldr	r3, [pc, #96]	; (8006d28 <processAutoComplete+0x78>)
 8006cc6:	f8df a064 	ldr.w	sl, [pc, #100]	; 8006d2c <processAutoComplete+0x7c>
 8006cca:	681d      	ldr	r5, [r3, #0]
 8006ccc:	3510      	adds	r5, #16
 8006cce:	f855 9c10 	ldr.w	r9, [r5, #-16]
 8006cd2:	f1b9 0f00 	cmp.w	r9, #0
 8006cd6:	d114      	bne.n	8006d02 <processAutoComplete+0x52>
 8006cd8:	2e01      	cmp	r6, #1
 8006cda:	d11c      	bne.n	8006d16 <processAutoComplete+0x66>
 8006cdc:	4444      	add	r4, r8
 8006cde:	227f      	movs	r2, #127	; 0x7f
 8006ce0:	4621      	mov	r1, r4
 8006ce2:	4812      	ldr	r0, [pc, #72]	; (8006d2c <processAutoComplete+0x7c>)
 8006ce4:	f000 fc78 	bl	80075d8 <strncat>
 8006ce8:	4b11      	ldr	r3, [pc, #68]	; (8006d30 <processAutoComplete+0x80>)
 8006cea:	4620      	mov	r0, r4
 8006cec:	681b      	ldr	r3, [r3, #0]
 8006cee:	4798      	blx	r3
 8006cf0:	480e      	ldr	r0, [pc, #56]	; (8006d2c <processAutoComplete+0x7c>)
 8006cf2:	f7f9 fa37 	bl	8000164 <strlen>
 8006cf6:	4b0f      	ldr	r3, [pc, #60]	; (8006d34 <processAutoComplete+0x84>)
 8006cf8:	b2c0      	uxtb	r0, r0
 8006cfa:	7038      	strb	r0, [r7, #0]
 8006cfc:	7018      	strb	r0, [r3, #0]
 8006cfe:	e8bd 87f0 	ldmia.w	sp!, {r4, r5, r6, r7, r8, r9, sl, pc}
 8006d02:	4642      	mov	r2, r8
 8006d04:	4651      	mov	r1, sl
 8006d06:	4648      	mov	r0, r9
 8006d08:	f000 fc79 	bl	80075fe <strncmp>
 8006d0c:	b908      	cbnz	r0, 8006d12 <processAutoComplete+0x62>
 8006d0e:	464c      	mov	r4, r9
 8006d10:	3601      	adds	r6, #1
 8006d12:	3510      	adds	r5, #16
 8006d14:	e7db      	b.n	8006cce <processAutoComplete+0x1e>
 8006d16:	ddf2      	ble.n	8006cfe <processAutoComplete+0x4e>
 8006d18:	4620      	mov	r0, r4
 8006d1a:	e8bd 47f0 	ldmia.w	sp!, {r4, r5, r6, r7, r8, r9, sl, lr}
 8006d1e:	f7ff bf63 	b.w	8006be8 <processACMultiple>
 8006d22:	bf00      	nop
 8006d24:	20002dd0 	.word	0x20002dd0
 8006d28:	20002c44 	.word	0x20002c44
 8006d2c:	20002d4e 	.word	0x20002d4e
 8006d30:	20002dd8 	.word	0x20002dd8
 8006d34:	20002dcf 	.word	0x20002dcf

08006d38 <processConsoleStr2>:
 8006d38:	b570      	push	{r4, r5, r6, lr}
 8006d3a:	460d      	mov	r5, r1
 8006d3c:	4604      	mov	r4, r0
 8006d3e:	f7f9 fa11 	bl	8000164 <strlen>
 8006d42:	2200      	movs	r2, #0
 8006d44:	7829      	ldrb	r1, [r5, #0]
 8006d46:	2803      	cmp	r0, #3
 8006d48:	702a      	strb	r2, [r5, #0]
 8006d4a:	7820      	ldrb	r0, [r4, #0]
 8006d4c:	d91b      	bls.n	8006d86 <processConsoleStr2+0x4e>
 8006d4e:	281b      	cmp	r0, #27
 8006d50:	d15c      	bne.n	8006e0c <processConsoleStr2+0xd4>
 8006d52:	7863      	ldrb	r3, [r4, #1]
 8006d54:	2b5b      	cmp	r3, #91	; 0x5b
 8006d56:	d119      	bne.n	8006d8c <processConsoleStr2+0x54>
 8006d58:	78e3      	ldrb	r3, [r4, #3]
 8006d5a:	2b7e      	cmp	r3, #126	; 0x7e
 8006d5c:	d116      	bne.n	8006d8c <processConsoleStr2+0x54>
 8006d5e:	78a3      	ldrb	r3, [r4, #2]
 8006d60:	2b33      	cmp	r3, #51	; 0x33
 8006d62:	d008      	beq.n	8006d76 <processConsoleStr2+0x3e>
 8006d64:	2b34      	cmp	r3, #52	; 0x34
 8006d66:	d00b      	beq.n	8006d80 <processConsoleStr2+0x48>
 8006d68:	2b31      	cmp	r3, #49	; 0x31
 8006d6a:	d107      	bne.n	8006d7c <processConsoleStr2+0x44>
 8006d6c:	4b41      	ldr	r3, [pc, #260]	; (8006e74 <processConsoleStr2+0x13c>)
 8006d6e:	701a      	strb	r2, [r3, #0]
 8006d70:	f7ff fd0a 	bl	8006788 <redrawCursor>
 8006d74:	e002      	b.n	8006d7c <processConsoleStr2+0x44>
 8006d76:	4610      	mov	r0, r2
 8006d78:	f7ff fe1a 	bl	80069b0 <delInLine>
 8006d7c:	1d20      	adds	r0, r4, #4
 8006d7e:	bd70      	pop	{r4, r5, r6, pc}
 8006d80:	4b3d      	ldr	r3, [pc, #244]	; (8006e78 <processConsoleStr2+0x140>)
 8006d82:	781a      	ldrb	r2, [r3, #0]
 8006d84:	e7f2      	b.n	8006d6c <processConsoleStr2+0x34>
 8006d86:	d141      	bne.n	8006e0c <processConsoleStr2+0xd4>
 8006d88:	281b      	cmp	r0, #27
 8006d8a:	d13f      	bne.n	8006e0c <processConsoleStr2+0xd4>
 8006d8c:	7863      	ldrb	r3, [r4, #1]
 8006d8e:	2b4f      	cmp	r3, #79	; 0x4f
 8006d90:	d10d      	bne.n	8006dae <processConsoleStr2+0x76>
 8006d92:	78a3      	ldrb	r3, [r4, #2]
 8006d94:	2b43      	cmp	r3, #67	; 0x43
 8006d96:	d007      	beq.n	8006da8 <processConsoleStr2+0x70>
 8006d98:	2b44      	cmp	r3, #68	; 0x44
 8006d9a:	d103      	bne.n	8006da4 <processConsoleStr2+0x6c>
 8006d9c:	2101      	movs	r1, #1
 8006d9e:	2000      	movs	r0, #0
 8006da0:	f7ff fec2 	bl	8006b28 <moveLineCursor>
 8006da4:	1ce0      	adds	r0, r4, #3
 8006da6:	e7ea      	b.n	8006d7e <processConsoleStr2+0x46>
 8006da8:	2101      	movs	r1, #1
 8006daa:	4608      	mov	r0, r1
 8006dac:	e7f8      	b.n	8006da0 <processConsoleStr2+0x68>
 8006dae:	2b5b      	cmp	r3, #91	; 0x5b
 8006db0:	d144      	bne.n	8006e3c <processConsoleStr2+0x104>
 8006db2:	4e32      	ldr	r6, [pc, #200]	; (8006e7c <processConsoleStr2+0x144>)
 8006db4:	1ca5      	adds	r5, r4, #2
 8006db6:	4633      	mov	r3, r6
 8006db8:	4628      	mov	r0, r5
 8006dba:	4a31      	ldr	r2, [pc, #196]	; (8006e80 <processConsoleStr2+0x148>)
 8006dbc:	4931      	ldr	r1, [pc, #196]	; (8006e84 <processConsoleStr2+0x14c>)
 8006dbe:	f000 fb8f 	bl	80074e0 <siscanf>
 8006dc2:	2802      	cmp	r0, #2
 8006dc4:	d10c      	bne.n	8006de0 <processConsoleStr2+0xa8>
 8006dc6:	6833      	ldr	r3, [r6, #0]
 8006dc8:	4a2f      	ldr	r2, [pc, #188]	; (8006e88 <processConsoleStr2+0x150>)
 8006dca:	2b81      	cmp	r3, #129	; 0x81
 8006dcc:	bfa8      	it	ge
 8006dce:	2381      	movge	r3, #129	; 0x81
 8006dd0:	2152      	movs	r1, #82	; 0x52
 8006dd2:	3b08      	subs	r3, #8
 8006dd4:	4628      	mov	r0, r5
 8006dd6:	6013      	str	r3, [r2, #0]
 8006dd8:	f000 fbf1 	bl	80075be <strchr>
 8006ddc:	3001      	adds	r0, #1
 8006dde:	e7ce      	b.n	8006d7e <processConsoleStr2+0x46>
 8006de0:	78a3      	ldrb	r3, [r4, #2]
 8006de2:	3b41      	subs	r3, #65	; 0x41
 8006de4:	2b03      	cmp	r3, #3
 8006de6:	d8dd      	bhi.n	8006da4 <processConsoleStr2+0x6c>
 8006de8:	e8df f003 	tbb	[pc, r3]
 8006dec:	02040d07 	.word	0x02040d07
 8006df0:	2100      	movs	r1, #0
 8006df2:	e7da      	b.n	8006daa <processConsoleStr2+0x72>
 8006df4:	2100      	movs	r1, #0
 8006df6:	2001      	movs	r0, #1
 8006df8:	e7d2      	b.n	8006da0 <processConsoleStr2+0x68>
 8006dfa:	2000      	movs	r0, #0
 8006dfc:	f7ff fd72 	bl	80068e4 <histMove>
 8006e00:	f7ff fd44 	bl	800688c <histGetFrom>
 8006e04:	e7ce      	b.n	8006da4 <processConsoleStr2+0x6c>
 8006e06:	f7ff fc61 	bl	80066cc <histMove.part.0>
 8006e0a:	e7f9      	b.n	8006e00 <processConsoleStr2+0xc8>
 8006e0c:	280d      	cmp	r0, #13
 8006e0e:	d80a      	bhi.n	8006e26 <processConsoleStr2+0xee>
 8006e10:	2807      	cmp	r0, #7
 8006e12:	d90c      	bls.n	8006e2e <processConsoleStr2+0xf6>
 8006e14:	f1a0 0208 	sub.w	r2, r0, #8
 8006e18:	2a05      	cmp	r2, #5
 8006e1a:	d808      	bhi.n	8006e2e <processConsoleStr2+0xf6>
 8006e1c:	e8df f002 	tbb	[pc, r2]
 8006e20:	0707271f 	.word	0x0707271f
 8006e24:	2311      	.short	0x2311
 8006e26:	281b      	cmp	r0, #27
 8006e28:	d008      	beq.n	8006e3c <processConsoleStr2+0x104>
 8006e2a:	287f      	cmp	r0, #127	; 0x7f
 8006e2c:	d017      	beq.n	8006e5e <processConsoleStr2+0x126>
 8006e2e:	f1a0 0220 	sub.w	r2, r0, #32
 8006e32:	2a5f      	cmp	r2, #95	; 0x5f
 8006e34:	d805      	bhi.n	8006e42 <processConsoleStr2+0x10a>
 8006e36:	f7ff fd7b 	bl	8006930 <putInLineCh>
 8006e3a:	e002      	b.n	8006e42 <processConsoleStr2+0x10a>
 8006e3c:	b919      	cbnz	r1, 8006e46 <processConsoleStr2+0x10e>
 8006e3e:	2301      	movs	r3, #1
 8006e40:	702b      	strb	r3, [r5, #0]
 8006e42:	1c60      	adds	r0, r4, #1
 8006e44:	e79b      	b.n	8006d7e <processConsoleStr2+0x46>
 8006e46:	2300      	movs	r3, #0
 8006e48:	4a0a      	ldr	r2, [pc, #40]	; (8006e74 <processConsoleStr2+0x13c>)
 8006e4a:	7013      	strb	r3, [r2, #0]
 8006e4c:	4a0f      	ldr	r2, [pc, #60]	; (8006e8c <processConsoleStr2+0x154>)
 8006e4e:	7013      	strb	r3, [r2, #0]
 8006e50:	4a09      	ldr	r2, [pc, #36]	; (8006e78 <processConsoleStr2+0x140>)
 8006e52:	7013      	strb	r3, [r2, #0]
 8006e54:	f7ff fc98 	bl	8006788 <redrawCursor>
 8006e58:	f7ff fc76 	bl	8006748 <redrawLineAfterCursor>
 8006e5c:	e7f1      	b.n	8006e42 <processConsoleStr2+0x10a>
 8006e5e:	2001      	movs	r0, #1
 8006e60:	f7ff fda6 	bl	80069b0 <delInLine>
 8006e64:	e7ed      	b.n	8006e42 <processConsoleStr2+0x10a>
 8006e66:	4608      	mov	r0, r1
 8006e68:	f7ff fe18 	bl	8006a9c <processNewLine>
 8006e6c:	e7e9      	b.n	8006e42 <processConsoleStr2+0x10a>
 8006e6e:	f7ff ff1f 	bl	8006cb0 <processAutoComplete>
 8006e72:	e7e6      	b.n	8006e42 <processConsoleStr2+0x10a>
 8006e74:	20002dcf 	.word	0x20002dcf
 8006e78:	20002dd0 	.word	0x20002dd0
 8006e7c:	20002ddc 	.word	0x20002ddc
 8006e80:	20002de0 	.word	0x20002de0
 8006e84:	08009a8b 	.word	0x08009a8b
 8006e88:	20002dd4 	.word	0x20002dd4
 8006e8c:	20002d4e 	.word	0x20002d4e

08006e90 <processConsoleStr>:
 8006e90:	2200      	movs	r2, #0
 8006e92:	680b      	ldr	r3, [r1, #0]
 8006e94:	b510      	push	{r4, lr}
 8006e96:	4c04      	ldr	r4, [pc, #16]	; (8006ea8 <processConsoleStr+0x18>)
 8006e98:	54c2      	strb	r2, [r0, r3]
 8006e9a:	7803      	ldrb	r3, [r0, #0]
 8006e9c:	b903      	cbnz	r3, 8006ea0 <processConsoleStr+0x10>
 8006e9e:	bd10      	pop	{r4, pc}
 8006ea0:	4621      	mov	r1, r4
 8006ea2:	f7ff ff49 	bl	8006d38 <processConsoleStr2>
 8006ea6:	e7f8      	b.n	8006e9a <processConsoleStr+0xa>
 8006ea8:	20002c40 	.word	0x20002c40

08006eac <__setOutputs>:
 8006eac:	4b14      	ldr	r3, [pc, #80]	; (8006f00 <__setOutputs+0x54>)
 8006eae:	4a15      	ldr	r2, [pc, #84]	; (8006f04 <__setOutputs+0x58>)
 8006eb0:	6819      	ldr	r1, [r3, #0]
 8006eb2:	6812      	ldr	r2, [r2, #0]
 8006eb4:	680b      	ldr	r3, [r1, #0]
 8006eb6:	b510      	push	{r4, lr}
 8006eb8:	8013      	strh	r3, [r2, #0]
 8006eba:	4a13      	ldr	r2, [pc, #76]	; (8006f08 <__setOutputs+0x5c>)
 8006ebc:	4c13      	ldr	r4, [pc, #76]	; (8006f0c <__setOutputs+0x60>)
 8006ebe:	6812      	ldr	r2, [r2, #0]
 8006ec0:	0c1b      	lsrs	r3, r3, #16
 8006ec2:	8013      	strh	r3, [r2, #0]
 8006ec4:	4812      	ldr	r0, [pc, #72]	; (8006f10 <__setOutputs+0x64>)
 8006ec6:	2332      	movs	r3, #50	; 0x32
 8006ec8:	2204      	movs	r2, #4
 8006eca:	f7fb f964 	bl	8002196 <HAL_SPI_Transmit>
 8006ece:	4620      	mov	r0, r4
 8006ed0:	2200      	movs	r2, #0
 8006ed2:	f44f 5180 	mov.w	r1, #4096	; 0x1000
 8006ed6:	f7f9 fdc9 	bl	8000a6c <HAL_GPIO_WritePin>
 8006eda:	4620      	mov	r0, r4
 8006edc:	2201      	movs	r2, #1
 8006ede:	f44f 5180 	mov.w	r1, #4096	; 0x1000
 8006ee2:	f7f9 fdc3 	bl	8000a6c <HAL_GPIO_WritePin>
 8006ee6:	4620      	mov	r0, r4
 8006ee8:	2200      	movs	r2, #0
 8006eea:	2101      	movs	r1, #1
 8006eec:	f7f9 fdbe 	bl	8000a6c <HAL_GPIO_WritePin>
 8006ef0:	2201      	movs	r2, #1
 8006ef2:	4620      	mov	r0, r4
 8006ef4:	e8bd 4010 	ldmia.w	sp!, {r4, lr}
 8006ef8:	4611      	mov	r1, r2
 8006efa:	f7f9 bdb7 	b.w	8000a6c <HAL_GPIO_WritePin>
 8006efe:	bf00      	nop
 8006f00:	2000021c 	.word	0x2000021c
 8006f04:	20000224 	.word	0x20000224
 8006f08:	20000220 	.word	0x20000220
 8006f0c:	40010c00 	.word	0x40010c00
 8006f10:	200006d8 	.word	0x200006d8

08006f14 <setOutputs>:
 8006f14:	4b02      	ldr	r3, [pc, #8]	; (8006f20 <setOutputs+0xc>)
 8006f16:	681b      	ldr	r3, [r3, #0]
 8006f18:	6018      	str	r0, [r3, #0]
 8006f1a:	f7ff bfc7 	b.w	8006eac <__setOutputs>
 8006f1e:	bf00      	nop
 8006f20:	2000021c 	.word	0x2000021c

08006f24 <setOutputsByInputConfig>:
 8006f24:	7803      	ldrb	r3, [r0, #0]
 8006f26:	2b03      	cmp	r3, #3
 8006f28:	d80c      	bhi.n	8006f44 <setOutputsByInputConfig+0x20>
 8006f2a:	3b01      	subs	r3, #1
 8006f2c:	2b02      	cmp	r3, #2
 8006f2e:	d828      	bhi.n	8006f82 <setOutputsByInputConfig+0x5e>
 8006f30:	e8df f003 	tbb	[pc, r3]
 8006f34:	1810      	.short	0x1810
 8006f36:	20          	.byte	0x20
 8006f37:	00          	.byte	0x00
 8006f38:	2a03      	cmp	r2, #3
 8006f3a:	d809      	bhi.n	8006f50 <setOutputsByInputConfig+0x2c>
 8006f3c:	e8df f002 	tbb	[pc, r2]
 8006f40:	1a120a21 	.word	0x1a120a21
 8006f44:	f1a3 0280 	sub.w	r2, r3, #128	; 0x80
 8006f48:	f083 0380 	eor.w	r3, r3, #128	; 0x80
 8006f4c:	2b03      	cmp	r3, #3
 8006f4e:	d9f3      	bls.n	8006f38 <setOutputsByInputConfig+0x14>
 8006f50:	f7ff bfac 	b.w	8006eac <__setOutputs>
 8006f54:	4b0b      	ldr	r3, [pc, #44]	; (8006f84 <setOutputsByInputConfig+0x60>)
 8006f56:	f8d0 1001 	ldr.w	r1, [r0, #1]
 8006f5a:	681a      	ldr	r2, [r3, #0]
 8006f5c:	6813      	ldr	r3, [r2, #0]
 8006f5e:	430b      	orrs	r3, r1
 8006f60:	6013      	str	r3, [r2, #0]
 8006f62:	e7f5      	b.n	8006f50 <setOutputsByInputConfig+0x2c>
 8006f64:	4b07      	ldr	r3, [pc, #28]	; (8006f84 <setOutputsByInputConfig+0x60>)
 8006f66:	f8d0 1001 	ldr.w	r1, [r0, #1]
 8006f6a:	681a      	ldr	r2, [r3, #0]
 8006f6c:	6813      	ldr	r3, [r2, #0]
 8006f6e:	ea23 0301 	bic.w	r3, r3, r1
 8006f72:	e7f5      	b.n	8006f60 <setOutputsByInputConfig+0x3c>
 8006f74:	4b03      	ldr	r3, [pc, #12]	; (8006f84 <setOutputsByInputConfig+0x60>)
 8006f76:	f8d0 1001 	ldr.w	r1, [r0, #1]
 8006f7a:	681a      	ldr	r2, [r3, #0]
 8006f7c:	6813      	ldr	r3, [r2, #0]
 8006f7e:	404b      	eors	r3, r1
 8006f80:	e7ee      	b.n	8006f60 <setOutputsByInputConfig+0x3c>
 8006f82:	4770      	bx	lr
 8006f84:	2000021c 	.word	0x2000021c

08006f88 <setOutputsOff>:
 8006f88:	4b03      	ldr	r3, [pc, #12]	; (8006f98 <setOutputsOff+0x10>)
 8006f8a:	681a      	ldr	r2, [r3, #0]
 8006f8c:	6813      	ldr	r3, [r2, #0]
 8006f8e:	ea23 0300 	bic.w	r3, r3, r0
 8006f92:	6013      	str	r3, [r2, #0]
 8006f94:	f7ff bf8a 	b.w	8006eac <__setOutputs>
 8006f98:	2000021c 	.word	0x2000021c

08006f9c <firstEnableOutputs>:
 8006f9c:	4b06      	ldr	r3, [pc, #24]	; (8006fb8 <firstEnableOutputs+0x1c>)
 8006f9e:	4a07      	ldr	r2, [pc, #28]	; (8006fbc <firstEnableOutputs+0x20>)
 8006fa0:	681b      	ldr	r3, [r3, #0]
 8006fa2:	6812      	ldr	r2, [r2, #0]
 8006fa4:	881b      	ldrh	r3, [r3, #0]
 8006fa6:	8810      	ldrh	r0, [r2, #0]
 8006fa8:	ea40 4003 	orr.w	r0, r0, r3, lsl #16
 8006fac:	4b04      	ldr	r3, [pc, #16]	; (8006fc0 <firstEnableOutputs+0x24>)
 8006fae:	681b      	ldr	r3, [r3, #0]
 8006fb0:	6018      	str	r0, [r3, #0]
 8006fb2:	f7ff bfaf 	b.w	8006f14 <setOutputs>
 8006fb6:	bf00      	nop
 8006fb8:	20000220 	.word	0x20000220
 8006fbc:	20000224 	.word	0x20000224
 8006fc0:	2000021c 	.word	0x2000021c

08006fc4 <setOutputOn>:
 8006fc4:	281f      	cmp	r0, #31
 8006fc6:	d808      	bhi.n	8006fda <setOutputOn+0x16>
 8006fc8:	4b04      	ldr	r3, [pc, #16]	; (8006fdc <setOutputOn+0x18>)
 8006fca:	681a      	ldr	r2, [r3, #0]
 8006fcc:	2301      	movs	r3, #1
 8006fce:	fa03 f000 	lsl.w	r0, r3, r0
 8006fd2:	6813      	ldr	r3, [r2, #0]
 8006fd4:	4318      	orrs	r0, r3
 8006fd6:	f7ff bf9d 	b.w	8006f14 <setOutputs>
 8006fda:	4770      	bx	lr
 8006fdc:	2000021c 	.word	0x2000021c

08006fe0 <setOutputOff>:
 8006fe0:	281f      	cmp	r0, #31
 8006fe2:	d809      	bhi.n	8006ff8 <setOutputOff+0x18>
 8006fe4:	2301      	movs	r3, #1
 8006fe6:	fa03 f000 	lsl.w	r0, r3, r0
 8006fea:	4b04      	ldr	r3, [pc, #16]	; (8006ffc <setOutputOff+0x1c>)
 8006fec:	681b      	ldr	r3, [r3, #0]
 8006fee:	681b      	ldr	r3, [r3, #0]
 8006ff0:	ea23 0000 	bic.w	r0, r3, r0
 8006ff4:	f7ff bf8e 	b.w	8006f14 <setOutputs>
 8006ff8:	4770      	bx	lr
 8006ffa:	bf00      	nop
 8006ffc:	2000021c 	.word	0x2000021c

08007000 <setOutputToggle>:
 8007000:	281f      	cmp	r0, #31
 8007002:	d808      	bhi.n	8007016 <setOutputToggle+0x16>
 8007004:	4b04      	ldr	r3, [pc, #16]	; (8007018 <setOutputToggle+0x18>)
 8007006:	681a      	ldr	r2, [r3, #0]
 8007008:	2301      	movs	r3, #1
 800700a:	fa03 f000 	lsl.w	r0, r3, r0
 800700e:	6813      	ldr	r3, [r2, #0]
 8007010:	4058      	eors	r0, r3
 8007012:	f7ff bf7f 	b.w	8006f14 <setOutputs>
 8007016:	4770      	bx	lr
 8007018:	2000021c 	.word	0x2000021c

0800701c <getOutputState>:
 800701c:	281f      	cmp	r0, #31
 800701e:	d80a      	bhi.n	8007036 <getOutputState+0x1a>
 8007020:	4b06      	ldr	r3, [pc, #24]	; (800703c <getOutputState+0x20>)
 8007022:	681a      	ldr	r2, [r3, #0]
 8007024:	2301      	movs	r3, #1
 8007026:	fa03 f000 	lsl.w	r0, r3, r0
 800702a:	6813      	ldr	r3, [r2, #0]
 800702c:	4218      	tst	r0, r3
 800702e:	bf14      	ite	ne
 8007030:	2001      	movne	r0, #1
 8007032:	2000      	moveq	r0, #0
 8007034:	4770      	bx	lr
 8007036:	f04f 30ff 	mov.w	r0, #4294967295
 800703a:	4770      	bx	lr
 800703c:	2000021c 	.word	0x2000021c

08007040 <readInputs>:
 8007040:	b513      	push	{r0, r1, r4, lr}
 8007042:	4c0d      	ldr	r4, [pc, #52]	; (8007078 <readInputs+0x38>)
 8007044:	2200      	movs	r2, #0
 8007046:	f44f 7180 	mov.w	r1, #256	; 0x100
 800704a:	4620      	mov	r0, r4
 800704c:	f7f9 fd0e 	bl	8000a6c <HAL_GPIO_WritePin>
 8007050:	2001      	movs	r0, #1
 8007052:	f7fc ff39 	bl	8003ec8 <osDelay>
 8007056:	4620      	mov	r0, r4
 8007058:	2201      	movs	r2, #1
 800705a:	f44f 7180 	mov.w	r1, #256	; 0x100
 800705e:	f7f9 fd05 	bl	8000a6c <HAL_GPIO_WritePin>
 8007062:	2204      	movs	r2, #4
 8007064:	2305      	movs	r3, #5
 8007066:	eb0d 0102 	add.w	r1, sp, r2
 800706a:	4804      	ldr	r0, [pc, #16]	; (800707c <readInputs+0x3c>)
 800706c:	f7fb fa34 	bl	80024d8 <HAL_SPI_Receive>
 8007070:	9801      	ldr	r0, [sp, #4]
 8007072:	b002      	add	sp, #8
 8007074:	bd10      	pop	{r4, pc}
 8007076:	bf00      	nop
 8007078:	40010800 	.word	0x40010800
 800707c:	200006d8 	.word	0x200006d8

08007080 <startTimer>:
 8007080:	2820      	cmp	r0, #32
 8007082:	b510      	push	{r4, lr}
 8007084:	4604      	mov	r4, r0
 8007086:	d80e      	bhi.n	80070a6 <startTimer+0x26>
 8007088:	f7fe ff06 	bl	8005e98 <getConfigTimer>
 800708c:	6842      	ldr	r2, [r0, #4]
 800708e:	2001      	movs	r0, #1
 8007090:	4b06      	ldr	r3, [pc, #24]	; (80070ac <startTimer+0x2c>)
 8007092:	40a0      	lsls	r0, r4
 8007094:	f823 2014 	strh.w	r2, [r3, r4, lsl #1]
 8007098:	4b05      	ldr	r3, [pc, #20]	; (80070b0 <startTimer+0x30>)
 800709a:	681b      	ldr	r3, [r3, #0]
 800709c:	881a      	ldrh	r2, [r3, #0]
 800709e:	4310      	orrs	r0, r2
 80070a0:	8018      	strh	r0, [r3, #0]
 80070a2:	2000      	movs	r0, #0
 80070a4:	bd10      	pop	{r4, pc}
 80070a6:	f04f 30ff 	mov.w	r0, #4294967295
 80070aa:	e7fb      	b.n	80070a4 <startTimer+0x24>
 80070ac:	20002e34 	.word	0x20002e34
 80070b0:	20000210 	.word	0x20000210

080070b4 <processInputEvent>:
 80070b4:	4603      	mov	r3, r0
 80070b6:	2b02      	cmp	r3, #2
 80070b8:	4608      	mov	r0, r1
 80070ba:	b510      	push	{r4, lr}
 80070bc:	d027      	beq.n	800710e <processInputEvent+0x5a>
 80070be:	d803      	bhi.n	80070c8 <processInputEvent+0x14>
 80070c0:	bb0b      	cbnz	r3, 8007106 <processInputEvent+0x52>
 80070c2:	f7fe fedb 	bl	8005e7c <getInputLPress>
 80070c6:	e020      	b.n	800710a <processInputEvent+0x56>
 80070c8:	2b11      	cmp	r3, #17
 80070ca:	d00e      	beq.n	80070ea <processInputEvent+0x36>
 80070cc:	2b12      	cmp	r3, #18
 80070ce:	d021      	beq.n	8007114 <processInputEvent+0x60>
 80070d0:	4620      	mov	r0, r4
 80070d2:	f7ff ff27 	bl	8006f24 <setOutputsByInputConfig>
 80070d6:	b34c      	cbz	r4, 800712c <processInputEvent+0x78>
 80070d8:	f994 3000 	ldrsb.w	r3, [r4]
 80070dc:	2b00      	cmp	r3, #0
 80070de:	da25      	bge.n	800712c <processInputEvent+0x78>
 80070e0:	7960      	ldrb	r0, [r4, #5]
 80070e2:	e8bd 4010 	ldmia.w	sp!, {r4, lr}
 80070e6:	f7ff bfcb 	b.w	8007080 <startTimer>
 80070ea:	f7fe fea3 	bl	8005e34 <getInput>
 80070ee:	4a10      	ldr	r2, [pc, #64]	; (8007130 <processInputEvent+0x7c>)
 80070f0:	4604      	mov	r4, r0
 80070f2:	6813      	ldr	r3, [r2, #0]
 80070f4:	f44f 6180 	mov.w	r1, #1024	; 0x400
 80070f8:	3301      	adds	r3, #1
 80070fa:	6013      	str	r3, [r2, #0]
 80070fc:	480d      	ldr	r0, [pc, #52]	; (8007134 <processInputEvent+0x80>)
 80070fe:	2201      	movs	r2, #1
 8007100:	f7f9 fcb4 	bl	8000a6c <HAL_GPIO_WritePin>
 8007104:	e7e4      	b.n	80070d0 <processInputEvent+0x1c>
 8007106:	f7fe fe9f 	bl	8005e48 <getInputClick>
 800710a:	4604      	mov	r4, r0
 800710c:	e7e0      	b.n	80070d0 <processInputEvent+0x1c>
 800710e:	f7fe fea7 	bl	8005e60 <getInputDoubleClick>
 8007112:	e7fa      	b.n	800710a <processInputEvent+0x56>
 8007114:	4b06      	ldr	r3, [pc, #24]	; (8007130 <processInputEvent+0x7c>)
 8007116:	681a      	ldr	r2, [r3, #0]
 8007118:	3a01      	subs	r2, #1
 800711a:	601a      	str	r2, [r3, #0]
 800711c:	b932      	cbnz	r2, 800712c <processInputEvent+0x78>
 800711e:	e8bd 4010 	ldmia.w	sp!, {r4, lr}
 8007122:	f44f 6180 	mov.w	r1, #1024	; 0x400
 8007126:	4803      	ldr	r0, [pc, #12]	; (8007134 <processInputEvent+0x80>)
 8007128:	f7f9 bca0 	b.w	8000a6c <HAL_GPIO_WritePin>
 800712c:	bd10      	pop	{r4, pc}
 800712e:	bf00      	nop
 8007130:	20002df0 	.word	0x20002df0
 8007134:	40010800 	.word	0x40010800

08007138 <threadInputTimers>:
 8007138:	b570      	push	{r4, r5, r6, lr}
 800713a:	2600      	movs	r6, #0
 800713c:	2500      	movs	r5, #0
 800713e:	4c0d      	ldr	r4, [pc, #52]	; (8007174 <threadInputTimers+0x3c>)
 8007140:	7823      	ldrb	r3, [r4, #0]
 8007142:	b2e9      	uxtb	r1, r5
 8007144:	b143      	cbz	r3, 8007158 <threadInputTimers+0x20>
 8007146:	3b01      	subs	r3, #1
 8007148:	b2db      	uxtb	r3, r3
 800714a:	7023      	strb	r3, [r4, #0]
 800714c:	b923      	cbnz	r3, 8007158 <threadInputTimers+0x20>
 800714e:	7860      	ldrb	r0, [r4, #1]
 8007150:	b958      	cbnz	r0, 800716a <threadInputTimers+0x32>
 8007152:	f7ff ffaf 	bl	80070b4 <processInputEvent>
 8007156:	7066      	strb	r6, [r4, #1]
 8007158:	3501      	adds	r5, #1
 800715a:	2d20      	cmp	r5, #32
 800715c:	f104 0402 	add.w	r4, r4, #2
 8007160:	d1ee      	bne.n	8007140 <threadInputTimers+0x8>
 8007162:	200a      	movs	r0, #10
 8007164:	f7fc feb0 	bl	8003ec8 <osDelay>
 8007168:	e7e8      	b.n	800713c <threadInputTimers+0x4>
 800716a:	2801      	cmp	r0, #1
 800716c:	bf18      	it	ne
 800716e:	2002      	movne	r0, #2
 8007170:	e7ef      	b.n	8007152 <threadInputTimers+0x1a>
 8007172:	bf00      	nop
 8007174:	20002df4 	.word	0x20002df4

08007178 <processInputEvents>:
 8007178:	e92d 43f8 	stmdb	sp!, {r3, r4, r5, r6, r7, r8, r9, lr}
 800717c:	4606      	mov	r6, r0
 800717e:	460f      	mov	r7, r1
 8007180:	2500      	movs	r5, #0
 8007182:	f04f 0801 	mov.w	r8, #1
 8007186:	f04f 0964 	mov.w	r9, #100	; 0x64
 800718a:	4c10      	ldr	r4, [pc, #64]	; (80071cc <processInputEvents+0x54>)
 800718c:	fa08 f305 	lsl.w	r3, r8, r5
 8007190:	4233      	tst	r3, r6
 8007192:	d00a      	beq.n	80071aa <processInputEvents+0x32>
 8007194:	423b      	tst	r3, r7
 8007196:	b2e9      	uxtb	r1, r5
 8007198:	d00e      	beq.n	80071b8 <processInputEvents+0x40>
 800719a:	2012      	movs	r0, #18
 800719c:	f7ff ff8a 	bl	80070b4 <processInputEvent>
 80071a0:	7823      	ldrb	r3, [r4, #0]
 80071a2:	b113      	cbz	r3, 80071aa <processInputEvents+0x32>
 80071a4:	7863      	ldrb	r3, [r4, #1]
 80071a6:	3301      	adds	r3, #1
 80071a8:	7063      	strb	r3, [r4, #1]
 80071aa:	3501      	adds	r5, #1
 80071ac:	2d20      	cmp	r5, #32
 80071ae:	f104 0402 	add.w	r4, r4, #2
 80071b2:	d1eb      	bne.n	800718c <processInputEvents+0x14>
 80071b4:	e8bd 83f8 	ldmia.w	sp!, {r3, r4, r5, r6, r7, r8, r9, pc}
 80071b8:	2011      	movs	r0, #17
 80071ba:	f7ff ff7b 	bl	80070b4 <processInputEvent>
 80071be:	7823      	ldrb	r3, [r4, #0]
 80071c0:	2b00      	cmp	r3, #0
 80071c2:	d1f2      	bne.n	80071aa <processInputEvents+0x32>
 80071c4:	f884 9000 	strb.w	r9, [r4]
 80071c8:	e7ef      	b.n	80071aa <processInputEvents+0x32>
 80071ca:	bf00      	nop
 80071cc:	20002df4 	.word	0x20002df4

080071d0 <threadSPI>:
 80071d0:	b508      	push	{r3, lr}
 80071d2:	4c0c      	ldr	r4, [pc, #48]	; (8007204 <threadSPI+0x34>)
 80071d4:	4d0c      	ldr	r5, [pc, #48]	; (8007208 <threadSPI+0x38>)
 80071d6:	4e0d      	ldr	r6, [pc, #52]	; (800720c <threadSPI+0x3c>)
 80071d8:	f7ff ff32 	bl	8007040 <readInputs>
 80071dc:	4601      	mov	r1, r0
 80071de:	6020      	str	r0, [r4, #0]
 80071e0:	6828      	ldr	r0, [r5, #0]
 80071e2:	4281      	cmp	r1, r0
 80071e4:	d007      	beq.n	80071f6 <threadSPI+0x26>
 80071e6:	6833      	ldr	r3, [r6, #0]
 80071e8:	4299      	cmp	r1, r3
 80071ea:	d108      	bne.n	80071fe <threadSPI+0x2e>
 80071ec:	4048      	eors	r0, r1
 80071ee:	f7ff ffc3 	bl	8007178 <processInputEvents>
 80071f2:	6823      	ldr	r3, [r4, #0]
 80071f4:	602b      	str	r3, [r5, #0]
 80071f6:	200a      	movs	r0, #10
 80071f8:	f7fc fe66 	bl	8003ec8 <osDelay>
 80071fc:	e7ec      	b.n	80071d8 <threadSPI+0x8>
 80071fe:	6031      	str	r1, [r6, #0]
 8007200:	e7f9      	b.n	80071f6 <threadSPI+0x26>
 8007202:	bf00      	nop
 8007204:	20002dec 	.word	0x20002dec
 8007208:	20000214 	.word	0x20000214
 800720c:	20000218 	.word	0x20000218

08007210 <processTimerEvent>:
 8007210:	b510      	push	{r4, lr}
 8007212:	4604      	mov	r4, r0
 8007214:	f7fe fe40 	bl	8005e98 <getConfigTimer>
 8007218:	6800      	ldr	r0, [r0, #0]
 800721a:	f7ff feb5 	bl	8006f88 <setOutputsOff>
 800721e:	f06f 0001 	mvn.w	r0, #1
 8007222:	4b03      	ldr	r3, [pc, #12]	; (8007230 <processTimerEvent+0x20>)
 8007224:	40a0      	lsls	r0, r4
 8007226:	681b      	ldr	r3, [r3, #0]
 8007228:	881a      	ldrh	r2, [r3, #0]
 800722a:	4010      	ands	r0, r2
 800722c:	8018      	strh	r0, [r3, #0]
 800722e:	bd10      	pop	{r4, pc}
 8007230:	20000210 	.word	0x20000210

08007234 <threadTimers>:
 8007234:	b538      	push	{r3, r4, r5, lr}
 8007236:	2400      	movs	r4, #0
 8007238:	4d09      	ldr	r5, [pc, #36]	; (8007260 <threadTimers+0x2c>)
 800723a:	f835 3b02 	ldrh.w	r3, [r5], #2
 800723e:	b13b      	cbz	r3, 8007250 <threadTimers+0x1c>
 8007240:	3b01      	subs	r3, #1
 8007242:	b29b      	uxth	r3, r3
 8007244:	f825 3c02 	strh.w	r3, [r5, #-2]
 8007248:	b913      	cbnz	r3, 8007250 <threadTimers+0x1c>
 800724a:	4620      	mov	r0, r4
 800724c:	f7ff ffe0 	bl	8007210 <processTimerEvent>
 8007250:	3401      	adds	r4, #1
 8007252:	2c20      	cmp	r4, #32
 8007254:	d1f1      	bne.n	800723a <threadTimers+0x6>
 8007256:	f44f 707a 	mov.w	r0, #1000	; 0x3e8
 800725a:	f7fc fe35 	bl	8003ec8 <osDelay>
 800725e:	e7ea      	b.n	8007236 <threadTimers+0x2>
 8007260:	20002e34 	.word	0x20002e34

08007264 <offActiveTimers>:
 8007264:	b538      	push	{r3, r4, r5, lr}
 8007266:	2400      	movs	r4, #0
 8007268:	4d06      	ldr	r5, [pc, #24]	; (8007284 <offActiveTimers+0x20>)
 800726a:	682b      	ldr	r3, [r5, #0]
 800726c:	881b      	ldrh	r3, [r3, #0]
 800726e:	4123      	asrs	r3, r4
 8007270:	07db      	lsls	r3, r3, #31
 8007272:	d502      	bpl.n	800727a <offActiveTimers+0x16>
 8007274:	4620      	mov	r0, r4
 8007276:	f7ff ffcb 	bl	8007210 <processTimerEvent>
 800727a:	3401      	adds	r4, #1
 800727c:	2c20      	cmp	r4, #32
 800727e:	d1f4      	bne.n	800726a <offActiveTimers+0x6>
 8007280:	bd38      	pop	{r3, r4, r5, pc}
 8007282:	bf00      	nop
 8007284:	20000210 	.word	0x20000210

08007288 <initThreads>:
 8007288:	b508      	push	{r3, lr}
 800728a:	f7ff ffeb 	bl	8007264 <offActiveTimers>
 800728e:	2100      	movs	r1, #0
 8007290:	4a07      	ldr	r2, [pc, #28]	; (80072b0 <initThreads+0x28>)
 8007292:	4808      	ldr	r0, [pc, #32]	; (80072b4 <initThreads+0x2c>)
 8007294:	f7fc fdbc 	bl	8003e10 <osThreadNew>
 8007298:	2100      	movs	r1, #0
 800729a:	4a07      	ldr	r2, [pc, #28]	; (80072b8 <initThreads+0x30>)
 800729c:	4807      	ldr	r0, [pc, #28]	; (80072bc <initThreads+0x34>)
 800729e:	f7fc fdb7 	bl	8003e10 <osThreadNew>
 80072a2:	e8bd 4008 	ldmia.w	sp!, {r3, lr}
 80072a6:	2100      	movs	r1, #0
 80072a8:	4a05      	ldr	r2, [pc, #20]	; (80072c0 <initThreads+0x38>)
 80072aa:	4806      	ldr	r0, [pc, #24]	; (80072c4 <initThreads+0x3c>)
 80072ac:	f7fc bdb0 	b.w	8003e10 <osThreadNew>
 80072b0:	08009ab8 	.word	0x08009ab8
 80072b4:	08007139 	.word	0x08007139
 80072b8:	08009adc 	.word	0x08009adc
 80072bc:	080071d1 	.word	0x080071d1
 80072c0:	08009b00 	.word	0x08009b00
 80072c4:	08007235 	.word	0x08007235

080072c8 <initIO>:
 80072c8:	b508      	push	{r3, lr}
 80072ca:	f7ff fe67 	bl	8006f9c <firstEnableOutputs>
 80072ce:	e8bd 4008 	ldmia.w	sp!, {r3, lr}
 80072d2:	f7ff bfd9 	b.w	8007288 <initThreads>
	...

080072d8 <SendData>:
 80072d8:	b537      	push	{r0, r1, r2, r4, r5, lr}
 80072da:	4614      	mov	r4, r2
 80072dc:	4605      	mov	r5, r0
 80072de:	9101      	str	r1, [sp, #4]
 80072e0:	2200      	movs	r2, #0
 80072e2:	f44f 5180 	mov.w	r1, #4096	; 0x1000
 80072e6:	4814      	ldr	r0, [pc, #80]	; (8007338 <SendData+0x60>)
 80072e8:	f7f9 fbc0 	bl	8000a6c <HAL_GPIO_WritePin>
 80072ec:	b124      	cbz	r4, 80072f8 <SendData+0x20>
 80072ee:	2200      	movs	r2, #0
 80072f0:	2101      	movs	r1, #1
 80072f2:	4811      	ldr	r0, [pc, #68]	; (8007338 <SendData+0x60>)
 80072f4:	f7f9 fbba 	bl	8000a6c <HAL_GPIO_WritePin>
 80072f8:	2204      	movs	r2, #4
 80072fa:	2332      	movs	r3, #50	; 0x32
 80072fc:	eb0d 0102 	add.w	r1, sp, r2
 8007300:	4628      	mov	r0, r5
 8007302:	f7fa ff48 	bl	8002196 <HAL_SPI_Transmit>
 8007306:	2200      	movs	r2, #0
 8007308:	f44f 5180 	mov.w	r1, #4096	; 0x1000
 800730c:	480a      	ldr	r0, [pc, #40]	; (8007338 <SendData+0x60>)
 800730e:	f7f9 fbad 	bl	8000a6c <HAL_GPIO_WritePin>
 8007312:	2201      	movs	r2, #1
 8007314:	f44f 5180 	mov.w	r1, #4096	; 0x1000
 8007318:	4807      	ldr	r0, [pc, #28]	; (8007338 <SendData+0x60>)
 800731a:	f7f9 fba7 	bl	8000a6c <HAL_GPIO_WritePin>
 800731e:	b14c      	cbz	r4, 8007334 <SendData+0x5c>
 8007320:	2200      	movs	r2, #0
 8007322:	2101      	movs	r1, #1
 8007324:	4804      	ldr	r0, [pc, #16]	; (8007338 <SendData+0x60>)
 8007326:	f7f9 fba1 	bl	8000a6c <HAL_GPIO_WritePin>
 800732a:	2201      	movs	r2, #1
 800732c:	4802      	ldr	r0, [pc, #8]	; (8007338 <SendData+0x60>)
 800732e:	4611      	mov	r1, r2
 8007330:	f7f9 fb9c 	bl	8000a6c <HAL_GPIO_WritePin>
 8007334:	b003      	add	sp, #12
 8007336:	bd30      	pop	{r4, r5, pc}
 8007338:	40010c00 	.word	0x40010c00

0800733c <ledsUp>:
 800733c:	e92d 41f0 	stmdb	sp!, {r4, r5, r6, r7, r8, lr}
 8007340:	2400      	movs	r4, #0
 8007342:	f04f 0801 	mov.w	r8, #1
 8007346:	4625      	mov	r5, r4
 8007348:	4f08      	ldr	r7, [pc, #32]	; (800736c <ledsUp+0x30>)
 800734a:	b2c6      	uxtb	r6, r0
 800734c:	fa08 f304 	lsl.w	r3, r8, r4
 8007350:	441d      	add	r5, r3
 8007352:	4632      	mov	r2, r6
 8007354:	4629      	mov	r1, r5
 8007356:	4638      	mov	r0, r7
 8007358:	f7ff ffbe 	bl	80072d8 <SendData>
 800735c:	3401      	adds	r4, #1
 800735e:	2019      	movs	r0, #25
 8007360:	f7fc fdb2 	bl	8003ec8 <osDelay>
 8007364:	2c20      	cmp	r4, #32
 8007366:	d1f1      	bne.n	800734c <ledsUp+0x10>
 8007368:	e8bd 81f0 	ldmia.w	sp!, {r4, r5, r6, r7, r8, pc}
 800736c:	200006d8 	.word	0x200006d8

08007370 <ledsDown>:
 8007370:	e92d 41f0 	stmdb	sp!, {r4, r5, r6, r7, r8, lr}
 8007374:	2400      	movs	r4, #0
 8007376:	f04f 35ff 	mov.w	r5, #4294967295
 800737a:	f04f 0801 	mov.w	r8, #1
 800737e:	4f09      	ldr	r7, [pc, #36]	; (80073a4 <ledsDown+0x34>)
 8007380:	b2c6      	uxtb	r6, r0
 8007382:	fa08 f304 	lsl.w	r3, r8, r4
 8007386:	ea25 0503 	bic.w	r5, r5, r3
 800738a:	4632      	mov	r2, r6
 800738c:	4629      	mov	r1, r5
 800738e:	4638      	mov	r0, r7
 8007390:	f7ff ffa2 	bl	80072d8 <SendData>
 8007394:	3401      	adds	r4, #1
 8007396:	2019      	movs	r0, #25
 8007398:	f7fc fd96 	bl	8003ec8 <osDelay>
 800739c:	2c20      	cmp	r4, #32
 800739e:	d1f0      	bne.n	8007382 <ledsDown+0x12>
 80073a0:	e8bd 81f0 	ldmia.w	sp!, {r4, r5, r6, r7, r8, pc}
 80073a4:	200006d8 	.word	0x200006d8

080073a8 <LedsWalk>:
 80073a8:	b510      	push	{r4, lr}
 80073aa:	4604      	mov	r4, r0
 80073ac:	f7ff ffc6 	bl	800733c <ledsUp>
 80073b0:	f44f 70fa 	mov.w	r0, #500	; 0x1f4
 80073b4:	f7fc fd88 	bl	8003ec8 <osDelay>
 80073b8:	4620      	mov	r0, r4
 80073ba:	e8bd 4010 	ldmia.w	sp!, {r4, lr}
 80073be:	f7ff bfd7 	b.w	8007370 <ledsDown>
	...

080073c4 <__errno>:
 80073c4:	4b01      	ldr	r3, [pc, #4]	; (80073cc <__errno+0x8>)
 80073c6:	6818      	ldr	r0, [r3, #0]
 80073c8:	4770      	bx	lr
 80073ca:	bf00      	nop
 80073cc:	20000228 	.word	0x20000228

080073d0 <__libc_init_array>:
 80073d0:	b570      	push	{r4, r5, r6, lr}
 80073d2:	2600      	movs	r6, #0
 80073d4:	4d0c      	ldr	r5, [pc, #48]	; (8007408 <__libc_init_array+0x38>)
 80073d6:	4c0d      	ldr	r4, [pc, #52]	; (800740c <__libc_init_array+0x3c>)
 80073d8:	1b64      	subs	r4, r4, r5
 80073da:	10a4      	asrs	r4, r4, #2
 80073dc:	42a6      	cmp	r6, r4
 80073de:	d109      	bne.n	80073f4 <__libc_init_array+0x24>
 80073e0:	f001 ff60 	bl	80092a4 <_init>
 80073e4:	2600      	movs	r6, #0
 80073e6:	4d0a      	ldr	r5, [pc, #40]	; (8007410 <__libc_init_array+0x40>)
 80073e8:	4c0a      	ldr	r4, [pc, #40]	; (8007414 <__libc_init_array+0x44>)
 80073ea:	1b64      	subs	r4, r4, r5
 80073ec:	10a4      	asrs	r4, r4, #2
 80073ee:	42a6      	cmp	r6, r4
 80073f0:	d105      	bne.n	80073fe <__libc_init_array+0x2e>
 80073f2:	bd70      	pop	{r4, r5, r6, pc}
 80073f4:	f855 3b04 	ldr.w	r3, [r5], #4
 80073f8:	4798      	blx	r3
 80073fa:	3601      	adds	r6, #1
 80073fc:	e7ee      	b.n	80073dc <__libc_init_array+0xc>
 80073fe:	f855 3b04 	ldr.w	r3, [r5], #4
 8007402:	4798      	blx	r3
 8007404:	3601      	adds	r6, #1
 8007406:	e7f2      	b.n	80073ee <__libc_init_array+0x1e>
 8007408:	08009d8c 	.word	0x08009d8c
 800740c:	08009d8c 	.word	0x08009d8c
 8007410:	08009d8c 	.word	0x08009d8c
 8007414:	08009d90 	.word	0x08009d90

08007418 <memcpy>:
 8007418:	440a      	add	r2, r1
 800741a:	4291      	cmp	r1, r2
 800741c:	f100 33ff 	add.w	r3, r0, #4294967295
 8007420:	d100      	bne.n	8007424 <memcpy+0xc>
 8007422:	4770      	bx	lr
 8007424:	b510      	push	{r4, lr}
 8007426:	f811 4b01 	ldrb.w	r4, [r1], #1
 800742a:	4291      	cmp	r1, r2
 800742c:	f803 4f01 	strb.w	r4, [r3, #1]!
 8007430:	d1f9      	bne.n	8007426 <memcpy+0xe>
 8007432:	bd10      	pop	{r4, pc}

08007434 <memmove>:
 8007434:	4288      	cmp	r0, r1
 8007436:	b510      	push	{r4, lr}
 8007438:	eb01 0402 	add.w	r4, r1, r2
 800743c:	d902      	bls.n	8007444 <memmove+0x10>
 800743e:	4284      	cmp	r4, r0
 8007440:	4623      	mov	r3, r4
 8007442:	d807      	bhi.n	8007454 <memmove+0x20>
 8007444:	1e43      	subs	r3, r0, #1
 8007446:	42a1      	cmp	r1, r4
 8007448:	d008      	beq.n	800745c <memmove+0x28>
 800744a:	f811 2b01 	ldrb.w	r2, [r1], #1
 800744e:	f803 2f01 	strb.w	r2, [r3, #1]!
 8007452:	e7f8      	b.n	8007446 <memmove+0x12>
 8007454:	4601      	mov	r1, r0
 8007456:	4402      	add	r2, r0
 8007458:	428a      	cmp	r2, r1
 800745a:	d100      	bne.n	800745e <memmove+0x2a>
 800745c:	bd10      	pop	{r4, pc}
 800745e:	f813 4d01 	ldrb.w	r4, [r3, #-1]!
 8007462:	f802 4d01 	strb.w	r4, [r2, #-1]!
 8007466:	e7f7      	b.n	8007458 <memmove+0x24>

08007468 <memset>:
 8007468:	4603      	mov	r3, r0
 800746a:	4402      	add	r2, r0
 800746c:	4293      	cmp	r3, r2
 800746e:	d100      	bne.n	8007472 <memset+0xa>
 8007470:	4770      	bx	lr
 8007472:	f803 1b01 	strb.w	r1, [r3], #1
 8007476:	e7f9      	b.n	800746c <memset+0x4>

08007478 <sniprintf>:
 8007478:	b40c      	push	{r2, r3}
 800747a:	b530      	push	{r4, r5, lr}
 800747c:	4b17      	ldr	r3, [pc, #92]	; (80074dc <sniprintf+0x64>)
 800747e:	1e0c      	subs	r4, r1, #0
 8007480:	681d      	ldr	r5, [r3, #0]
 8007482:	b09d      	sub	sp, #116	; 0x74
 8007484:	da08      	bge.n	8007498 <sniprintf+0x20>
 8007486:	238b      	movs	r3, #139	; 0x8b
 8007488:	f04f 30ff 	mov.w	r0, #4294967295
 800748c:	602b      	str	r3, [r5, #0]
 800748e:	b01d      	add	sp, #116	; 0x74
 8007490:	e8bd 4030 	ldmia.w	sp!, {r4, r5, lr}
 8007494:	b002      	add	sp, #8
 8007496:	4770      	bx	lr
 8007498:	f44f 7302 	mov.w	r3, #520	; 0x208
 800749c:	f8ad 3014 	strh.w	r3, [sp, #20]
 80074a0:	bf0c      	ite	eq
 80074a2:	4623      	moveq	r3, r4
 80074a4:	f104 33ff 	addne.w	r3, r4, #4294967295
 80074a8:	9304      	str	r3, [sp, #16]
 80074aa:	9307      	str	r3, [sp, #28]
 80074ac:	f64f 73ff 	movw	r3, #65535	; 0xffff
 80074b0:	9002      	str	r0, [sp, #8]
 80074b2:	9006      	str	r0, [sp, #24]
 80074b4:	f8ad 3016 	strh.w	r3, [sp, #22]
 80074b8:	4628      	mov	r0, r5
 80074ba:	ab21      	add	r3, sp, #132	; 0x84
 80074bc:	9a20      	ldr	r2, [sp, #128]	; 0x80
 80074be:	a902      	add	r1, sp, #8
 80074c0:	9301      	str	r3, [sp, #4]
 80074c2:	f000 fb2f 	bl	8007b24 <_svfiprintf_r>
 80074c6:	1c43      	adds	r3, r0, #1
 80074c8:	bfbc      	itt	lt
 80074ca:	238b      	movlt	r3, #139	; 0x8b
 80074cc:	602b      	strlt	r3, [r5, #0]
 80074ce:	2c00      	cmp	r4, #0
 80074d0:	d0dd      	beq.n	800748e <sniprintf+0x16>
 80074d2:	2200      	movs	r2, #0
 80074d4:	9b02      	ldr	r3, [sp, #8]
 80074d6:	701a      	strb	r2, [r3, #0]
 80074d8:	e7d9      	b.n	800748e <sniprintf+0x16>
 80074da:	bf00      	nop
 80074dc:	20000228 	.word	0x20000228

080074e0 <siscanf>:
 80074e0:	b40e      	push	{r1, r2, r3}
 80074e2:	f44f 7201 	mov.w	r2, #516	; 0x204
 80074e6:	b530      	push	{r4, r5, lr}
 80074e8:	b09c      	sub	sp, #112	; 0x70
 80074ea:	ac1f      	add	r4, sp, #124	; 0x7c
 80074ec:	f854 5b04 	ldr.w	r5, [r4], #4
 80074f0:	f8ad 2014 	strh.w	r2, [sp, #20]
 80074f4:	9002      	str	r0, [sp, #8]
 80074f6:	9006      	str	r0, [sp, #24]
 80074f8:	f7f8 fe34 	bl	8000164 <strlen>
 80074fc:	4b0b      	ldr	r3, [pc, #44]	; (800752c <siscanf+0x4c>)
 80074fe:	9003      	str	r0, [sp, #12]
 8007500:	930b      	str	r3, [sp, #44]	; 0x2c
 8007502:	2300      	movs	r3, #0
 8007504:	930f      	str	r3, [sp, #60]	; 0x3c
 8007506:	9314      	str	r3, [sp, #80]	; 0x50
 8007508:	f64f 73ff 	movw	r3, #65535	; 0xffff
 800750c:	9007      	str	r0, [sp, #28]
 800750e:	4808      	ldr	r0, [pc, #32]	; (8007530 <siscanf+0x50>)
 8007510:	f8ad 3016 	strh.w	r3, [sp, #22]
 8007514:	462a      	mov	r2, r5
 8007516:	4623      	mov	r3, r4
 8007518:	a902      	add	r1, sp, #8
 800751a:	6800      	ldr	r0, [r0, #0]
 800751c:	9401      	str	r4, [sp, #4]
 800751e:	f000 fc5b 	bl	8007dd8 <__ssvfiscanf_r>
 8007522:	b01c      	add	sp, #112	; 0x70
 8007524:	e8bd 4030 	ldmia.w	sp!, {r4, r5, lr}
 8007528:	b003      	add	sp, #12
 800752a:	4770      	bx	lr
 800752c:	08007557 	.word	0x08007557
 8007530:	20000228 	.word	0x20000228

08007534 <__sread>:
 8007534:	b510      	push	{r4, lr}
 8007536:	460c      	mov	r4, r1
 8007538:	f9b1 100e 	ldrsh.w	r1, [r1, #14]
 800753c:	f001 fa06 	bl	800894c <_read_r>
 8007540:	2800      	cmp	r0, #0
 8007542:	bfab      	itete	ge
 8007544:	6d63      	ldrge	r3, [r4, #84]	; 0x54
 8007546:	89a3      	ldrhlt	r3, [r4, #12]
 8007548:	181b      	addge	r3, r3, r0
 800754a:	f423 5380 	biclt.w	r3, r3, #4096	; 0x1000
 800754e:	bfac      	ite	ge
 8007550:	6563      	strge	r3, [r4, #84]	; 0x54
 8007552:	81a3      	strhlt	r3, [r4, #12]
 8007554:	bd10      	pop	{r4, pc}

08007556 <__seofread>:
 8007556:	2000      	movs	r0, #0
 8007558:	4770      	bx	lr

0800755a <__swrite>:
 800755a:	e92d 41f0 	stmdb	sp!, {r4, r5, r6, r7, r8, lr}
 800755e:	461f      	mov	r7, r3
 8007560:	898b      	ldrh	r3, [r1, #12]
 8007562:	4605      	mov	r5, r0
 8007564:	05db      	lsls	r3, r3, #23
 8007566:	460c      	mov	r4, r1
 8007568:	4616      	mov	r6, r2
 800756a:	d505      	bpl.n	8007578 <__swrite+0x1e>
 800756c:	2302      	movs	r3, #2
 800756e:	2200      	movs	r2, #0
 8007570:	f9b1 100e 	ldrsh.w	r1, [r1, #14]
 8007574:	f000 f984 	bl	8007880 <_lseek_r>
 8007578:	89a3      	ldrh	r3, [r4, #12]
 800757a:	4632      	mov	r2, r6
 800757c:	f423 5380 	bic.w	r3, r3, #4096	; 0x1000
 8007580:	81a3      	strh	r3, [r4, #12]
 8007582:	4628      	mov	r0, r5
 8007584:	463b      	mov	r3, r7
 8007586:	f9b4 100e 	ldrsh.w	r1, [r4, #14]
 800758a:	e8bd 41f0 	ldmia.w	sp!, {r4, r5, r6, r7, r8, lr}
 800758e:	f000 b925 	b.w	80077dc <_write_r>

08007592 <__sseek>:
 8007592:	b510      	push	{r4, lr}
 8007594:	460c      	mov	r4, r1
 8007596:	f9b1 100e 	ldrsh.w	r1, [r1, #14]
 800759a:	f000 f971 	bl	8007880 <_lseek_r>
 800759e:	1c43      	adds	r3, r0, #1
 80075a0:	89a3      	ldrh	r3, [r4, #12]
 80075a2:	bf15      	itete	ne
 80075a4:	6560      	strne	r0, [r4, #84]	; 0x54
 80075a6:	f423 5380 	biceq.w	r3, r3, #4096	; 0x1000
 80075aa:	f443 5380 	orrne.w	r3, r3, #4096	; 0x1000
 80075ae:	81a3      	strheq	r3, [r4, #12]
 80075b0:	bf18      	it	ne
 80075b2:	81a3      	strhne	r3, [r4, #12]
 80075b4:	bd10      	pop	{r4, pc}

080075b6 <__sclose>:
 80075b6:	f9b1 100e 	ldrsh.w	r1, [r1, #14]
 80075ba:	f000 b93f 	b.w	800783c <_close_r>

080075be <strchr>:
 80075be:	4603      	mov	r3, r0
 80075c0:	b2c9      	uxtb	r1, r1
 80075c2:	4618      	mov	r0, r3
 80075c4:	f813 2b01 	ldrb.w	r2, [r3], #1
 80075c8:	b112      	cbz	r2, 80075d0 <strchr+0x12>
 80075ca:	428a      	cmp	r2, r1
 80075cc:	d1f9      	bne.n	80075c2 <strchr+0x4>
 80075ce:	4770      	bx	lr
 80075d0:	2900      	cmp	r1, #0
 80075d2:	bf18      	it	ne
 80075d4:	2000      	movne	r0, #0
 80075d6:	4770      	bx	lr

080075d8 <strncat>:
 80075d8:	b530      	push	{r4, r5, lr}
 80075da:	4604      	mov	r4, r0
 80075dc:	7825      	ldrb	r5, [r4, #0]
 80075de:	4623      	mov	r3, r4
 80075e0:	3401      	adds	r4, #1
 80075e2:	2d00      	cmp	r5, #0
 80075e4:	d1fa      	bne.n	80075dc <strncat+0x4>
 80075e6:	3a01      	subs	r2, #1
 80075e8:	d304      	bcc.n	80075f4 <strncat+0x1c>
 80075ea:	f811 4b01 	ldrb.w	r4, [r1], #1
 80075ee:	f803 4b01 	strb.w	r4, [r3], #1
 80075f2:	b904      	cbnz	r4, 80075f6 <strncat+0x1e>
 80075f4:	bd30      	pop	{r4, r5, pc}
 80075f6:	2a00      	cmp	r2, #0
 80075f8:	d1f5      	bne.n	80075e6 <strncat+0xe>
 80075fa:	701a      	strb	r2, [r3, #0]
 80075fc:	e7f3      	b.n	80075e6 <strncat+0xe>

080075fe <strncmp>:
 80075fe:	4603      	mov	r3, r0
 8007600:	b510      	push	{r4, lr}
 8007602:	b172      	cbz	r2, 8007622 <strncmp+0x24>
 8007604:	3901      	subs	r1, #1
 8007606:	1884      	adds	r4, r0, r2
 8007608:	f813 0b01 	ldrb.w	r0, [r3], #1
 800760c:	f811 2f01 	ldrb.w	r2, [r1, #1]!
 8007610:	4290      	cmp	r0, r2
 8007612:	d101      	bne.n	8007618 <strncmp+0x1a>
 8007614:	42a3      	cmp	r3, r4
 8007616:	d101      	bne.n	800761c <strncmp+0x1e>
 8007618:	1a80      	subs	r0, r0, r2
 800761a:	bd10      	pop	{r4, pc}
 800761c:	2800      	cmp	r0, #0
 800761e:	d1f3      	bne.n	8007608 <strncmp+0xa>
 8007620:	e7fa      	b.n	8007618 <strncmp+0x1a>
 8007622:	4610      	mov	r0, r2
 8007624:	e7f9      	b.n	800761a <strncmp+0x1c>
	...

08007628 <strtok>:
 8007628:	4b16      	ldr	r3, [pc, #88]	; (8007684 <strtok+0x5c>)
 800762a:	e92d 41f0 	stmdb	sp!, {r4, r5, r6, r7, r8, lr}
 800762e:	681f      	ldr	r7, [r3, #0]
 8007630:	4605      	mov	r5, r0
 8007632:	6dbc      	ldr	r4, [r7, #88]	; 0x58
 8007634:	460e      	mov	r6, r1
 8007636:	b9ec      	cbnz	r4, 8007674 <strtok+0x4c>
 8007638:	2050      	movs	r0, #80	; 0x50
 800763a:	f000 f933 	bl	80078a4 <malloc>
 800763e:	4602      	mov	r2, r0
 8007640:	65b8      	str	r0, [r7, #88]	; 0x58
 8007642:	b920      	cbnz	r0, 800764e <strtok+0x26>
 8007644:	2157      	movs	r1, #87	; 0x57
 8007646:	4b10      	ldr	r3, [pc, #64]	; (8007688 <strtok+0x60>)
 8007648:	4810      	ldr	r0, [pc, #64]	; (800768c <strtok+0x64>)
 800764a:	f000 f8d9 	bl	8007800 <__assert_func>
 800764e:	e9c0 4400 	strd	r4, r4, [r0]
 8007652:	e9c0 4402 	strd	r4, r4, [r0, #8]
 8007656:	e9c0 4404 	strd	r4, r4, [r0, #16]
 800765a:	e9c0 440a 	strd	r4, r4, [r0, #40]	; 0x28
 800765e:	e9c0 440c 	strd	r4, r4, [r0, #48]	; 0x30
 8007662:	e9c0 440e 	strd	r4, r4, [r0, #56]	; 0x38
 8007666:	e9c0 4410 	strd	r4, r4, [r0, #64]	; 0x40
 800766a:	e9c0 4412 	strd	r4, r4, [r0, #72]	; 0x48
 800766e:	6184      	str	r4, [r0, #24]
 8007670:	7704      	strb	r4, [r0, #28]
 8007672:	6244      	str	r4, [r0, #36]	; 0x24
 8007674:	4631      	mov	r1, r6
 8007676:	4628      	mov	r0, r5
 8007678:	6dba      	ldr	r2, [r7, #88]	; 0x58
 800767a:	2301      	movs	r3, #1
 800767c:	e8bd 41f0 	ldmia.w	sp!, {r4, r5, r6, r7, r8, lr}
 8007680:	f000 b806 	b.w	8007690 <__strtok_r>
 8007684:	20000228 	.word	0x20000228
 8007688:	08009c2c 	.word	0x08009c2c
 800768c:	08009c43 	.word	0x08009c43

08007690 <__strtok_r>:
 8007690:	b5f0      	push	{r4, r5, r6, r7, lr}
 8007692:	b908      	cbnz	r0, 8007698 <__strtok_r+0x8>
 8007694:	6810      	ldr	r0, [r2, #0]
 8007696:	b188      	cbz	r0, 80076bc <__strtok_r+0x2c>
 8007698:	4604      	mov	r4, r0
 800769a:	460f      	mov	r7, r1
 800769c:	4620      	mov	r0, r4
 800769e:	f814 5b01 	ldrb.w	r5, [r4], #1
 80076a2:	f817 6b01 	ldrb.w	r6, [r7], #1
 80076a6:	b91e      	cbnz	r6, 80076b0 <__strtok_r+0x20>
 80076a8:	b965      	cbnz	r5, 80076c4 <__strtok_r+0x34>
 80076aa:	4628      	mov	r0, r5
 80076ac:	6015      	str	r5, [r2, #0]
 80076ae:	e005      	b.n	80076bc <__strtok_r+0x2c>
 80076b0:	42b5      	cmp	r5, r6
 80076b2:	d1f6      	bne.n	80076a2 <__strtok_r+0x12>
 80076b4:	2b00      	cmp	r3, #0
 80076b6:	d1f0      	bne.n	800769a <__strtok_r+0xa>
 80076b8:	6014      	str	r4, [r2, #0]
 80076ba:	7003      	strb	r3, [r0, #0]
 80076bc:	bdf0      	pop	{r4, r5, r6, r7, pc}
 80076be:	461c      	mov	r4, r3
 80076c0:	e00c      	b.n	80076dc <__strtok_r+0x4c>
 80076c2:	b915      	cbnz	r5, 80076ca <__strtok_r+0x3a>
 80076c4:	460e      	mov	r6, r1
 80076c6:	f814 3b01 	ldrb.w	r3, [r4], #1
 80076ca:	f816 5b01 	ldrb.w	r5, [r6], #1
 80076ce:	42ab      	cmp	r3, r5
 80076d0:	d1f7      	bne.n	80076c2 <__strtok_r+0x32>
 80076d2:	2b00      	cmp	r3, #0
 80076d4:	d0f3      	beq.n	80076be <__strtok_r+0x2e>
 80076d6:	2300      	movs	r3, #0
 80076d8:	f804 3c01 	strb.w	r3, [r4, #-1]
 80076dc:	6014      	str	r4, [r2, #0]
 80076de:	e7ed      	b.n	80076bc <__strtok_r+0x2c>

080076e0 <_strtoul_l.constprop.0>:
 80076e0:	e92d 43f0 	stmdb	sp!, {r4, r5, r6, r7, r8, r9, lr}
 80076e4:	4686      	mov	lr, r0
 80076e6:	460d      	mov	r5, r1
 80076e8:	4f35      	ldr	r7, [pc, #212]	; (80077c0 <_strtoul_l.constprop.0+0xe0>)
 80076ea:	4628      	mov	r0, r5
 80076ec:	f815 4b01 	ldrb.w	r4, [r5], #1
 80076f0:	5de6      	ldrb	r6, [r4, r7]
 80076f2:	f016 0608 	ands.w	r6, r6, #8
 80076f6:	d1f8      	bne.n	80076ea <_strtoul_l.constprop.0+0xa>
 80076f8:	2c2d      	cmp	r4, #45	; 0x2d
 80076fa:	d12f      	bne.n	800775c <_strtoul_l.constprop.0+0x7c>
 80076fc:	2601      	movs	r6, #1
 80076fe:	782c      	ldrb	r4, [r5, #0]
 8007700:	1c85      	adds	r5, r0, #2
 8007702:	2b00      	cmp	r3, #0
 8007704:	d057      	beq.n	80077b6 <_strtoul_l.constprop.0+0xd6>
 8007706:	2b10      	cmp	r3, #16
 8007708:	d109      	bne.n	800771e <_strtoul_l.constprop.0+0x3e>
 800770a:	2c30      	cmp	r4, #48	; 0x30
 800770c:	d107      	bne.n	800771e <_strtoul_l.constprop.0+0x3e>
 800770e:	7828      	ldrb	r0, [r5, #0]
 8007710:	f000 00df 	and.w	r0, r0, #223	; 0xdf
 8007714:	2858      	cmp	r0, #88	; 0x58
 8007716:	d149      	bne.n	80077ac <_strtoul_l.constprop.0+0xcc>
 8007718:	2310      	movs	r3, #16
 800771a:	786c      	ldrb	r4, [r5, #1]
 800771c:	3502      	adds	r5, #2
 800771e:	f04f 38ff 	mov.w	r8, #4294967295
 8007722:	fbb8 f8f3 	udiv	r8, r8, r3
 8007726:	2700      	movs	r7, #0
 8007728:	fb03 f908 	mul.w	r9, r3, r8
 800772c:	4638      	mov	r0, r7
 800772e:	ea6f 0909 	mvn.w	r9, r9
 8007732:	f1a4 0c30 	sub.w	ip, r4, #48	; 0x30
 8007736:	f1bc 0f09 	cmp.w	ip, #9
 800773a:	d814      	bhi.n	8007766 <_strtoul_l.constprop.0+0x86>
 800773c:	4664      	mov	r4, ip
 800773e:	42a3      	cmp	r3, r4
 8007740:	dd22      	ble.n	8007788 <_strtoul_l.constprop.0+0xa8>
 8007742:	2f00      	cmp	r7, #0
 8007744:	db1d      	blt.n	8007782 <_strtoul_l.constprop.0+0xa2>
 8007746:	4580      	cmp	r8, r0
 8007748:	d31b      	bcc.n	8007782 <_strtoul_l.constprop.0+0xa2>
 800774a:	d101      	bne.n	8007750 <_strtoul_l.constprop.0+0x70>
 800774c:	45a1      	cmp	r9, r4
 800774e:	db18      	blt.n	8007782 <_strtoul_l.constprop.0+0xa2>
 8007750:	2701      	movs	r7, #1
 8007752:	fb00 4003 	mla	r0, r0, r3, r4
 8007756:	f815 4b01 	ldrb.w	r4, [r5], #1
 800775a:	e7ea      	b.n	8007732 <_strtoul_l.constprop.0+0x52>
 800775c:	2c2b      	cmp	r4, #43	; 0x2b
 800775e:	bf04      	itt	eq
 8007760:	782c      	ldrbeq	r4, [r5, #0]
 8007762:	1c85      	addeq	r5, r0, #2
 8007764:	e7cd      	b.n	8007702 <_strtoul_l.constprop.0+0x22>
 8007766:	f1a4 0c41 	sub.w	ip, r4, #65	; 0x41
 800776a:	f1bc 0f19 	cmp.w	ip, #25
 800776e:	d801      	bhi.n	8007774 <_strtoul_l.constprop.0+0x94>
 8007770:	3c37      	subs	r4, #55	; 0x37
 8007772:	e7e4      	b.n	800773e <_strtoul_l.constprop.0+0x5e>
 8007774:	f1a4 0c61 	sub.w	ip, r4, #97	; 0x61
 8007778:	f1bc 0f19 	cmp.w	ip, #25
 800777c:	d804      	bhi.n	8007788 <_strtoul_l.constprop.0+0xa8>
 800777e:	3c57      	subs	r4, #87	; 0x57
 8007780:	e7dd      	b.n	800773e <_strtoul_l.constprop.0+0x5e>
 8007782:	f04f 37ff 	mov.w	r7, #4294967295
 8007786:	e7e6      	b.n	8007756 <_strtoul_l.constprop.0+0x76>
 8007788:	2f00      	cmp	r7, #0
 800778a:	da07      	bge.n	800779c <_strtoul_l.constprop.0+0xbc>
 800778c:	2322      	movs	r3, #34	; 0x22
 800778e:	f04f 30ff 	mov.w	r0, #4294967295
 8007792:	f8ce 3000 	str.w	r3, [lr]
 8007796:	b932      	cbnz	r2, 80077a6 <_strtoul_l.constprop.0+0xc6>
 8007798:	e8bd 83f0 	ldmia.w	sp!, {r4, r5, r6, r7, r8, r9, pc}
 800779c:	b106      	cbz	r6, 80077a0 <_strtoul_l.constprop.0+0xc0>
 800779e:	4240      	negs	r0, r0
 80077a0:	2a00      	cmp	r2, #0
 80077a2:	d0f9      	beq.n	8007798 <_strtoul_l.constprop.0+0xb8>
 80077a4:	b107      	cbz	r7, 80077a8 <_strtoul_l.constprop.0+0xc8>
 80077a6:	1e69      	subs	r1, r5, #1
 80077a8:	6011      	str	r1, [r2, #0]
 80077aa:	e7f5      	b.n	8007798 <_strtoul_l.constprop.0+0xb8>
 80077ac:	2430      	movs	r4, #48	; 0x30
 80077ae:	2b00      	cmp	r3, #0
 80077b0:	d1b5      	bne.n	800771e <_strtoul_l.constprop.0+0x3e>
 80077b2:	2308      	movs	r3, #8
 80077b4:	e7b3      	b.n	800771e <_strtoul_l.constprop.0+0x3e>
 80077b6:	2c30      	cmp	r4, #48	; 0x30
 80077b8:	d0a9      	beq.n	800770e <_strtoul_l.constprop.0+0x2e>
 80077ba:	230a      	movs	r3, #10
 80077bc:	e7af      	b.n	800771e <_strtoul_l.constprop.0+0x3e>
 80077be:	bf00      	nop
 80077c0:	08009b25 	.word	0x08009b25

080077c4 <_strtoul_r>:
 80077c4:	f7ff bf8c 	b.w	80076e0 <_strtoul_l.constprop.0>

080077c8 <strtoul>:
 80077c8:	4613      	mov	r3, r2
 80077ca:	460a      	mov	r2, r1
 80077cc:	4601      	mov	r1, r0
 80077ce:	4802      	ldr	r0, [pc, #8]	; (80077d8 <strtoul+0x10>)
 80077d0:	6800      	ldr	r0, [r0, #0]
 80077d2:	f7ff bf85 	b.w	80076e0 <_strtoul_l.constprop.0>
 80077d6:	bf00      	nop
 80077d8:	20000228 	.word	0x20000228

080077dc <_write_r>:
 80077dc:	b538      	push	{r3, r4, r5, lr}
 80077de:	4604      	mov	r4, r0
 80077e0:	4608      	mov	r0, r1
 80077e2:	4611      	mov	r1, r2
 80077e4:	2200      	movs	r2, #0
 80077e6:	4d05      	ldr	r5, [pc, #20]	; (80077fc <_write_r+0x20>)
 80077e8:	602a      	str	r2, [r5, #0]
 80077ea:	461a      	mov	r2, r3
 80077ec:	f7f8 ff74 	bl	80006d8 <_write>
 80077f0:	1c43      	adds	r3, r0, #1
 80077f2:	d102      	bne.n	80077fa <_write_r+0x1e>
 80077f4:	682b      	ldr	r3, [r5, #0]
 80077f6:	b103      	cbz	r3, 80077fa <_write_r+0x1e>
 80077f8:	6023      	str	r3, [r4, #0]
 80077fa:	bd38      	pop	{r3, r4, r5, pc}
 80077fc:	20002e7c 	.word	0x20002e7c

08007800 <__assert_func>:
 8007800:	b51f      	push	{r0, r1, r2, r3, r4, lr}
 8007802:	4614      	mov	r4, r2
 8007804:	461a      	mov	r2, r3
 8007806:	4b09      	ldr	r3, [pc, #36]	; (800782c <__assert_func+0x2c>)
 8007808:	4605      	mov	r5, r0
 800780a:	681b      	ldr	r3, [r3, #0]
 800780c:	68d8      	ldr	r0, [r3, #12]
 800780e:	b14c      	cbz	r4, 8007824 <__assert_func+0x24>
 8007810:	4b07      	ldr	r3, [pc, #28]	; (8007830 <__assert_func+0x30>)
 8007812:	e9cd 3401 	strd	r3, r4, [sp, #4]
 8007816:	9100      	str	r1, [sp, #0]
 8007818:	462b      	mov	r3, r5
 800781a:	4906      	ldr	r1, [pc, #24]	; (8007834 <__assert_func+0x34>)
 800781c:	f000 f81e 	bl	800785c <fiprintf>
 8007820:	f001 fa64 	bl	8008cec <abort>
 8007824:	4b04      	ldr	r3, [pc, #16]	; (8007838 <__assert_func+0x38>)
 8007826:	461c      	mov	r4, r3
 8007828:	e7f3      	b.n	8007812 <__assert_func+0x12>
 800782a:	bf00      	nop
 800782c:	20000228 	.word	0x20000228
 8007830:	08009ca0 	.word	0x08009ca0
 8007834:	08009cad 	.word	0x08009cad
 8007838:	080097f1 	.word	0x080097f1

0800783c <_close_r>:
 800783c:	b538      	push	{r3, r4, r5, lr}
 800783e:	2300      	movs	r3, #0
 8007840:	4d05      	ldr	r5, [pc, #20]	; (8007858 <_close_r+0x1c>)
 8007842:	4604      	mov	r4, r0
 8007844:	4608      	mov	r0, r1
 8007846:	602b      	str	r3, [r5, #0]
 8007848:	f7f8 ff54 	bl	80006f4 <_close>
 800784c:	1c43      	adds	r3, r0, #1
 800784e:	d102      	bne.n	8007856 <_close_r+0x1a>
 8007850:	682b      	ldr	r3, [r5, #0]
 8007852:	b103      	cbz	r3, 8007856 <_close_r+0x1a>
 8007854:	6023      	str	r3, [r4, #0]
 8007856:	bd38      	pop	{r3, r4, r5, pc}
 8007858:	20002e7c 	.word	0x20002e7c

0800785c <fiprintf>:
 800785c:	b40e      	push	{r1, r2, r3}
 800785e:	b503      	push	{r0, r1, lr}
 8007860:	4601      	mov	r1, r0
 8007862:	ab03      	add	r3, sp, #12
 8007864:	4805      	ldr	r0, [pc, #20]	; (800787c <fiprintf+0x20>)
 8007866:	f853 2b04 	ldr.w	r2, [r3], #4
 800786a:	6800      	ldr	r0, [r0, #0]
 800786c:	9301      	str	r3, [sp, #4]
 800786e:	f000 fc55 	bl	800811c <_vfiprintf_r>
 8007872:	b002      	add	sp, #8
 8007874:	f85d eb04 	ldr.w	lr, [sp], #4
 8007878:	b003      	add	sp, #12
 800787a:	4770      	bx	lr
 800787c:	20000228 	.word	0x20000228

08007880 <_lseek_r>:
 8007880:	b538      	push	{r3, r4, r5, lr}
 8007882:	4604      	mov	r4, r0
 8007884:	4608      	mov	r0, r1
 8007886:	4611      	mov	r1, r2
 8007888:	2200      	movs	r2, #0
 800788a:	4d05      	ldr	r5, [pc, #20]	; (80078a0 <_lseek_r+0x20>)
 800788c:	602a      	str	r2, [r5, #0]
 800788e:	461a      	mov	r2, r3
 8007890:	f7f8 ff3a 	bl	8000708 <_lseek>
 8007894:	1c43      	adds	r3, r0, #1
 8007896:	d102      	bne.n	800789e <_lseek_r+0x1e>
 8007898:	682b      	ldr	r3, [r5, #0]
 800789a:	b103      	cbz	r3, 800789e <_lseek_r+0x1e>
 800789c:	6023      	str	r3, [r4, #0]
 800789e:	bd38      	pop	{r3, r4, r5, pc}
 80078a0:	20002e7c 	.word	0x20002e7c

080078a4 <malloc>:
 80078a4:	4b02      	ldr	r3, [pc, #8]	; (80078b0 <malloc+0xc>)
 80078a6:	4601      	mov	r1, r0
 80078a8:	6818      	ldr	r0, [r3, #0]
 80078aa:	f000 b86b 	b.w	8007984 <_malloc_r>
 80078ae:	bf00      	nop
 80078b0:	20000228 	.word	0x20000228

080078b4 <_free_r>:
 80078b4:	b538      	push	{r3, r4, r5, lr}
 80078b6:	4605      	mov	r5, r0
 80078b8:	2900      	cmp	r1, #0
 80078ba:	d040      	beq.n	800793e <_free_r+0x8a>
 80078bc:	f851 3c04 	ldr.w	r3, [r1, #-4]
 80078c0:	1f0c      	subs	r4, r1, #4
 80078c2:	2b00      	cmp	r3, #0
 80078c4:	bfb8      	it	lt
 80078c6:	18e4      	addlt	r4, r4, r3
 80078c8:	f001 fc42 	bl	8009150 <__malloc_lock>
 80078cc:	4a1c      	ldr	r2, [pc, #112]	; (8007940 <_free_r+0x8c>)
 80078ce:	6813      	ldr	r3, [r2, #0]
 80078d0:	b933      	cbnz	r3, 80078e0 <_free_r+0x2c>
 80078d2:	6063      	str	r3, [r4, #4]
 80078d4:	6014      	str	r4, [r2, #0]
 80078d6:	4628      	mov	r0, r5
 80078d8:	e8bd 4038 	ldmia.w	sp!, {r3, r4, r5, lr}
 80078dc:	f001 bc3e 	b.w	800915c <__malloc_unlock>
 80078e0:	42a3      	cmp	r3, r4
 80078e2:	d908      	bls.n	80078f6 <_free_r+0x42>
 80078e4:	6820      	ldr	r0, [r4, #0]
 80078e6:	1821      	adds	r1, r4, r0
 80078e8:	428b      	cmp	r3, r1
 80078ea:	bf01      	itttt	eq
 80078ec:	6819      	ldreq	r1, [r3, #0]
 80078ee:	685b      	ldreq	r3, [r3, #4]
 80078f0:	1809      	addeq	r1, r1, r0
 80078f2:	6021      	streq	r1, [r4, #0]
 80078f4:	e7ed      	b.n	80078d2 <_free_r+0x1e>
 80078f6:	461a      	mov	r2, r3
 80078f8:	685b      	ldr	r3, [r3, #4]
 80078fa:	b10b      	cbz	r3, 8007900 <_free_r+0x4c>
 80078fc:	42a3      	cmp	r3, r4
 80078fe:	d9fa      	bls.n	80078f6 <_free_r+0x42>
 8007900:	6811      	ldr	r1, [r2, #0]
 8007902:	1850      	adds	r0, r2, r1
 8007904:	42a0      	cmp	r0, r4
 8007906:	d10b      	bne.n	8007920 <_free_r+0x6c>
 8007908:	6820      	ldr	r0, [r4, #0]
 800790a:	4401      	add	r1, r0
 800790c:	1850      	adds	r0, r2, r1
 800790e:	4283      	cmp	r3, r0
 8007910:	6011      	str	r1, [r2, #0]
 8007912:	d1e0      	bne.n	80078d6 <_free_r+0x22>
 8007914:	6818      	ldr	r0, [r3, #0]
 8007916:	685b      	ldr	r3, [r3, #4]
 8007918:	4401      	add	r1, r0
 800791a:	6011      	str	r1, [r2, #0]
 800791c:	6053      	str	r3, [r2, #4]
 800791e:	e7da      	b.n	80078d6 <_free_r+0x22>
 8007920:	d902      	bls.n	8007928 <_free_r+0x74>
 8007922:	230c      	movs	r3, #12
 8007924:	602b      	str	r3, [r5, #0]
 8007926:	e7d6      	b.n	80078d6 <_free_r+0x22>
 8007928:	6820      	ldr	r0, [r4, #0]
 800792a:	1821      	adds	r1, r4, r0
 800792c:	428b      	cmp	r3, r1
 800792e:	bf01      	itttt	eq
 8007930:	6819      	ldreq	r1, [r3, #0]
 8007932:	685b      	ldreq	r3, [r3, #4]
 8007934:	1809      	addeq	r1, r1, r0
 8007936:	6021      	streq	r1, [r4, #0]
 8007938:	6063      	str	r3, [r4, #4]
 800793a:	6054      	str	r4, [r2, #4]
 800793c:	e7cb      	b.n	80078d6 <_free_r+0x22>
 800793e:	bd38      	pop	{r3, r4, r5, pc}
 8007940:	20002e74 	.word	0x20002e74

08007944 <sbrk_aligned>:
 8007944:	b570      	push	{r4, r5, r6, lr}
 8007946:	4e0e      	ldr	r6, [pc, #56]	; (8007980 <sbrk_aligned+0x3c>)
 8007948:	460c      	mov	r4, r1
 800794a:	6831      	ldr	r1, [r6, #0]
 800794c:	4605      	mov	r5, r0
 800794e:	b911      	cbnz	r1, 8007956 <sbrk_aligned+0x12>
 8007950:	f001 f80e 	bl	8008970 <_sbrk_r>
 8007954:	6030      	str	r0, [r6, #0]
 8007956:	4621      	mov	r1, r4
 8007958:	4628      	mov	r0, r5
 800795a:	f001 f809 	bl	8008970 <_sbrk_r>
 800795e:	1c43      	adds	r3, r0, #1
 8007960:	d00a      	beq.n	8007978 <sbrk_aligned+0x34>
 8007962:	1cc4      	adds	r4, r0, #3
 8007964:	f024 0403 	bic.w	r4, r4, #3
 8007968:	42a0      	cmp	r0, r4
 800796a:	d007      	beq.n	800797c <sbrk_aligned+0x38>
 800796c:	1a21      	subs	r1, r4, r0
 800796e:	4628      	mov	r0, r5
 8007970:	f000 fffe 	bl	8008970 <_sbrk_r>
 8007974:	3001      	adds	r0, #1
 8007976:	d101      	bne.n	800797c <sbrk_aligned+0x38>
 8007978:	f04f 34ff 	mov.w	r4, #4294967295
 800797c:	4620      	mov	r0, r4
 800797e:	bd70      	pop	{r4, r5, r6, pc}
 8007980:	20002e78 	.word	0x20002e78

08007984 <_malloc_r>:
 8007984:	e92d 41f0 	stmdb	sp!, {r4, r5, r6, r7, r8, lr}
 8007988:	1ccd      	adds	r5, r1, #3
 800798a:	f025 0503 	bic.w	r5, r5, #3
 800798e:	3508      	adds	r5, #8
 8007990:	2d0c      	cmp	r5, #12
 8007992:	bf38      	it	cc
 8007994:	250c      	movcc	r5, #12
 8007996:	2d00      	cmp	r5, #0
 8007998:	4607      	mov	r7, r0
 800799a:	db01      	blt.n	80079a0 <_malloc_r+0x1c>
 800799c:	42a9      	cmp	r1, r5
 800799e:	d905      	bls.n	80079ac <_malloc_r+0x28>
 80079a0:	230c      	movs	r3, #12
 80079a2:	2600      	movs	r6, #0
 80079a4:	603b      	str	r3, [r7, #0]
 80079a6:	4630      	mov	r0, r6
 80079a8:	e8bd 81f0 	ldmia.w	sp!, {r4, r5, r6, r7, r8, pc}
 80079ac:	4e2e      	ldr	r6, [pc, #184]	; (8007a68 <_malloc_r+0xe4>)
 80079ae:	f001 fbcf 	bl	8009150 <__malloc_lock>
 80079b2:	6833      	ldr	r3, [r6, #0]
 80079b4:	461c      	mov	r4, r3
 80079b6:	bb34      	cbnz	r4, 8007a06 <_malloc_r+0x82>
 80079b8:	4629      	mov	r1, r5
 80079ba:	4638      	mov	r0, r7
 80079bc:	f7ff ffc2 	bl	8007944 <sbrk_aligned>
 80079c0:	1c43      	adds	r3, r0, #1
 80079c2:	4604      	mov	r4, r0
 80079c4:	d14d      	bne.n	8007a62 <_malloc_r+0xde>
 80079c6:	6834      	ldr	r4, [r6, #0]
 80079c8:	4626      	mov	r6, r4
 80079ca:	2e00      	cmp	r6, #0
 80079cc:	d140      	bne.n	8007a50 <_malloc_r+0xcc>
 80079ce:	6823      	ldr	r3, [r4, #0]
 80079d0:	4631      	mov	r1, r6
 80079d2:	4638      	mov	r0, r7
 80079d4:	eb04 0803 	add.w	r8, r4, r3
 80079d8:	f000 ffca 	bl	8008970 <_sbrk_r>
 80079dc:	4580      	cmp	r8, r0
 80079de:	d13a      	bne.n	8007a56 <_malloc_r+0xd2>
 80079e0:	6821      	ldr	r1, [r4, #0]
 80079e2:	3503      	adds	r5, #3
 80079e4:	1a6d      	subs	r5, r5, r1
 80079e6:	f025 0503 	bic.w	r5, r5, #3
 80079ea:	3508      	adds	r5, #8
 80079ec:	2d0c      	cmp	r5, #12
 80079ee:	bf38      	it	cc
 80079f0:	250c      	movcc	r5, #12
 80079f2:	4638      	mov	r0, r7
 80079f4:	4629      	mov	r1, r5
 80079f6:	f7ff ffa5 	bl	8007944 <sbrk_aligned>
 80079fa:	3001      	adds	r0, #1
 80079fc:	d02b      	beq.n	8007a56 <_malloc_r+0xd2>
 80079fe:	6823      	ldr	r3, [r4, #0]
 8007a00:	442b      	add	r3, r5
 8007a02:	6023      	str	r3, [r4, #0]
 8007a04:	e00e      	b.n	8007a24 <_malloc_r+0xa0>
 8007a06:	6822      	ldr	r2, [r4, #0]
 8007a08:	1b52      	subs	r2, r2, r5
 8007a0a:	d41e      	bmi.n	8007a4a <_malloc_r+0xc6>
 8007a0c:	2a0b      	cmp	r2, #11
 8007a0e:	d916      	bls.n	8007a3e <_malloc_r+0xba>
 8007a10:	1961      	adds	r1, r4, r5
 8007a12:	42a3      	cmp	r3, r4
 8007a14:	6025      	str	r5, [r4, #0]
 8007a16:	bf18      	it	ne
 8007a18:	6059      	strne	r1, [r3, #4]
 8007a1a:	6863      	ldr	r3, [r4, #4]
 8007a1c:	bf08      	it	eq
 8007a1e:	6031      	streq	r1, [r6, #0]
 8007a20:	5162      	str	r2, [r4, r5]
 8007a22:	604b      	str	r3, [r1, #4]
 8007a24:	4638      	mov	r0, r7
 8007a26:	f104 060b 	add.w	r6, r4, #11
 8007a2a:	f001 fb97 	bl	800915c <__malloc_unlock>
 8007a2e:	f026 0607 	bic.w	r6, r6, #7
 8007a32:	1d23      	adds	r3, r4, #4
 8007a34:	1af2      	subs	r2, r6, r3
 8007a36:	d0b6      	beq.n	80079a6 <_malloc_r+0x22>
 8007a38:	1b9b      	subs	r3, r3, r6
 8007a3a:	50a3      	str	r3, [r4, r2]
 8007a3c:	e7b3      	b.n	80079a6 <_malloc_r+0x22>
 8007a3e:	6862      	ldr	r2, [r4, #4]
 8007a40:	42a3      	cmp	r3, r4
 8007a42:	bf0c      	ite	eq
 8007a44:	6032      	streq	r2, [r6, #0]
 8007a46:	605a      	strne	r2, [r3, #4]
 8007a48:	e7ec      	b.n	8007a24 <_malloc_r+0xa0>
 8007a4a:	4623      	mov	r3, r4
 8007a4c:	6864      	ldr	r4, [r4, #4]
 8007a4e:	e7b2      	b.n	80079b6 <_malloc_r+0x32>
 8007a50:	4634      	mov	r4, r6
 8007a52:	6876      	ldr	r6, [r6, #4]
 8007a54:	e7b9      	b.n	80079ca <_malloc_r+0x46>
 8007a56:	230c      	movs	r3, #12
 8007a58:	4638      	mov	r0, r7
 8007a5a:	603b      	str	r3, [r7, #0]
 8007a5c:	f001 fb7e 	bl	800915c <__malloc_unlock>
 8007a60:	e7a1      	b.n	80079a6 <_malloc_r+0x22>
 8007a62:	6025      	str	r5, [r4, #0]
 8007a64:	e7de      	b.n	8007a24 <_malloc_r+0xa0>
 8007a66:	bf00      	nop
 8007a68:	20002e74 	.word	0x20002e74

08007a6c <__ssputs_r>:
 8007a6c:	e92d 47f0 	stmdb	sp!, {r4, r5, r6, r7, r8, r9, sl, lr}
 8007a70:	688e      	ldr	r6, [r1, #8]
 8007a72:	4682      	mov	sl, r0
 8007a74:	429e      	cmp	r6, r3
 8007a76:	460c      	mov	r4, r1
 8007a78:	4690      	mov	r8, r2
 8007a7a:	461f      	mov	r7, r3
 8007a7c:	d838      	bhi.n	8007af0 <__ssputs_r+0x84>
 8007a7e:	898a      	ldrh	r2, [r1, #12]
 8007a80:	f412 6f90 	tst.w	r2, #1152	; 0x480
 8007a84:	d032      	beq.n	8007aec <__ssputs_r+0x80>
 8007a86:	6825      	ldr	r5, [r4, #0]
 8007a88:	6909      	ldr	r1, [r1, #16]
 8007a8a:	3301      	adds	r3, #1
 8007a8c:	eba5 0901 	sub.w	r9, r5, r1
 8007a90:	6965      	ldr	r5, [r4, #20]
 8007a92:	444b      	add	r3, r9
 8007a94:	eb05 0545 	add.w	r5, r5, r5, lsl #1
 8007a98:	eb05 75d5 	add.w	r5, r5, r5, lsr #31
 8007a9c:	106d      	asrs	r5, r5, #1
 8007a9e:	429d      	cmp	r5, r3
 8007aa0:	bf38      	it	cc
 8007aa2:	461d      	movcc	r5, r3
 8007aa4:	0553      	lsls	r3, r2, #21
 8007aa6:	d531      	bpl.n	8007b0c <__ssputs_r+0xa0>
 8007aa8:	4629      	mov	r1, r5
 8007aaa:	f7ff ff6b 	bl	8007984 <_malloc_r>
 8007aae:	4606      	mov	r6, r0
 8007ab0:	b950      	cbnz	r0, 8007ac8 <__ssputs_r+0x5c>
 8007ab2:	230c      	movs	r3, #12
 8007ab4:	f04f 30ff 	mov.w	r0, #4294967295
 8007ab8:	f8ca 3000 	str.w	r3, [sl]
 8007abc:	89a3      	ldrh	r3, [r4, #12]
 8007abe:	f043 0340 	orr.w	r3, r3, #64	; 0x40
 8007ac2:	81a3      	strh	r3, [r4, #12]
 8007ac4:	e8bd 87f0 	ldmia.w	sp!, {r4, r5, r6, r7, r8, r9, sl, pc}
 8007ac8:	464a      	mov	r2, r9
 8007aca:	6921      	ldr	r1, [r4, #16]
 8007acc:	f7ff fca4 	bl	8007418 <memcpy>
 8007ad0:	89a3      	ldrh	r3, [r4, #12]
 8007ad2:	f423 6390 	bic.w	r3, r3, #1152	; 0x480
 8007ad6:	f043 0380 	orr.w	r3, r3, #128	; 0x80
 8007ada:	81a3      	strh	r3, [r4, #12]
 8007adc:	6126      	str	r6, [r4, #16]
 8007ade:	444e      	add	r6, r9
 8007ae0:	6026      	str	r6, [r4, #0]
 8007ae2:	463e      	mov	r6, r7
 8007ae4:	6165      	str	r5, [r4, #20]
 8007ae6:	eba5 0509 	sub.w	r5, r5, r9
 8007aea:	60a5      	str	r5, [r4, #8]
 8007aec:	42be      	cmp	r6, r7
 8007aee:	d900      	bls.n	8007af2 <__ssputs_r+0x86>
 8007af0:	463e      	mov	r6, r7
 8007af2:	4632      	mov	r2, r6
 8007af4:	4641      	mov	r1, r8
 8007af6:	6820      	ldr	r0, [r4, #0]
 8007af8:	f7ff fc9c 	bl	8007434 <memmove>
 8007afc:	68a3      	ldr	r3, [r4, #8]
 8007afe:	2000      	movs	r0, #0
 8007b00:	1b9b      	subs	r3, r3, r6
 8007b02:	60a3      	str	r3, [r4, #8]
 8007b04:	6823      	ldr	r3, [r4, #0]
 8007b06:	4433      	add	r3, r6
 8007b08:	6023      	str	r3, [r4, #0]
 8007b0a:	e7db      	b.n	8007ac4 <__ssputs_r+0x58>
 8007b0c:	462a      	mov	r2, r5
 8007b0e:	f001 fb2b 	bl	8009168 <_realloc_r>
 8007b12:	4606      	mov	r6, r0
 8007b14:	2800      	cmp	r0, #0
 8007b16:	d1e1      	bne.n	8007adc <__ssputs_r+0x70>
 8007b18:	4650      	mov	r0, sl
 8007b1a:	6921      	ldr	r1, [r4, #16]
 8007b1c:	f7ff feca 	bl	80078b4 <_free_r>
 8007b20:	e7c7      	b.n	8007ab2 <__ssputs_r+0x46>
	...

08007b24 <_svfiprintf_r>:
 8007b24:	e92d 4ff0 	stmdb	sp!, {r4, r5, r6, r7, r8, r9, sl, fp, lr}
 8007b28:	4698      	mov	r8, r3
 8007b2a:	898b      	ldrh	r3, [r1, #12]
 8007b2c:	4607      	mov	r7, r0
 8007b2e:	061b      	lsls	r3, r3, #24
 8007b30:	460d      	mov	r5, r1
 8007b32:	4614      	mov	r4, r2
 8007b34:	b09d      	sub	sp, #116	; 0x74
 8007b36:	d50e      	bpl.n	8007b56 <_svfiprintf_r+0x32>
 8007b38:	690b      	ldr	r3, [r1, #16]
 8007b3a:	b963      	cbnz	r3, 8007b56 <_svfiprintf_r+0x32>
 8007b3c:	2140      	movs	r1, #64	; 0x40
 8007b3e:	f7ff ff21 	bl	8007984 <_malloc_r>
 8007b42:	6028      	str	r0, [r5, #0]
 8007b44:	6128      	str	r0, [r5, #16]
 8007b46:	b920      	cbnz	r0, 8007b52 <_svfiprintf_r+0x2e>
 8007b48:	230c      	movs	r3, #12
 8007b4a:	603b      	str	r3, [r7, #0]
 8007b4c:	f04f 30ff 	mov.w	r0, #4294967295
 8007b50:	e0d1      	b.n	8007cf6 <_svfiprintf_r+0x1d2>
 8007b52:	2340      	movs	r3, #64	; 0x40
 8007b54:	616b      	str	r3, [r5, #20]
 8007b56:	2300      	movs	r3, #0
 8007b58:	9309      	str	r3, [sp, #36]	; 0x24
 8007b5a:	2320      	movs	r3, #32
 8007b5c:	f88d 3029 	strb.w	r3, [sp, #41]	; 0x29
 8007b60:	2330      	movs	r3, #48	; 0x30
 8007b62:	f04f 0901 	mov.w	r9, #1
 8007b66:	f8cd 800c 	str.w	r8, [sp, #12]
 8007b6a:	f8df 81a4 	ldr.w	r8, [pc, #420]	; 8007d10 <_svfiprintf_r+0x1ec>
 8007b6e:	f88d 302a 	strb.w	r3, [sp, #42]	; 0x2a
 8007b72:	4623      	mov	r3, r4
 8007b74:	469a      	mov	sl, r3
 8007b76:	f813 2b01 	ldrb.w	r2, [r3], #1
 8007b7a:	b10a      	cbz	r2, 8007b80 <_svfiprintf_r+0x5c>
 8007b7c:	2a25      	cmp	r2, #37	; 0x25
 8007b7e:	d1f9      	bne.n	8007b74 <_svfiprintf_r+0x50>
 8007b80:	ebba 0b04 	subs.w	fp, sl, r4
 8007b84:	d00b      	beq.n	8007b9e <_svfiprintf_r+0x7a>
 8007b86:	465b      	mov	r3, fp
 8007b88:	4622      	mov	r2, r4
 8007b8a:	4629      	mov	r1, r5
 8007b8c:	4638      	mov	r0, r7
 8007b8e:	f7ff ff6d 	bl	8007a6c <__ssputs_r>
 8007b92:	3001      	adds	r0, #1
 8007b94:	f000 80aa 	beq.w	8007cec <_svfiprintf_r+0x1c8>
 8007b98:	9a09      	ldr	r2, [sp, #36]	; 0x24
 8007b9a:	445a      	add	r2, fp
 8007b9c:	9209      	str	r2, [sp, #36]	; 0x24
 8007b9e:	f89a 3000 	ldrb.w	r3, [sl]
 8007ba2:	2b00      	cmp	r3, #0
 8007ba4:	f000 80a2 	beq.w	8007cec <_svfiprintf_r+0x1c8>
 8007ba8:	2300      	movs	r3, #0
 8007baa:	f04f 32ff 	mov.w	r2, #4294967295
 8007bae:	e9cd 2305 	strd	r2, r3, [sp, #20]
 8007bb2:	f10a 0a01 	add.w	sl, sl, #1
 8007bb6:	9304      	str	r3, [sp, #16]
 8007bb8:	9307      	str	r3, [sp, #28]
 8007bba:	f88d 3053 	strb.w	r3, [sp, #83]	; 0x53
 8007bbe:	931a      	str	r3, [sp, #104]	; 0x68
 8007bc0:	4654      	mov	r4, sl
 8007bc2:	2205      	movs	r2, #5
 8007bc4:	f814 1b01 	ldrb.w	r1, [r4], #1
 8007bc8:	4851      	ldr	r0, [pc, #324]	; (8007d10 <_svfiprintf_r+0x1ec>)
 8007bca:	f001 fab3 	bl	8009134 <memchr>
 8007bce:	9a04      	ldr	r2, [sp, #16]
 8007bd0:	b9d8      	cbnz	r0, 8007c0a <_svfiprintf_r+0xe6>
 8007bd2:	06d0      	lsls	r0, r2, #27
 8007bd4:	bf44      	itt	mi
 8007bd6:	2320      	movmi	r3, #32
 8007bd8:	f88d 3053 	strbmi.w	r3, [sp, #83]	; 0x53
 8007bdc:	0711      	lsls	r1, r2, #28
 8007bde:	bf44      	itt	mi
 8007be0:	232b      	movmi	r3, #43	; 0x2b
 8007be2:	f88d 3053 	strbmi.w	r3, [sp, #83]	; 0x53
 8007be6:	f89a 3000 	ldrb.w	r3, [sl]
 8007bea:	2b2a      	cmp	r3, #42	; 0x2a
 8007bec:	d015      	beq.n	8007c1a <_svfiprintf_r+0xf6>
 8007bee:	4654      	mov	r4, sl
 8007bf0:	2000      	movs	r0, #0
 8007bf2:	f04f 0c0a 	mov.w	ip, #10
 8007bf6:	9a07      	ldr	r2, [sp, #28]
 8007bf8:	4621      	mov	r1, r4
 8007bfa:	f811 3b01 	ldrb.w	r3, [r1], #1
 8007bfe:	3b30      	subs	r3, #48	; 0x30
 8007c00:	2b09      	cmp	r3, #9
 8007c02:	d94e      	bls.n	8007ca2 <_svfiprintf_r+0x17e>
 8007c04:	b1b0      	cbz	r0, 8007c34 <_svfiprintf_r+0x110>
 8007c06:	9207      	str	r2, [sp, #28]
 8007c08:	e014      	b.n	8007c34 <_svfiprintf_r+0x110>
 8007c0a:	eba0 0308 	sub.w	r3, r0, r8
 8007c0e:	fa09 f303 	lsl.w	r3, r9, r3
 8007c12:	4313      	orrs	r3, r2
 8007c14:	46a2      	mov	sl, r4
 8007c16:	9304      	str	r3, [sp, #16]
 8007c18:	e7d2      	b.n	8007bc0 <_svfiprintf_r+0x9c>
 8007c1a:	9b03      	ldr	r3, [sp, #12]
 8007c1c:	1d19      	adds	r1, r3, #4
 8007c1e:	681b      	ldr	r3, [r3, #0]
 8007c20:	9103      	str	r1, [sp, #12]
 8007c22:	2b00      	cmp	r3, #0
 8007c24:	bfbb      	ittet	lt
 8007c26:	425b      	neglt	r3, r3
 8007c28:	f042 0202 	orrlt.w	r2, r2, #2
 8007c2c:	9307      	strge	r3, [sp, #28]
 8007c2e:	9307      	strlt	r3, [sp, #28]
 8007c30:	bfb8      	it	lt
 8007c32:	9204      	strlt	r2, [sp, #16]
 8007c34:	7823      	ldrb	r3, [r4, #0]
 8007c36:	2b2e      	cmp	r3, #46	; 0x2e
 8007c38:	d10c      	bne.n	8007c54 <_svfiprintf_r+0x130>
 8007c3a:	7863      	ldrb	r3, [r4, #1]
 8007c3c:	2b2a      	cmp	r3, #42	; 0x2a
 8007c3e:	d135      	bne.n	8007cac <_svfiprintf_r+0x188>
 8007c40:	9b03      	ldr	r3, [sp, #12]
 8007c42:	3402      	adds	r4, #2
 8007c44:	1d1a      	adds	r2, r3, #4
 8007c46:	681b      	ldr	r3, [r3, #0]
 8007c48:	9203      	str	r2, [sp, #12]
 8007c4a:	2b00      	cmp	r3, #0
 8007c4c:	bfb8      	it	lt
 8007c4e:	f04f 33ff 	movlt.w	r3, #4294967295
 8007c52:	9305      	str	r3, [sp, #20]
 8007c54:	f8df a0bc 	ldr.w	sl, [pc, #188]	; 8007d14 <_svfiprintf_r+0x1f0>
 8007c58:	2203      	movs	r2, #3
 8007c5a:	4650      	mov	r0, sl
 8007c5c:	7821      	ldrb	r1, [r4, #0]
 8007c5e:	f001 fa69 	bl	8009134 <memchr>
 8007c62:	b140      	cbz	r0, 8007c76 <_svfiprintf_r+0x152>
 8007c64:	2340      	movs	r3, #64	; 0x40
 8007c66:	eba0 000a 	sub.w	r0, r0, sl
 8007c6a:	fa03 f000 	lsl.w	r0, r3, r0
 8007c6e:	9b04      	ldr	r3, [sp, #16]
 8007c70:	3401      	adds	r4, #1
 8007c72:	4303      	orrs	r3, r0
 8007c74:	9304      	str	r3, [sp, #16]
 8007c76:	f814 1b01 	ldrb.w	r1, [r4], #1
 8007c7a:	2206      	movs	r2, #6
 8007c7c:	4826      	ldr	r0, [pc, #152]	; (8007d18 <_svfiprintf_r+0x1f4>)
 8007c7e:	f88d 1028 	strb.w	r1, [sp, #40]	; 0x28
 8007c82:	f001 fa57 	bl	8009134 <memchr>
 8007c86:	2800      	cmp	r0, #0
 8007c88:	d038      	beq.n	8007cfc <_svfiprintf_r+0x1d8>
 8007c8a:	4b24      	ldr	r3, [pc, #144]	; (8007d1c <_svfiprintf_r+0x1f8>)
 8007c8c:	bb1b      	cbnz	r3, 8007cd6 <_svfiprintf_r+0x1b2>
 8007c8e:	9b03      	ldr	r3, [sp, #12]
 8007c90:	3307      	adds	r3, #7
 8007c92:	f023 0307 	bic.w	r3, r3, #7
 8007c96:	3308      	adds	r3, #8
 8007c98:	9303      	str	r3, [sp, #12]
 8007c9a:	9b09      	ldr	r3, [sp, #36]	; 0x24
 8007c9c:	4433      	add	r3, r6
 8007c9e:	9309      	str	r3, [sp, #36]	; 0x24
 8007ca0:	e767      	b.n	8007b72 <_svfiprintf_r+0x4e>
 8007ca2:	460c      	mov	r4, r1
 8007ca4:	2001      	movs	r0, #1
 8007ca6:	fb0c 3202 	mla	r2, ip, r2, r3
 8007caa:	e7a5      	b.n	8007bf8 <_svfiprintf_r+0xd4>
 8007cac:	2300      	movs	r3, #0
 8007cae:	f04f 0c0a 	mov.w	ip, #10
 8007cb2:	4619      	mov	r1, r3
 8007cb4:	3401      	adds	r4, #1
 8007cb6:	9305      	str	r3, [sp, #20]
 8007cb8:	4620      	mov	r0, r4
 8007cba:	f810 2b01 	ldrb.w	r2, [r0], #1
 8007cbe:	3a30      	subs	r2, #48	; 0x30
 8007cc0:	2a09      	cmp	r2, #9
 8007cc2:	d903      	bls.n	8007ccc <_svfiprintf_r+0x1a8>
 8007cc4:	2b00      	cmp	r3, #0
 8007cc6:	d0c5      	beq.n	8007c54 <_svfiprintf_r+0x130>
 8007cc8:	9105      	str	r1, [sp, #20]
 8007cca:	e7c3      	b.n	8007c54 <_svfiprintf_r+0x130>
 8007ccc:	4604      	mov	r4, r0
 8007cce:	2301      	movs	r3, #1
 8007cd0:	fb0c 2101 	mla	r1, ip, r1, r2
 8007cd4:	e7f0      	b.n	8007cb8 <_svfiprintf_r+0x194>
 8007cd6:	ab03      	add	r3, sp, #12
 8007cd8:	9300      	str	r3, [sp, #0]
 8007cda:	462a      	mov	r2, r5
 8007cdc:	4638      	mov	r0, r7
 8007cde:	4b10      	ldr	r3, [pc, #64]	; (8007d20 <_svfiprintf_r+0x1fc>)
 8007ce0:	a904      	add	r1, sp, #16
 8007ce2:	f3af 8000 	nop.w
 8007ce6:	1c42      	adds	r2, r0, #1
 8007ce8:	4606      	mov	r6, r0
 8007cea:	d1d6      	bne.n	8007c9a <_svfiprintf_r+0x176>
 8007cec:	89ab      	ldrh	r3, [r5, #12]
 8007cee:	065b      	lsls	r3, r3, #25
 8007cf0:	f53f af2c 	bmi.w	8007b4c <_svfiprintf_r+0x28>
 8007cf4:	9809      	ldr	r0, [sp, #36]	; 0x24
 8007cf6:	b01d      	add	sp, #116	; 0x74
 8007cf8:	e8bd 8ff0 	ldmia.w	sp!, {r4, r5, r6, r7, r8, r9, sl, fp, pc}
 8007cfc:	ab03      	add	r3, sp, #12
 8007cfe:	9300      	str	r3, [sp, #0]
 8007d00:	462a      	mov	r2, r5
 8007d02:	4638      	mov	r0, r7
 8007d04:	4b06      	ldr	r3, [pc, #24]	; (8007d20 <_svfiprintf_r+0x1fc>)
 8007d06:	a904      	add	r1, sp, #16
 8007d08:	f000 fba8 	bl	800845c <_printf_i>
 8007d0c:	e7eb      	b.n	8007ce6 <_svfiprintf_r+0x1c2>
 8007d0e:	bf00      	nop
 8007d10:	08009cdc 	.word	0x08009cdc
 8007d14:	08009ce2 	.word	0x08009ce2
 8007d18:	08009ce6 	.word	0x08009ce6
 8007d1c:	00000000 	.word	0x00000000
 8007d20:	08007a6d 	.word	0x08007a6d

08007d24 <_sungetc_r>:
 8007d24:	b538      	push	{r3, r4, r5, lr}
 8007d26:	1c4b      	adds	r3, r1, #1
 8007d28:	4614      	mov	r4, r2
 8007d2a:	d103      	bne.n	8007d34 <_sungetc_r+0x10>
 8007d2c:	f04f 35ff 	mov.w	r5, #4294967295
 8007d30:	4628      	mov	r0, r5
 8007d32:	bd38      	pop	{r3, r4, r5, pc}
 8007d34:	8993      	ldrh	r3, [r2, #12]
 8007d36:	b2cd      	uxtb	r5, r1
 8007d38:	f023 0320 	bic.w	r3, r3, #32
 8007d3c:	8193      	strh	r3, [r2, #12]
 8007d3e:	6b63      	ldr	r3, [r4, #52]	; 0x34
 8007d40:	6852      	ldr	r2, [r2, #4]
 8007d42:	b18b      	cbz	r3, 8007d68 <_sungetc_r+0x44>
 8007d44:	6ba3      	ldr	r3, [r4, #56]	; 0x38
 8007d46:	4293      	cmp	r3, r2
 8007d48:	dd08      	ble.n	8007d5c <_sungetc_r+0x38>
 8007d4a:	6823      	ldr	r3, [r4, #0]
 8007d4c:	1e5a      	subs	r2, r3, #1
 8007d4e:	6022      	str	r2, [r4, #0]
 8007d50:	f803 5c01 	strb.w	r5, [r3, #-1]
 8007d54:	6863      	ldr	r3, [r4, #4]
 8007d56:	3301      	adds	r3, #1
 8007d58:	6063      	str	r3, [r4, #4]
 8007d5a:	e7e9      	b.n	8007d30 <_sungetc_r+0xc>
 8007d5c:	4621      	mov	r1, r4
 8007d5e:	f000 fecd 	bl	8008afc <__submore>
 8007d62:	2800      	cmp	r0, #0
 8007d64:	d0f1      	beq.n	8007d4a <_sungetc_r+0x26>
 8007d66:	e7e1      	b.n	8007d2c <_sungetc_r+0x8>
 8007d68:	6921      	ldr	r1, [r4, #16]
 8007d6a:	6823      	ldr	r3, [r4, #0]
 8007d6c:	b151      	cbz	r1, 8007d84 <_sungetc_r+0x60>
 8007d6e:	4299      	cmp	r1, r3
 8007d70:	d208      	bcs.n	8007d84 <_sungetc_r+0x60>
 8007d72:	f813 1c01 	ldrb.w	r1, [r3, #-1]
 8007d76:	42a9      	cmp	r1, r5
 8007d78:	d104      	bne.n	8007d84 <_sungetc_r+0x60>
 8007d7a:	3b01      	subs	r3, #1
 8007d7c:	3201      	adds	r2, #1
 8007d7e:	6023      	str	r3, [r4, #0]
 8007d80:	6062      	str	r2, [r4, #4]
 8007d82:	e7d5      	b.n	8007d30 <_sungetc_r+0xc>
 8007d84:	e9c4 320f 	strd	r3, r2, [r4, #60]	; 0x3c
 8007d88:	f104 0344 	add.w	r3, r4, #68	; 0x44
 8007d8c:	6363      	str	r3, [r4, #52]	; 0x34
 8007d8e:	2303      	movs	r3, #3
 8007d90:	63a3      	str	r3, [r4, #56]	; 0x38
 8007d92:	4623      	mov	r3, r4
 8007d94:	f803 5f46 	strb.w	r5, [r3, #70]!
 8007d98:	6023      	str	r3, [r4, #0]
 8007d9a:	2301      	movs	r3, #1
 8007d9c:	e7dc      	b.n	8007d58 <_sungetc_r+0x34>

08007d9e <__ssrefill_r>:
 8007d9e:	b510      	push	{r4, lr}
 8007da0:	460c      	mov	r4, r1
 8007da2:	6b49      	ldr	r1, [r1, #52]	; 0x34
 8007da4:	b169      	cbz	r1, 8007dc2 <__ssrefill_r+0x24>
 8007da6:	f104 0344 	add.w	r3, r4, #68	; 0x44
 8007daa:	4299      	cmp	r1, r3
 8007dac:	d001      	beq.n	8007db2 <__ssrefill_r+0x14>
 8007dae:	f7ff fd81 	bl	80078b4 <_free_r>
 8007db2:	2000      	movs	r0, #0
 8007db4:	6c23      	ldr	r3, [r4, #64]	; 0x40
 8007db6:	6360      	str	r0, [r4, #52]	; 0x34
 8007db8:	6063      	str	r3, [r4, #4]
 8007dba:	b113      	cbz	r3, 8007dc2 <__ssrefill_r+0x24>
 8007dbc:	6be3      	ldr	r3, [r4, #60]	; 0x3c
 8007dbe:	6023      	str	r3, [r4, #0]
 8007dc0:	bd10      	pop	{r4, pc}
 8007dc2:	6923      	ldr	r3, [r4, #16]
 8007dc4:	f04f 30ff 	mov.w	r0, #4294967295
 8007dc8:	6023      	str	r3, [r4, #0]
 8007dca:	2300      	movs	r3, #0
 8007dcc:	6063      	str	r3, [r4, #4]
 8007dce:	89a3      	ldrh	r3, [r4, #12]
 8007dd0:	f043 0320 	orr.w	r3, r3, #32
 8007dd4:	81a3      	strh	r3, [r4, #12]
 8007dd6:	e7f3      	b.n	8007dc0 <__ssrefill_r+0x22>

08007dd8 <__ssvfiscanf_r>:
 8007dd8:	e92d 47f0 	stmdb	sp!, {r4, r5, r6, r7, r8, r9, sl, lr}
 8007ddc:	460c      	mov	r4, r1
 8007dde:	2100      	movs	r1, #0
 8007de0:	4606      	mov	r6, r0
 8007de2:	f5ad 7d22 	sub.w	sp, sp, #648	; 0x288
 8007de6:	e9cd 1144 	strd	r1, r1, [sp, #272]	; 0x110
 8007dea:	49a7      	ldr	r1, [pc, #668]	; (8008088 <__ssvfiscanf_r+0x2b0>)
 8007dec:	f10d 0804 	add.w	r8, sp, #4
 8007df0:	91a0      	str	r1, [sp, #640]	; 0x280
 8007df2:	49a6      	ldr	r1, [pc, #664]	; (800808c <__ssvfiscanf_r+0x2b4>)
 8007df4:	4fa6      	ldr	r7, [pc, #664]	; (8008090 <__ssvfiscanf_r+0x2b8>)
 8007df6:	f8df 929c 	ldr.w	r9, [pc, #668]	; 8008094 <__ssvfiscanf_r+0x2bc>
 8007dfa:	f8cd 8118 	str.w	r8, [sp, #280]	; 0x118
 8007dfe:	91a1      	str	r1, [sp, #644]	; 0x284
 8007e00:	9300      	str	r3, [sp, #0]
 8007e02:	7813      	ldrb	r3, [r2, #0]
 8007e04:	2b00      	cmp	r3, #0
 8007e06:	f000 815c 	beq.w	80080c2 <__ssvfiscanf_r+0x2ea>
 8007e0a:	5dd9      	ldrb	r1, [r3, r7]
 8007e0c:	1c55      	adds	r5, r2, #1
 8007e0e:	f011 0108 	ands.w	r1, r1, #8
 8007e12:	d019      	beq.n	8007e48 <__ssvfiscanf_r+0x70>
 8007e14:	6863      	ldr	r3, [r4, #4]
 8007e16:	2b00      	cmp	r3, #0
 8007e18:	dd0f      	ble.n	8007e3a <__ssvfiscanf_r+0x62>
 8007e1a:	6823      	ldr	r3, [r4, #0]
 8007e1c:	781a      	ldrb	r2, [r3, #0]
 8007e1e:	5cba      	ldrb	r2, [r7, r2]
 8007e20:	0712      	lsls	r2, r2, #28
 8007e22:	d401      	bmi.n	8007e28 <__ssvfiscanf_r+0x50>
 8007e24:	462a      	mov	r2, r5
 8007e26:	e7ec      	b.n	8007e02 <__ssvfiscanf_r+0x2a>
 8007e28:	9a45      	ldr	r2, [sp, #276]	; 0x114
 8007e2a:	3301      	adds	r3, #1
 8007e2c:	3201      	adds	r2, #1
 8007e2e:	9245      	str	r2, [sp, #276]	; 0x114
 8007e30:	6862      	ldr	r2, [r4, #4]
 8007e32:	6023      	str	r3, [r4, #0]
 8007e34:	3a01      	subs	r2, #1
 8007e36:	6062      	str	r2, [r4, #4]
 8007e38:	e7ec      	b.n	8007e14 <__ssvfiscanf_r+0x3c>
 8007e3a:	4621      	mov	r1, r4
 8007e3c:	4630      	mov	r0, r6
 8007e3e:	9ba1      	ldr	r3, [sp, #644]	; 0x284
 8007e40:	4798      	blx	r3
 8007e42:	2800      	cmp	r0, #0
 8007e44:	d0e9      	beq.n	8007e1a <__ssvfiscanf_r+0x42>
 8007e46:	e7ed      	b.n	8007e24 <__ssvfiscanf_r+0x4c>
 8007e48:	2b25      	cmp	r3, #37	; 0x25
 8007e4a:	d012      	beq.n	8007e72 <__ssvfiscanf_r+0x9a>
 8007e4c:	469a      	mov	sl, r3
 8007e4e:	6863      	ldr	r3, [r4, #4]
 8007e50:	2b00      	cmp	r3, #0
 8007e52:	f340 8094 	ble.w	8007f7e <__ssvfiscanf_r+0x1a6>
 8007e56:	6822      	ldr	r2, [r4, #0]
 8007e58:	7813      	ldrb	r3, [r2, #0]
 8007e5a:	4553      	cmp	r3, sl
 8007e5c:	f040 8131 	bne.w	80080c2 <__ssvfiscanf_r+0x2ea>
 8007e60:	6863      	ldr	r3, [r4, #4]
 8007e62:	3201      	adds	r2, #1
 8007e64:	3b01      	subs	r3, #1
 8007e66:	6063      	str	r3, [r4, #4]
 8007e68:	9b45      	ldr	r3, [sp, #276]	; 0x114
 8007e6a:	6022      	str	r2, [r4, #0]
 8007e6c:	3301      	adds	r3, #1
 8007e6e:	9345      	str	r3, [sp, #276]	; 0x114
 8007e70:	e7d8      	b.n	8007e24 <__ssvfiscanf_r+0x4c>
 8007e72:	9141      	str	r1, [sp, #260]	; 0x104
 8007e74:	9143      	str	r1, [sp, #268]	; 0x10c
 8007e76:	7853      	ldrb	r3, [r2, #1]
 8007e78:	2b2a      	cmp	r3, #42	; 0x2a
 8007e7a:	bf04      	itt	eq
 8007e7c:	2310      	moveq	r3, #16
 8007e7e:	1c95      	addeq	r5, r2, #2
 8007e80:	f04f 020a 	mov.w	r2, #10
 8007e84:	bf08      	it	eq
 8007e86:	9341      	streq	r3, [sp, #260]	; 0x104
 8007e88:	46aa      	mov	sl, r5
 8007e8a:	f81a 1b01 	ldrb.w	r1, [sl], #1
 8007e8e:	f1a1 0330 	sub.w	r3, r1, #48	; 0x30
 8007e92:	2b09      	cmp	r3, #9
 8007e94:	d91d      	bls.n	8007ed2 <__ssvfiscanf_r+0xfa>
 8007e96:	2203      	movs	r2, #3
 8007e98:	487e      	ldr	r0, [pc, #504]	; (8008094 <__ssvfiscanf_r+0x2bc>)
 8007e9a:	f001 f94b 	bl	8009134 <memchr>
 8007e9e:	b140      	cbz	r0, 8007eb2 <__ssvfiscanf_r+0xda>
 8007ea0:	2301      	movs	r3, #1
 8007ea2:	4655      	mov	r5, sl
 8007ea4:	eba0 0009 	sub.w	r0, r0, r9
 8007ea8:	fa03 f000 	lsl.w	r0, r3, r0
 8007eac:	9b41      	ldr	r3, [sp, #260]	; 0x104
 8007eae:	4318      	orrs	r0, r3
 8007eb0:	9041      	str	r0, [sp, #260]	; 0x104
 8007eb2:	f815 3b01 	ldrb.w	r3, [r5], #1
 8007eb6:	2b78      	cmp	r3, #120	; 0x78
 8007eb8:	d806      	bhi.n	8007ec8 <__ssvfiscanf_r+0xf0>
 8007eba:	2b57      	cmp	r3, #87	; 0x57
 8007ebc:	d810      	bhi.n	8007ee0 <__ssvfiscanf_r+0x108>
 8007ebe:	2b25      	cmp	r3, #37	; 0x25
 8007ec0:	d0c4      	beq.n	8007e4c <__ssvfiscanf_r+0x74>
 8007ec2:	d857      	bhi.n	8007f74 <__ssvfiscanf_r+0x19c>
 8007ec4:	2b00      	cmp	r3, #0
 8007ec6:	d065      	beq.n	8007f94 <__ssvfiscanf_r+0x1bc>
 8007ec8:	2303      	movs	r3, #3
 8007eca:	9347      	str	r3, [sp, #284]	; 0x11c
 8007ecc:	230a      	movs	r3, #10
 8007ece:	9342      	str	r3, [sp, #264]	; 0x108
 8007ed0:	e072      	b.n	8007fb8 <__ssvfiscanf_r+0x1e0>
 8007ed2:	9b43      	ldr	r3, [sp, #268]	; 0x10c
 8007ed4:	4655      	mov	r5, sl
 8007ed6:	fb02 1103 	mla	r1, r2, r3, r1
 8007eda:	3930      	subs	r1, #48	; 0x30
 8007edc:	9143      	str	r1, [sp, #268]	; 0x10c
 8007ede:	e7d3      	b.n	8007e88 <__ssvfiscanf_r+0xb0>
 8007ee0:	f1a3 0258 	sub.w	r2, r3, #88	; 0x58
 8007ee4:	2a20      	cmp	r2, #32
 8007ee6:	d8ef      	bhi.n	8007ec8 <__ssvfiscanf_r+0xf0>
 8007ee8:	a101      	add	r1, pc, #4	; (adr r1, 8007ef0 <__ssvfiscanf_r+0x118>)
 8007eea:	f851 f022 	ldr.w	pc, [r1, r2, lsl #2]
 8007eee:	bf00      	nop
 8007ef0:	08007fa3 	.word	0x08007fa3
 8007ef4:	08007ec9 	.word	0x08007ec9
 8007ef8:	08007ec9 	.word	0x08007ec9
 8007efc:	08008001 	.word	0x08008001
 8007f00:	08007ec9 	.word	0x08007ec9
 8007f04:	08007ec9 	.word	0x08007ec9
 8007f08:	08007ec9 	.word	0x08007ec9
 8007f0c:	08007ec9 	.word	0x08007ec9
 8007f10:	08007ec9 	.word	0x08007ec9
 8007f14:	08007ec9 	.word	0x08007ec9
 8007f18:	08007ec9 	.word	0x08007ec9
 8007f1c:	08008017 	.word	0x08008017
 8007f20:	08007fed 	.word	0x08007fed
 8007f24:	08007f7b 	.word	0x08007f7b
 8007f28:	08007f7b 	.word	0x08007f7b
 8007f2c:	08007f7b 	.word	0x08007f7b
 8007f30:	08007ec9 	.word	0x08007ec9
 8007f34:	08007ff1 	.word	0x08007ff1
 8007f38:	08007ec9 	.word	0x08007ec9
 8007f3c:	08007ec9 	.word	0x08007ec9
 8007f40:	08007ec9 	.word	0x08007ec9
 8007f44:	08007ec9 	.word	0x08007ec9
 8007f48:	08008027 	.word	0x08008027
 8007f4c:	08007ff9 	.word	0x08007ff9
 8007f50:	08007f9b 	.word	0x08007f9b
 8007f54:	08007ec9 	.word	0x08007ec9
 8007f58:	08007ec9 	.word	0x08007ec9
 8007f5c:	08008023 	.word	0x08008023
 8007f60:	08007ec9 	.word	0x08007ec9
 8007f64:	08007fed 	.word	0x08007fed
 8007f68:	08007ec9 	.word	0x08007ec9
 8007f6c:	08007ec9 	.word	0x08007ec9
 8007f70:	08007fa3 	.word	0x08007fa3
 8007f74:	3b45      	subs	r3, #69	; 0x45
 8007f76:	2b02      	cmp	r3, #2
 8007f78:	d8a6      	bhi.n	8007ec8 <__ssvfiscanf_r+0xf0>
 8007f7a:	2305      	movs	r3, #5
 8007f7c:	e01b      	b.n	8007fb6 <__ssvfiscanf_r+0x1de>
 8007f7e:	4621      	mov	r1, r4
 8007f80:	4630      	mov	r0, r6
 8007f82:	9ba1      	ldr	r3, [sp, #644]	; 0x284
 8007f84:	4798      	blx	r3
 8007f86:	2800      	cmp	r0, #0
 8007f88:	f43f af65 	beq.w	8007e56 <__ssvfiscanf_r+0x7e>
 8007f8c:	9844      	ldr	r0, [sp, #272]	; 0x110
 8007f8e:	2800      	cmp	r0, #0
 8007f90:	f040 808d 	bne.w	80080ae <__ssvfiscanf_r+0x2d6>
 8007f94:	f04f 30ff 	mov.w	r0, #4294967295
 8007f98:	e08f      	b.n	80080ba <__ssvfiscanf_r+0x2e2>
 8007f9a:	9a41      	ldr	r2, [sp, #260]	; 0x104
 8007f9c:	f042 0220 	orr.w	r2, r2, #32
 8007fa0:	9241      	str	r2, [sp, #260]	; 0x104
 8007fa2:	9a41      	ldr	r2, [sp, #260]	; 0x104
 8007fa4:	f442 7200 	orr.w	r2, r2, #512	; 0x200
 8007fa8:	9241      	str	r2, [sp, #260]	; 0x104
 8007faa:	2210      	movs	r2, #16
 8007fac:	2b6f      	cmp	r3, #111	; 0x6f
 8007fae:	bf34      	ite	cc
 8007fb0:	2303      	movcc	r3, #3
 8007fb2:	2304      	movcs	r3, #4
 8007fb4:	9242      	str	r2, [sp, #264]	; 0x108
 8007fb6:	9347      	str	r3, [sp, #284]	; 0x11c
 8007fb8:	6863      	ldr	r3, [r4, #4]
 8007fba:	2b00      	cmp	r3, #0
 8007fbc:	dd42      	ble.n	8008044 <__ssvfiscanf_r+0x26c>
 8007fbe:	9b41      	ldr	r3, [sp, #260]	; 0x104
 8007fc0:	0659      	lsls	r1, r3, #25
 8007fc2:	d404      	bmi.n	8007fce <__ssvfiscanf_r+0x1f6>
 8007fc4:	6823      	ldr	r3, [r4, #0]
 8007fc6:	781a      	ldrb	r2, [r3, #0]
 8007fc8:	5cba      	ldrb	r2, [r7, r2]
 8007fca:	0712      	lsls	r2, r2, #28
 8007fcc:	d441      	bmi.n	8008052 <__ssvfiscanf_r+0x27a>
 8007fce:	9b47      	ldr	r3, [sp, #284]	; 0x11c
 8007fd0:	2b02      	cmp	r3, #2
 8007fd2:	dc50      	bgt.n	8008076 <__ssvfiscanf_r+0x29e>
 8007fd4:	466b      	mov	r3, sp
 8007fd6:	4622      	mov	r2, r4
 8007fd8:	4630      	mov	r0, r6
 8007fda:	a941      	add	r1, sp, #260	; 0x104
 8007fdc:	f000 fb64 	bl	80086a8 <_scanf_chars>
 8007fe0:	2801      	cmp	r0, #1
 8007fe2:	d06e      	beq.n	80080c2 <__ssvfiscanf_r+0x2ea>
 8007fe4:	2802      	cmp	r0, #2
 8007fe6:	f47f af1d 	bne.w	8007e24 <__ssvfiscanf_r+0x4c>
 8007fea:	e7cf      	b.n	8007f8c <__ssvfiscanf_r+0x1b4>
 8007fec:	220a      	movs	r2, #10
 8007fee:	e7dd      	b.n	8007fac <__ssvfiscanf_r+0x1d4>
 8007ff0:	2300      	movs	r3, #0
 8007ff2:	9342      	str	r3, [sp, #264]	; 0x108
 8007ff4:	2303      	movs	r3, #3
 8007ff6:	e7de      	b.n	8007fb6 <__ssvfiscanf_r+0x1de>
 8007ff8:	2308      	movs	r3, #8
 8007ffa:	9342      	str	r3, [sp, #264]	; 0x108
 8007ffc:	2304      	movs	r3, #4
 8007ffe:	e7da      	b.n	8007fb6 <__ssvfiscanf_r+0x1de>
 8008000:	4629      	mov	r1, r5
 8008002:	4640      	mov	r0, r8
 8008004:	f000 fcc4 	bl	8008990 <__sccl>
 8008008:	9b41      	ldr	r3, [sp, #260]	; 0x104
 800800a:	4605      	mov	r5, r0
 800800c:	f043 0340 	orr.w	r3, r3, #64	; 0x40
 8008010:	9341      	str	r3, [sp, #260]	; 0x104
 8008012:	2301      	movs	r3, #1
 8008014:	e7cf      	b.n	8007fb6 <__ssvfiscanf_r+0x1de>
 8008016:	9b41      	ldr	r3, [sp, #260]	; 0x104
 8008018:	f043 0340 	orr.w	r3, r3, #64	; 0x40
 800801c:	9341      	str	r3, [sp, #260]	; 0x104
 800801e:	2300      	movs	r3, #0
 8008020:	e7c9      	b.n	8007fb6 <__ssvfiscanf_r+0x1de>
 8008022:	2302      	movs	r3, #2
 8008024:	e7c7      	b.n	8007fb6 <__ssvfiscanf_r+0x1de>
 8008026:	9841      	ldr	r0, [sp, #260]	; 0x104
 8008028:	06c3      	lsls	r3, r0, #27
 800802a:	f53f aefb 	bmi.w	8007e24 <__ssvfiscanf_r+0x4c>
 800802e:	9b00      	ldr	r3, [sp, #0]
 8008030:	9a45      	ldr	r2, [sp, #276]	; 0x114
 8008032:	1d19      	adds	r1, r3, #4
 8008034:	9100      	str	r1, [sp, #0]
 8008036:	681b      	ldr	r3, [r3, #0]
 8008038:	f010 0f01 	tst.w	r0, #1
 800803c:	bf14      	ite	ne
 800803e:	801a      	strhne	r2, [r3, #0]
 8008040:	601a      	streq	r2, [r3, #0]
 8008042:	e6ef      	b.n	8007e24 <__ssvfiscanf_r+0x4c>
 8008044:	4621      	mov	r1, r4
 8008046:	4630      	mov	r0, r6
 8008048:	9ba1      	ldr	r3, [sp, #644]	; 0x284
 800804a:	4798      	blx	r3
 800804c:	2800      	cmp	r0, #0
 800804e:	d0b6      	beq.n	8007fbe <__ssvfiscanf_r+0x1e6>
 8008050:	e79c      	b.n	8007f8c <__ssvfiscanf_r+0x1b4>
 8008052:	9a45      	ldr	r2, [sp, #276]	; 0x114
 8008054:	3201      	adds	r2, #1
 8008056:	9245      	str	r2, [sp, #276]	; 0x114
 8008058:	6862      	ldr	r2, [r4, #4]
 800805a:	3a01      	subs	r2, #1
 800805c:	2a00      	cmp	r2, #0
 800805e:	6062      	str	r2, [r4, #4]
 8008060:	dd02      	ble.n	8008068 <__ssvfiscanf_r+0x290>
 8008062:	3301      	adds	r3, #1
 8008064:	6023      	str	r3, [r4, #0]
 8008066:	e7ad      	b.n	8007fc4 <__ssvfiscanf_r+0x1ec>
 8008068:	4621      	mov	r1, r4
 800806a:	4630      	mov	r0, r6
 800806c:	9ba1      	ldr	r3, [sp, #644]	; 0x284
 800806e:	4798      	blx	r3
 8008070:	2800      	cmp	r0, #0
 8008072:	d0a7      	beq.n	8007fc4 <__ssvfiscanf_r+0x1ec>
 8008074:	e78a      	b.n	8007f8c <__ssvfiscanf_r+0x1b4>
 8008076:	2b04      	cmp	r3, #4
 8008078:	dc0e      	bgt.n	8008098 <__ssvfiscanf_r+0x2c0>
 800807a:	466b      	mov	r3, sp
 800807c:	4622      	mov	r2, r4
 800807e:	4630      	mov	r0, r6
 8008080:	a941      	add	r1, sp, #260	; 0x104
 8008082:	f000 fb6b 	bl	800875c <_scanf_i>
 8008086:	e7ab      	b.n	8007fe0 <__ssvfiscanf_r+0x208>
 8008088:	08007d25 	.word	0x08007d25
 800808c:	08007d9f 	.word	0x08007d9f
 8008090:	08009b25 	.word	0x08009b25
 8008094:	08009ce2 	.word	0x08009ce2
 8008098:	4b0b      	ldr	r3, [pc, #44]	; (80080c8 <__ssvfiscanf_r+0x2f0>)
 800809a:	2b00      	cmp	r3, #0
 800809c:	f43f aec2 	beq.w	8007e24 <__ssvfiscanf_r+0x4c>
 80080a0:	466b      	mov	r3, sp
 80080a2:	4622      	mov	r2, r4
 80080a4:	4630      	mov	r0, r6
 80080a6:	a941      	add	r1, sp, #260	; 0x104
 80080a8:	f3af 8000 	nop.w
 80080ac:	e798      	b.n	8007fe0 <__ssvfiscanf_r+0x208>
 80080ae:	89a3      	ldrh	r3, [r4, #12]
 80080b0:	f013 0f40 	tst.w	r3, #64	; 0x40
 80080b4:	bf18      	it	ne
 80080b6:	f04f 30ff 	movne.w	r0, #4294967295
 80080ba:	f50d 7d22 	add.w	sp, sp, #648	; 0x288
 80080be:	e8bd 87f0 	ldmia.w	sp!, {r4, r5, r6, r7, r8, r9, sl, pc}
 80080c2:	9844      	ldr	r0, [sp, #272]	; 0x110
 80080c4:	e7f9      	b.n	80080ba <__ssvfiscanf_r+0x2e2>
 80080c6:	bf00      	nop
 80080c8:	00000000 	.word	0x00000000

080080cc <__sfputc_r>:
 80080cc:	6893      	ldr	r3, [r2, #8]
 80080ce:	b410      	push	{r4}
 80080d0:	3b01      	subs	r3, #1
 80080d2:	2b00      	cmp	r3, #0
 80080d4:	6093      	str	r3, [r2, #8]
 80080d6:	da07      	bge.n	80080e8 <__sfputc_r+0x1c>
 80080d8:	6994      	ldr	r4, [r2, #24]
 80080da:	42a3      	cmp	r3, r4
 80080dc:	db01      	blt.n	80080e2 <__sfputc_r+0x16>
 80080de:	290a      	cmp	r1, #10
 80080e0:	d102      	bne.n	80080e8 <__sfputc_r+0x1c>
 80080e2:	bc10      	pop	{r4}
 80080e4:	f000 bd42 	b.w	8008b6c <__swbuf_r>
 80080e8:	6813      	ldr	r3, [r2, #0]
 80080ea:	1c58      	adds	r0, r3, #1
 80080ec:	6010      	str	r0, [r2, #0]
 80080ee:	7019      	strb	r1, [r3, #0]
 80080f0:	4608      	mov	r0, r1
 80080f2:	bc10      	pop	{r4}
 80080f4:	4770      	bx	lr

080080f6 <__sfputs_r>:
 80080f6:	b5f8      	push	{r3, r4, r5, r6, r7, lr}
 80080f8:	4606      	mov	r6, r0
 80080fa:	460f      	mov	r7, r1
 80080fc:	4614      	mov	r4, r2
 80080fe:	18d5      	adds	r5, r2, r3
 8008100:	42ac      	cmp	r4, r5
 8008102:	d101      	bne.n	8008108 <__sfputs_r+0x12>
 8008104:	2000      	movs	r0, #0
 8008106:	e007      	b.n	8008118 <__sfputs_r+0x22>
 8008108:	463a      	mov	r2, r7
 800810a:	4630      	mov	r0, r6
 800810c:	f814 1b01 	ldrb.w	r1, [r4], #1
 8008110:	f7ff ffdc 	bl	80080cc <__sfputc_r>
 8008114:	1c43      	adds	r3, r0, #1
 8008116:	d1f3      	bne.n	8008100 <__sfputs_r+0xa>
 8008118:	bdf8      	pop	{r3, r4, r5, r6, r7, pc}
	...

0800811c <_vfiprintf_r>:
 800811c:	e92d 4ff0 	stmdb	sp!, {r4, r5, r6, r7, r8, r9, sl, fp, lr}
 8008120:	460d      	mov	r5, r1
 8008122:	4614      	mov	r4, r2
 8008124:	4698      	mov	r8, r3
 8008126:	4606      	mov	r6, r0
 8008128:	b09d      	sub	sp, #116	; 0x74
 800812a:	b118      	cbz	r0, 8008134 <_vfiprintf_r+0x18>
 800812c:	6983      	ldr	r3, [r0, #24]
 800812e:	b90b      	cbnz	r3, 8008134 <_vfiprintf_r+0x18>
 8008130:	f000 fefa 	bl	8008f28 <__sinit>
 8008134:	4b89      	ldr	r3, [pc, #548]	; (800835c <_vfiprintf_r+0x240>)
 8008136:	429d      	cmp	r5, r3
 8008138:	d11b      	bne.n	8008172 <_vfiprintf_r+0x56>
 800813a:	6875      	ldr	r5, [r6, #4]
 800813c:	6e6b      	ldr	r3, [r5, #100]	; 0x64
 800813e:	07d9      	lsls	r1, r3, #31
 8008140:	d405      	bmi.n	800814e <_vfiprintf_r+0x32>
 8008142:	89ab      	ldrh	r3, [r5, #12]
 8008144:	059a      	lsls	r2, r3, #22
 8008146:	d402      	bmi.n	800814e <_vfiprintf_r+0x32>
 8008148:	6da8      	ldr	r0, [r5, #88]	; 0x58
 800814a:	f000 ff8b 	bl	8009064 <__retarget_lock_acquire_recursive>
 800814e:	89ab      	ldrh	r3, [r5, #12]
 8008150:	071b      	lsls	r3, r3, #28
 8008152:	d501      	bpl.n	8008158 <_vfiprintf_r+0x3c>
 8008154:	692b      	ldr	r3, [r5, #16]
 8008156:	b9eb      	cbnz	r3, 8008194 <_vfiprintf_r+0x78>
 8008158:	4629      	mov	r1, r5
 800815a:	4630      	mov	r0, r6
 800815c:	f000 fd58 	bl	8008c10 <__swsetup_r>
 8008160:	b1c0      	cbz	r0, 8008194 <_vfiprintf_r+0x78>
 8008162:	6e6b      	ldr	r3, [r5, #100]	; 0x64
 8008164:	07dc      	lsls	r4, r3, #31
 8008166:	d50e      	bpl.n	8008186 <_vfiprintf_r+0x6a>
 8008168:	f04f 30ff 	mov.w	r0, #4294967295
 800816c:	b01d      	add	sp, #116	; 0x74
 800816e:	e8bd 8ff0 	ldmia.w	sp!, {r4, r5, r6, r7, r8, r9, sl, fp, pc}
 8008172:	4b7b      	ldr	r3, [pc, #492]	; (8008360 <_vfiprintf_r+0x244>)
 8008174:	429d      	cmp	r5, r3
 8008176:	d101      	bne.n	800817c <_vfiprintf_r+0x60>
 8008178:	68b5      	ldr	r5, [r6, #8]
 800817a:	e7df      	b.n	800813c <_vfiprintf_r+0x20>
 800817c:	4b79      	ldr	r3, [pc, #484]	; (8008364 <_vfiprintf_r+0x248>)
 800817e:	429d      	cmp	r5, r3
 8008180:	bf08      	it	eq
 8008182:	68f5      	ldreq	r5, [r6, #12]
 8008184:	e7da      	b.n	800813c <_vfiprintf_r+0x20>
 8008186:	89ab      	ldrh	r3, [r5, #12]
 8008188:	0598      	lsls	r0, r3, #22
 800818a:	d4ed      	bmi.n	8008168 <_vfiprintf_r+0x4c>
 800818c:	6da8      	ldr	r0, [r5, #88]	; 0x58
 800818e:	f000 ff6a 	bl	8009066 <__retarget_lock_release_recursive>
 8008192:	e7e9      	b.n	8008168 <_vfiprintf_r+0x4c>
 8008194:	2300      	movs	r3, #0
 8008196:	9309      	str	r3, [sp, #36]	; 0x24
 8008198:	2320      	movs	r3, #32
 800819a:	f88d 3029 	strb.w	r3, [sp, #41]	; 0x29
 800819e:	2330      	movs	r3, #48	; 0x30
 80081a0:	f04f 0901 	mov.w	r9, #1
 80081a4:	f8cd 800c 	str.w	r8, [sp, #12]
 80081a8:	f8df 81bc 	ldr.w	r8, [pc, #444]	; 8008368 <_vfiprintf_r+0x24c>
 80081ac:	f88d 302a 	strb.w	r3, [sp, #42]	; 0x2a
 80081b0:	4623      	mov	r3, r4
 80081b2:	469a      	mov	sl, r3
 80081b4:	f813 2b01 	ldrb.w	r2, [r3], #1
 80081b8:	b10a      	cbz	r2, 80081be <_vfiprintf_r+0xa2>
 80081ba:	2a25      	cmp	r2, #37	; 0x25
 80081bc:	d1f9      	bne.n	80081b2 <_vfiprintf_r+0x96>
 80081be:	ebba 0b04 	subs.w	fp, sl, r4
 80081c2:	d00b      	beq.n	80081dc <_vfiprintf_r+0xc0>
 80081c4:	465b      	mov	r3, fp
 80081c6:	4622      	mov	r2, r4
 80081c8:	4629      	mov	r1, r5
 80081ca:	4630      	mov	r0, r6
 80081cc:	f7ff ff93 	bl	80080f6 <__sfputs_r>
 80081d0:	3001      	adds	r0, #1
 80081d2:	f000 80aa 	beq.w	800832a <_vfiprintf_r+0x20e>
 80081d6:	9a09      	ldr	r2, [sp, #36]	; 0x24
 80081d8:	445a      	add	r2, fp
 80081da:	9209      	str	r2, [sp, #36]	; 0x24
 80081dc:	f89a 3000 	ldrb.w	r3, [sl]
 80081e0:	2b00      	cmp	r3, #0
 80081e2:	f000 80a2 	beq.w	800832a <_vfiprintf_r+0x20e>
 80081e6:	2300      	movs	r3, #0
 80081e8:	f04f 32ff 	mov.w	r2, #4294967295
 80081ec:	e9cd 2305 	strd	r2, r3, [sp, #20]
 80081f0:	f10a 0a01 	add.w	sl, sl, #1
 80081f4:	9304      	str	r3, [sp, #16]
 80081f6:	9307      	str	r3, [sp, #28]
 80081f8:	f88d 3053 	strb.w	r3, [sp, #83]	; 0x53
 80081fc:	931a      	str	r3, [sp, #104]	; 0x68
 80081fe:	4654      	mov	r4, sl
 8008200:	2205      	movs	r2, #5
 8008202:	f814 1b01 	ldrb.w	r1, [r4], #1
 8008206:	4858      	ldr	r0, [pc, #352]	; (8008368 <_vfiprintf_r+0x24c>)
 8008208:	f000 ff94 	bl	8009134 <memchr>
 800820c:	9a04      	ldr	r2, [sp, #16]
 800820e:	b9d8      	cbnz	r0, 8008248 <_vfiprintf_r+0x12c>
 8008210:	06d1      	lsls	r1, r2, #27
 8008212:	bf44      	itt	mi
 8008214:	2320      	movmi	r3, #32
 8008216:	f88d 3053 	strbmi.w	r3, [sp, #83]	; 0x53
 800821a:	0713      	lsls	r3, r2, #28
 800821c:	bf44      	itt	mi
 800821e:	232b      	movmi	r3, #43	; 0x2b
 8008220:	f88d 3053 	strbmi.w	r3, [sp, #83]	; 0x53
 8008224:	f89a 3000 	ldrb.w	r3, [sl]
 8008228:	2b2a      	cmp	r3, #42	; 0x2a
 800822a:	d015      	beq.n	8008258 <_vfiprintf_r+0x13c>
 800822c:	4654      	mov	r4, sl
 800822e:	2000      	movs	r0, #0
 8008230:	f04f 0c0a 	mov.w	ip, #10
 8008234:	9a07      	ldr	r2, [sp, #28]
 8008236:	4621      	mov	r1, r4
 8008238:	f811 3b01 	ldrb.w	r3, [r1], #1
 800823c:	3b30      	subs	r3, #48	; 0x30
 800823e:	2b09      	cmp	r3, #9
 8008240:	d94e      	bls.n	80082e0 <_vfiprintf_r+0x1c4>
 8008242:	b1b0      	cbz	r0, 8008272 <_vfiprintf_r+0x156>
 8008244:	9207      	str	r2, [sp, #28]
 8008246:	e014      	b.n	8008272 <_vfiprintf_r+0x156>
 8008248:	eba0 0308 	sub.w	r3, r0, r8
 800824c:	fa09 f303 	lsl.w	r3, r9, r3
 8008250:	4313      	orrs	r3, r2
 8008252:	46a2      	mov	sl, r4
 8008254:	9304      	str	r3, [sp, #16]
 8008256:	e7d2      	b.n	80081fe <_vfiprintf_r+0xe2>
 8008258:	9b03      	ldr	r3, [sp, #12]
 800825a:	1d19      	adds	r1, r3, #4
 800825c:	681b      	ldr	r3, [r3, #0]
 800825e:	9103      	str	r1, [sp, #12]
 8008260:	2b00      	cmp	r3, #0
 8008262:	bfbb      	ittet	lt
 8008264:	425b      	neglt	r3, r3
 8008266:	f042 0202 	orrlt.w	r2, r2, #2
 800826a:	9307      	strge	r3, [sp, #28]
 800826c:	9307      	strlt	r3, [sp, #28]
 800826e:	bfb8      	it	lt
 8008270:	9204      	strlt	r2, [sp, #16]
 8008272:	7823      	ldrb	r3, [r4, #0]
 8008274:	2b2e      	cmp	r3, #46	; 0x2e
 8008276:	d10c      	bne.n	8008292 <_vfiprintf_r+0x176>
 8008278:	7863      	ldrb	r3, [r4, #1]
 800827a:	2b2a      	cmp	r3, #42	; 0x2a
 800827c:	d135      	bne.n	80082ea <_vfiprintf_r+0x1ce>
 800827e:	9b03      	ldr	r3, [sp, #12]
 8008280:	3402      	adds	r4, #2
 8008282:	1d1a      	adds	r2, r3, #4
 8008284:	681b      	ldr	r3, [r3, #0]
 8008286:	9203      	str	r2, [sp, #12]
 8008288:	2b00      	cmp	r3, #0
 800828a:	bfb8      	it	lt
 800828c:	f04f 33ff 	movlt.w	r3, #4294967295
 8008290:	9305      	str	r3, [sp, #20]
 8008292:	f8df a0d8 	ldr.w	sl, [pc, #216]	; 800836c <_vfiprintf_r+0x250>
 8008296:	2203      	movs	r2, #3
 8008298:	4650      	mov	r0, sl
 800829a:	7821      	ldrb	r1, [r4, #0]
 800829c:	f000 ff4a 	bl	8009134 <memchr>
 80082a0:	b140      	cbz	r0, 80082b4 <_vfiprintf_r+0x198>
 80082a2:	2340      	movs	r3, #64	; 0x40
 80082a4:	eba0 000a 	sub.w	r0, r0, sl
 80082a8:	fa03 f000 	lsl.w	r0, r3, r0
 80082ac:	9b04      	ldr	r3, [sp, #16]
 80082ae:	3401      	adds	r4, #1
 80082b0:	4303      	orrs	r3, r0
 80082b2:	9304      	str	r3, [sp, #16]
 80082b4:	f814 1b01 	ldrb.w	r1, [r4], #1
 80082b8:	2206      	movs	r2, #6
 80082ba:	482d      	ldr	r0, [pc, #180]	; (8008370 <_vfiprintf_r+0x254>)
 80082bc:	f88d 1028 	strb.w	r1, [sp, #40]	; 0x28
 80082c0:	f000 ff38 	bl	8009134 <memchr>
 80082c4:	2800      	cmp	r0, #0
 80082c6:	d03f      	beq.n	8008348 <_vfiprintf_r+0x22c>
 80082c8:	4b2a      	ldr	r3, [pc, #168]	; (8008374 <_vfiprintf_r+0x258>)
 80082ca:	bb1b      	cbnz	r3, 8008314 <_vfiprintf_r+0x1f8>
 80082cc:	9b03      	ldr	r3, [sp, #12]
 80082ce:	3307      	adds	r3, #7
 80082d0:	f023 0307 	bic.w	r3, r3, #7
 80082d4:	3308      	adds	r3, #8
 80082d6:	9303      	str	r3, [sp, #12]
 80082d8:	9b09      	ldr	r3, [sp, #36]	; 0x24
 80082da:	443b      	add	r3, r7
 80082dc:	9309      	str	r3, [sp, #36]	; 0x24
 80082de:	e767      	b.n	80081b0 <_vfiprintf_r+0x94>
 80082e0:	460c      	mov	r4, r1
 80082e2:	2001      	movs	r0, #1
 80082e4:	fb0c 3202 	mla	r2, ip, r2, r3
 80082e8:	e7a5      	b.n	8008236 <_vfiprintf_r+0x11a>
 80082ea:	2300      	movs	r3, #0
 80082ec:	f04f 0c0a 	mov.w	ip, #10
 80082f0:	4619      	mov	r1, r3
 80082f2:	3401      	adds	r4, #1
 80082f4:	9305      	str	r3, [sp, #20]
 80082f6:	4620      	mov	r0, r4
 80082f8:	f810 2b01 	ldrb.w	r2, [r0], #1
 80082fc:	3a30      	subs	r2, #48	; 0x30
 80082fe:	2a09      	cmp	r2, #9
 8008300:	d903      	bls.n	800830a <_vfiprintf_r+0x1ee>
 8008302:	2b00      	cmp	r3, #0
 8008304:	d0c5      	beq.n	8008292 <_vfiprintf_r+0x176>
 8008306:	9105      	str	r1, [sp, #20]
 8008308:	e7c3      	b.n	8008292 <_vfiprintf_r+0x176>
 800830a:	4604      	mov	r4, r0
 800830c:	2301      	movs	r3, #1
 800830e:	fb0c 2101 	mla	r1, ip, r1, r2
 8008312:	e7f0      	b.n	80082f6 <_vfiprintf_r+0x1da>
 8008314:	ab03      	add	r3, sp, #12
 8008316:	9300      	str	r3, [sp, #0]
 8008318:	462a      	mov	r2, r5
 800831a:	4630      	mov	r0, r6
 800831c:	4b16      	ldr	r3, [pc, #88]	; (8008378 <_vfiprintf_r+0x25c>)
 800831e:	a904      	add	r1, sp, #16
 8008320:	f3af 8000 	nop.w
 8008324:	4607      	mov	r7, r0
 8008326:	1c78      	adds	r0, r7, #1
 8008328:	d1d6      	bne.n	80082d8 <_vfiprintf_r+0x1bc>
 800832a:	6e6b      	ldr	r3, [r5, #100]	; 0x64
 800832c:	07d9      	lsls	r1, r3, #31
 800832e:	d405      	bmi.n	800833c <_vfiprintf_r+0x220>
 8008330:	89ab      	ldrh	r3, [r5, #12]
 8008332:	059a      	lsls	r2, r3, #22
 8008334:	d402      	bmi.n	800833c <_vfiprintf_r+0x220>
 8008336:	6da8      	ldr	r0, [r5, #88]	; 0x58
 8008338:	f000 fe95 	bl	8009066 <__retarget_lock_release_recursive>
 800833c:	89ab      	ldrh	r3, [r5, #12]
 800833e:	065b      	lsls	r3, r3, #25
 8008340:	f53f af12 	bmi.w	8008168 <_vfiprintf_r+0x4c>
 8008344:	9809      	ldr	r0, [sp, #36]	; 0x24
 8008346:	e711      	b.n	800816c <_vfiprintf_r+0x50>
 8008348:	ab03      	add	r3, sp, #12
 800834a:	9300      	str	r3, [sp, #0]
 800834c:	462a      	mov	r2, r5
 800834e:	4630      	mov	r0, r6
 8008350:	4b09      	ldr	r3, [pc, #36]	; (8008378 <_vfiprintf_r+0x25c>)
 8008352:	a904      	add	r1, sp, #16
 8008354:	f000 f882 	bl	800845c <_printf_i>
 8008358:	e7e4      	b.n	8008324 <_vfiprintf_r+0x208>
 800835a:	bf00      	nop
 800835c:	08009d4c 	.word	0x08009d4c
 8008360:	08009d6c 	.word	0x08009d6c
 8008364:	08009d2c 	.word	0x08009d2c
 8008368:	08009cdc 	.word	0x08009cdc
 800836c:	08009ce2 	.word	0x08009ce2
 8008370:	08009ce6 	.word	0x08009ce6
 8008374:	00000000 	.word	0x00000000
 8008378:	080080f7 	.word	0x080080f7

0800837c <_printf_common>:
 800837c:	e92d 47f0 	stmdb	sp!, {r4, r5, r6, r7, r8, r9, sl, lr}
 8008380:	4616      	mov	r6, r2
 8008382:	4699      	mov	r9, r3
 8008384:	688a      	ldr	r2, [r1, #8]
 8008386:	690b      	ldr	r3, [r1, #16]
 8008388:	4607      	mov	r7, r0
 800838a:	4293      	cmp	r3, r2
 800838c:	bfb8      	it	lt
 800838e:	4613      	movlt	r3, r2
 8008390:	6033      	str	r3, [r6, #0]
 8008392:	f891 2043 	ldrb.w	r2, [r1, #67]	; 0x43
 8008396:	460c      	mov	r4, r1
 8008398:	f8dd 8020 	ldr.w	r8, [sp, #32]
 800839c:	b10a      	cbz	r2, 80083a2 <_printf_common+0x26>
 800839e:	3301      	adds	r3, #1
 80083a0:	6033      	str	r3, [r6, #0]
 80083a2:	6823      	ldr	r3, [r4, #0]
 80083a4:	0699      	lsls	r1, r3, #26
 80083a6:	bf42      	ittt	mi
 80083a8:	6833      	ldrmi	r3, [r6, #0]
 80083aa:	3302      	addmi	r3, #2
 80083ac:	6033      	strmi	r3, [r6, #0]
 80083ae:	6825      	ldr	r5, [r4, #0]
 80083b0:	f015 0506 	ands.w	r5, r5, #6
 80083b4:	d106      	bne.n	80083c4 <_printf_common+0x48>
 80083b6:	f104 0a19 	add.w	sl, r4, #25
 80083ba:	68e3      	ldr	r3, [r4, #12]
 80083bc:	6832      	ldr	r2, [r6, #0]
 80083be:	1a9b      	subs	r3, r3, r2
 80083c0:	42ab      	cmp	r3, r5
 80083c2:	dc28      	bgt.n	8008416 <_printf_common+0x9a>
 80083c4:	f894 2043 	ldrb.w	r2, [r4, #67]	; 0x43
 80083c8:	1e13      	subs	r3, r2, #0
 80083ca:	6822      	ldr	r2, [r4, #0]
 80083cc:	bf18      	it	ne
 80083ce:	2301      	movne	r3, #1
 80083d0:	0692      	lsls	r2, r2, #26
 80083d2:	d42d      	bmi.n	8008430 <_printf_common+0xb4>
 80083d4:	4649      	mov	r1, r9
 80083d6:	4638      	mov	r0, r7
 80083d8:	f104 0243 	add.w	r2, r4, #67	; 0x43
 80083dc:	47c0      	blx	r8
 80083de:	3001      	adds	r0, #1
 80083e0:	d020      	beq.n	8008424 <_printf_common+0xa8>
 80083e2:	6823      	ldr	r3, [r4, #0]
 80083e4:	68e5      	ldr	r5, [r4, #12]
 80083e6:	f003 0306 	and.w	r3, r3, #6
 80083ea:	2b04      	cmp	r3, #4
 80083ec:	bf18      	it	ne
 80083ee:	2500      	movne	r5, #0
 80083f0:	6832      	ldr	r2, [r6, #0]
 80083f2:	f04f 0600 	mov.w	r6, #0
 80083f6:	68a3      	ldr	r3, [r4, #8]
 80083f8:	bf08      	it	eq
 80083fa:	1aad      	subeq	r5, r5, r2
 80083fc:	6922      	ldr	r2, [r4, #16]
 80083fe:	bf08      	it	eq
 8008400:	ea25 75e5 	biceq.w	r5, r5, r5, asr #31
 8008404:	4293      	cmp	r3, r2
 8008406:	bfc4      	itt	gt
 8008408:	1a9b      	subgt	r3, r3, r2
 800840a:	18ed      	addgt	r5, r5, r3
 800840c:	341a      	adds	r4, #26
 800840e:	42b5      	cmp	r5, r6
 8008410:	d11a      	bne.n	8008448 <_printf_common+0xcc>
 8008412:	2000      	movs	r0, #0
 8008414:	e008      	b.n	8008428 <_printf_common+0xac>
 8008416:	2301      	movs	r3, #1
 8008418:	4652      	mov	r2, sl
 800841a:	4649      	mov	r1, r9
 800841c:	4638      	mov	r0, r7
 800841e:	47c0      	blx	r8
 8008420:	3001      	adds	r0, #1
 8008422:	d103      	bne.n	800842c <_printf_common+0xb0>
 8008424:	f04f 30ff 	mov.w	r0, #4294967295
 8008428:	e8bd 87f0 	ldmia.w	sp!, {r4, r5, r6, r7, r8, r9, sl, pc}
 800842c:	3501      	adds	r5, #1
 800842e:	e7c4      	b.n	80083ba <_printf_common+0x3e>
 8008430:	2030      	movs	r0, #48	; 0x30
 8008432:	18e1      	adds	r1, r4, r3
 8008434:	f881 0043 	strb.w	r0, [r1, #67]	; 0x43
 8008438:	1c5a      	adds	r2, r3, #1
 800843a:	f894 1045 	ldrb.w	r1, [r4, #69]	; 0x45
 800843e:	4422      	add	r2, r4
 8008440:	3302      	adds	r3, #2
 8008442:	f882 1043 	strb.w	r1, [r2, #67]	; 0x43
 8008446:	e7c5      	b.n	80083d4 <_printf_common+0x58>
 8008448:	2301      	movs	r3, #1
 800844a:	4622      	mov	r2, r4
 800844c:	4649      	mov	r1, r9
 800844e:	4638      	mov	r0, r7
 8008450:	47c0      	blx	r8
 8008452:	3001      	adds	r0, #1
 8008454:	d0e6      	beq.n	8008424 <_printf_common+0xa8>
 8008456:	3601      	adds	r6, #1
 8008458:	e7d9      	b.n	800840e <_printf_common+0x92>
	...

0800845c <_printf_i>:
 800845c:	e92d 47ff 	stmdb	sp!, {r0, r1, r2, r3, r4, r5, r6, r7, r8, r9, sl, lr}
 8008460:	7e0f      	ldrb	r7, [r1, #24]
 8008462:	4691      	mov	r9, r2
 8008464:	2f78      	cmp	r7, #120	; 0x78
 8008466:	4680      	mov	r8, r0
 8008468:	460c      	mov	r4, r1
 800846a:	469a      	mov	sl, r3
 800846c:	9d0c      	ldr	r5, [sp, #48]	; 0x30
 800846e:	f101 0243 	add.w	r2, r1, #67	; 0x43
 8008472:	d807      	bhi.n	8008484 <_printf_i+0x28>
 8008474:	2f62      	cmp	r7, #98	; 0x62
 8008476:	d80a      	bhi.n	800848e <_printf_i+0x32>
 8008478:	2f00      	cmp	r7, #0
 800847a:	f000 80d9 	beq.w	8008630 <_printf_i+0x1d4>
 800847e:	2f58      	cmp	r7, #88	; 0x58
 8008480:	f000 80a4 	beq.w	80085cc <_printf_i+0x170>
 8008484:	f104 0542 	add.w	r5, r4, #66	; 0x42
 8008488:	f884 7042 	strb.w	r7, [r4, #66]	; 0x42
 800848c:	e03a      	b.n	8008504 <_printf_i+0xa8>
 800848e:	f1a7 0363 	sub.w	r3, r7, #99	; 0x63
 8008492:	2b15      	cmp	r3, #21
 8008494:	d8f6      	bhi.n	8008484 <_printf_i+0x28>
 8008496:	a101      	add	r1, pc, #4	; (adr r1, 800849c <_printf_i+0x40>)
 8008498:	f851 f023 	ldr.w	pc, [r1, r3, lsl #2]
 800849c:	080084f5 	.word	0x080084f5
 80084a0:	08008509 	.word	0x08008509
 80084a4:	08008485 	.word	0x08008485
 80084a8:	08008485 	.word	0x08008485
 80084ac:	08008485 	.word	0x08008485
 80084b0:	08008485 	.word	0x08008485
 80084b4:	08008509 	.word	0x08008509
 80084b8:	08008485 	.word	0x08008485
 80084bc:	08008485 	.word	0x08008485
 80084c0:	08008485 	.word	0x08008485
 80084c4:	08008485 	.word	0x08008485
 80084c8:	08008617 	.word	0x08008617
 80084cc:	08008539 	.word	0x08008539
 80084d0:	080085f9 	.word	0x080085f9
 80084d4:	08008485 	.word	0x08008485
 80084d8:	08008485 	.word	0x08008485
 80084dc:	08008639 	.word	0x08008639
 80084e0:	08008485 	.word	0x08008485
 80084e4:	08008539 	.word	0x08008539
 80084e8:	08008485 	.word	0x08008485
 80084ec:	08008485 	.word	0x08008485
 80084f0:	08008601 	.word	0x08008601
 80084f4:	682b      	ldr	r3, [r5, #0]
 80084f6:	1d1a      	adds	r2, r3, #4
 80084f8:	681b      	ldr	r3, [r3, #0]
 80084fa:	602a      	str	r2, [r5, #0]
 80084fc:	f104 0542 	add.w	r5, r4, #66	; 0x42
 8008500:	f884 3042 	strb.w	r3, [r4, #66]	; 0x42
 8008504:	2301      	movs	r3, #1
 8008506:	e0a4      	b.n	8008652 <_printf_i+0x1f6>
 8008508:	6820      	ldr	r0, [r4, #0]
 800850a:	6829      	ldr	r1, [r5, #0]
 800850c:	0606      	lsls	r6, r0, #24
 800850e:	f101 0304 	add.w	r3, r1, #4
 8008512:	d50a      	bpl.n	800852a <_printf_i+0xce>
 8008514:	680e      	ldr	r6, [r1, #0]
 8008516:	602b      	str	r3, [r5, #0]
 8008518:	2e00      	cmp	r6, #0
 800851a:	da03      	bge.n	8008524 <_printf_i+0xc8>
 800851c:	232d      	movs	r3, #45	; 0x2d
 800851e:	4276      	negs	r6, r6
 8008520:	f884 3043 	strb.w	r3, [r4, #67]	; 0x43
 8008524:	230a      	movs	r3, #10
 8008526:	485e      	ldr	r0, [pc, #376]	; (80086a0 <_printf_i+0x244>)
 8008528:	e019      	b.n	800855e <_printf_i+0x102>
 800852a:	680e      	ldr	r6, [r1, #0]
 800852c:	f010 0f40 	tst.w	r0, #64	; 0x40
 8008530:	602b      	str	r3, [r5, #0]
 8008532:	bf18      	it	ne
 8008534:	b236      	sxthne	r6, r6
 8008536:	e7ef      	b.n	8008518 <_printf_i+0xbc>
 8008538:	682b      	ldr	r3, [r5, #0]
 800853a:	6820      	ldr	r0, [r4, #0]
 800853c:	1d19      	adds	r1, r3, #4
 800853e:	6029      	str	r1, [r5, #0]
 8008540:	0601      	lsls	r1, r0, #24
 8008542:	d501      	bpl.n	8008548 <_printf_i+0xec>
 8008544:	681e      	ldr	r6, [r3, #0]
 8008546:	e002      	b.n	800854e <_printf_i+0xf2>
 8008548:	0646      	lsls	r6, r0, #25
 800854a:	d5fb      	bpl.n	8008544 <_printf_i+0xe8>
 800854c:	881e      	ldrh	r6, [r3, #0]
 800854e:	2f6f      	cmp	r7, #111	; 0x6f
 8008550:	bf0c      	ite	eq
 8008552:	2308      	moveq	r3, #8
 8008554:	230a      	movne	r3, #10
 8008556:	4852      	ldr	r0, [pc, #328]	; (80086a0 <_printf_i+0x244>)
 8008558:	2100      	movs	r1, #0
 800855a:	f884 1043 	strb.w	r1, [r4, #67]	; 0x43
 800855e:	6865      	ldr	r5, [r4, #4]
 8008560:	2d00      	cmp	r5, #0
 8008562:	bfa8      	it	ge
 8008564:	6821      	ldrge	r1, [r4, #0]
 8008566:	60a5      	str	r5, [r4, #8]
 8008568:	bfa4      	itt	ge
 800856a:	f021 0104 	bicge.w	r1, r1, #4
 800856e:	6021      	strge	r1, [r4, #0]
 8008570:	b90e      	cbnz	r6, 8008576 <_printf_i+0x11a>
 8008572:	2d00      	cmp	r5, #0
 8008574:	d04d      	beq.n	8008612 <_printf_i+0x1b6>
 8008576:	4615      	mov	r5, r2
 8008578:	fbb6 f1f3 	udiv	r1, r6, r3
 800857c:	fb03 6711 	mls	r7, r3, r1, r6
 8008580:	5dc7      	ldrb	r7, [r0, r7]
 8008582:	f805 7d01 	strb.w	r7, [r5, #-1]!
 8008586:	4637      	mov	r7, r6
 8008588:	42bb      	cmp	r3, r7
 800858a:	460e      	mov	r6, r1
 800858c:	d9f4      	bls.n	8008578 <_printf_i+0x11c>
 800858e:	2b08      	cmp	r3, #8
 8008590:	d10b      	bne.n	80085aa <_printf_i+0x14e>
 8008592:	6823      	ldr	r3, [r4, #0]
 8008594:	07de      	lsls	r6, r3, #31
 8008596:	d508      	bpl.n	80085aa <_printf_i+0x14e>
 8008598:	6923      	ldr	r3, [r4, #16]
 800859a:	6861      	ldr	r1, [r4, #4]
 800859c:	4299      	cmp	r1, r3
 800859e:	bfde      	ittt	le
 80085a0:	2330      	movle	r3, #48	; 0x30
 80085a2:	f805 3c01 	strble.w	r3, [r5, #-1]
 80085a6:	f105 35ff 	addle.w	r5, r5, #4294967295
 80085aa:	1b52      	subs	r2, r2, r5
 80085ac:	6122      	str	r2, [r4, #16]
 80085ae:	464b      	mov	r3, r9
 80085b0:	4621      	mov	r1, r4
 80085b2:	4640      	mov	r0, r8
 80085b4:	f8cd a000 	str.w	sl, [sp]
 80085b8:	aa03      	add	r2, sp, #12
 80085ba:	f7ff fedf 	bl	800837c <_printf_common>
 80085be:	3001      	adds	r0, #1
 80085c0:	d14c      	bne.n	800865c <_printf_i+0x200>
 80085c2:	f04f 30ff 	mov.w	r0, #4294967295
 80085c6:	b004      	add	sp, #16
 80085c8:	e8bd 87f0 	ldmia.w	sp!, {r4, r5, r6, r7, r8, r9, sl, pc}
 80085cc:	4834      	ldr	r0, [pc, #208]	; (80086a0 <_printf_i+0x244>)
 80085ce:	f881 7045 	strb.w	r7, [r1, #69]	; 0x45
 80085d2:	6829      	ldr	r1, [r5, #0]
 80085d4:	6823      	ldr	r3, [r4, #0]
 80085d6:	f851 6b04 	ldr.w	r6, [r1], #4
 80085da:	6029      	str	r1, [r5, #0]
 80085dc:	061d      	lsls	r5, r3, #24
 80085de:	d514      	bpl.n	800860a <_printf_i+0x1ae>
 80085e0:	07df      	lsls	r7, r3, #31
 80085e2:	bf44      	itt	mi
 80085e4:	f043 0320 	orrmi.w	r3, r3, #32
 80085e8:	6023      	strmi	r3, [r4, #0]
 80085ea:	b91e      	cbnz	r6, 80085f4 <_printf_i+0x198>
 80085ec:	6823      	ldr	r3, [r4, #0]
 80085ee:	f023 0320 	bic.w	r3, r3, #32
 80085f2:	6023      	str	r3, [r4, #0]
 80085f4:	2310      	movs	r3, #16
 80085f6:	e7af      	b.n	8008558 <_printf_i+0xfc>
 80085f8:	6823      	ldr	r3, [r4, #0]
 80085fa:	f043 0320 	orr.w	r3, r3, #32
 80085fe:	6023      	str	r3, [r4, #0]
 8008600:	2378      	movs	r3, #120	; 0x78
 8008602:	4828      	ldr	r0, [pc, #160]	; (80086a4 <_printf_i+0x248>)
 8008604:	f884 3045 	strb.w	r3, [r4, #69]	; 0x45
 8008608:	e7e3      	b.n	80085d2 <_printf_i+0x176>
 800860a:	0659      	lsls	r1, r3, #25
 800860c:	bf48      	it	mi
 800860e:	b2b6      	uxthmi	r6, r6
 8008610:	e7e6      	b.n	80085e0 <_printf_i+0x184>
 8008612:	4615      	mov	r5, r2
 8008614:	e7bb      	b.n	800858e <_printf_i+0x132>
 8008616:	682b      	ldr	r3, [r5, #0]
 8008618:	6826      	ldr	r6, [r4, #0]
 800861a:	1d18      	adds	r0, r3, #4
 800861c:	6961      	ldr	r1, [r4, #20]
 800861e:	6028      	str	r0, [r5, #0]
 8008620:	0635      	lsls	r5, r6, #24
 8008622:	681b      	ldr	r3, [r3, #0]
 8008624:	d501      	bpl.n	800862a <_printf_i+0x1ce>
 8008626:	6019      	str	r1, [r3, #0]
 8008628:	e002      	b.n	8008630 <_printf_i+0x1d4>
 800862a:	0670      	lsls	r0, r6, #25
 800862c:	d5fb      	bpl.n	8008626 <_printf_i+0x1ca>
 800862e:	8019      	strh	r1, [r3, #0]
 8008630:	2300      	movs	r3, #0
 8008632:	4615      	mov	r5, r2
 8008634:	6123      	str	r3, [r4, #16]
 8008636:	e7ba      	b.n	80085ae <_printf_i+0x152>
 8008638:	682b      	ldr	r3, [r5, #0]
 800863a:	2100      	movs	r1, #0
 800863c:	1d1a      	adds	r2, r3, #4
 800863e:	602a      	str	r2, [r5, #0]
 8008640:	681d      	ldr	r5, [r3, #0]
 8008642:	6862      	ldr	r2, [r4, #4]
 8008644:	4628      	mov	r0, r5
 8008646:	f000 fd75 	bl	8009134 <memchr>
 800864a:	b108      	cbz	r0, 8008650 <_printf_i+0x1f4>
 800864c:	1b40      	subs	r0, r0, r5
 800864e:	6060      	str	r0, [r4, #4]
 8008650:	6863      	ldr	r3, [r4, #4]
 8008652:	6123      	str	r3, [r4, #16]
 8008654:	2300      	movs	r3, #0
 8008656:	f884 3043 	strb.w	r3, [r4, #67]	; 0x43
 800865a:	e7a8      	b.n	80085ae <_printf_i+0x152>
 800865c:	462a      	mov	r2, r5
 800865e:	4649      	mov	r1, r9
 8008660:	4640      	mov	r0, r8
 8008662:	6923      	ldr	r3, [r4, #16]
 8008664:	47d0      	blx	sl
 8008666:	3001      	adds	r0, #1
 8008668:	d0ab      	beq.n	80085c2 <_printf_i+0x166>
 800866a:	6823      	ldr	r3, [r4, #0]
 800866c:	079b      	lsls	r3, r3, #30
 800866e:	d413      	bmi.n	8008698 <_printf_i+0x23c>
 8008670:	68e0      	ldr	r0, [r4, #12]
 8008672:	9b03      	ldr	r3, [sp, #12]
 8008674:	4298      	cmp	r0, r3
 8008676:	bfb8      	it	lt
 8008678:	4618      	movlt	r0, r3
 800867a:	e7a4      	b.n	80085c6 <_printf_i+0x16a>
 800867c:	2301      	movs	r3, #1
 800867e:	4632      	mov	r2, r6
 8008680:	4649      	mov	r1, r9
 8008682:	4640      	mov	r0, r8
 8008684:	47d0      	blx	sl
 8008686:	3001      	adds	r0, #1
 8008688:	d09b      	beq.n	80085c2 <_printf_i+0x166>
 800868a:	3501      	adds	r5, #1
 800868c:	68e3      	ldr	r3, [r4, #12]
 800868e:	9903      	ldr	r1, [sp, #12]
 8008690:	1a5b      	subs	r3, r3, r1
 8008692:	42ab      	cmp	r3, r5
 8008694:	dcf2      	bgt.n	800867c <_printf_i+0x220>
 8008696:	e7eb      	b.n	8008670 <_printf_i+0x214>
 8008698:	2500      	movs	r5, #0
 800869a:	f104 0619 	add.w	r6, r4, #25
 800869e:	e7f5      	b.n	800868c <_printf_i+0x230>
 80086a0:	08009ced 	.word	0x08009ced
 80086a4:	08009cfe 	.word	0x08009cfe

080086a8 <_scanf_chars>:
 80086a8:	e92d 43f8 	stmdb	sp!, {r3, r4, r5, r6, r7, r8, r9, lr}
 80086ac:	4615      	mov	r5, r2
 80086ae:	688a      	ldr	r2, [r1, #8]
 80086b0:	4680      	mov	r8, r0
 80086b2:	460c      	mov	r4, r1
 80086b4:	b932      	cbnz	r2, 80086c4 <_scanf_chars+0x1c>
 80086b6:	698a      	ldr	r2, [r1, #24]
 80086b8:	2a00      	cmp	r2, #0
 80086ba:	bf0c      	ite	eq
 80086bc:	2201      	moveq	r2, #1
 80086be:	f04f 32ff 	movne.w	r2, #4294967295
 80086c2:	608a      	str	r2, [r1, #8]
 80086c4:	2700      	movs	r7, #0
 80086c6:	6822      	ldr	r2, [r4, #0]
 80086c8:	f8df 908c 	ldr.w	r9, [pc, #140]	; 8008758 <_scanf_chars+0xb0>
 80086cc:	06d1      	lsls	r1, r2, #27
 80086ce:	bf5f      	itttt	pl
 80086d0:	681a      	ldrpl	r2, [r3, #0]
 80086d2:	1d11      	addpl	r1, r2, #4
 80086d4:	6019      	strpl	r1, [r3, #0]
 80086d6:	6816      	ldrpl	r6, [r2, #0]
 80086d8:	69a0      	ldr	r0, [r4, #24]
 80086da:	b188      	cbz	r0, 8008700 <_scanf_chars+0x58>
 80086dc:	2801      	cmp	r0, #1
 80086de:	d107      	bne.n	80086f0 <_scanf_chars+0x48>
 80086e0:	682b      	ldr	r3, [r5, #0]
 80086e2:	781a      	ldrb	r2, [r3, #0]
 80086e4:	6963      	ldr	r3, [r4, #20]
 80086e6:	5c9b      	ldrb	r3, [r3, r2]
 80086e8:	b953      	cbnz	r3, 8008700 <_scanf_chars+0x58>
 80086ea:	2f00      	cmp	r7, #0
 80086ec:	d031      	beq.n	8008752 <_scanf_chars+0xaa>
 80086ee:	e022      	b.n	8008736 <_scanf_chars+0x8e>
 80086f0:	2802      	cmp	r0, #2
 80086f2:	d120      	bne.n	8008736 <_scanf_chars+0x8e>
 80086f4:	682b      	ldr	r3, [r5, #0]
 80086f6:	781b      	ldrb	r3, [r3, #0]
 80086f8:	f813 3009 	ldrb.w	r3, [r3, r9]
 80086fc:	071b      	lsls	r3, r3, #28
 80086fe:	d41a      	bmi.n	8008736 <_scanf_chars+0x8e>
 8008700:	6823      	ldr	r3, [r4, #0]
 8008702:	3701      	adds	r7, #1
 8008704:	06da      	lsls	r2, r3, #27
 8008706:	bf5e      	ittt	pl
 8008708:	682b      	ldrpl	r3, [r5, #0]
 800870a:	781b      	ldrbpl	r3, [r3, #0]
 800870c:	f806 3b01 	strbpl.w	r3, [r6], #1
 8008710:	682a      	ldr	r2, [r5, #0]
 8008712:	686b      	ldr	r3, [r5, #4]
 8008714:	3201      	adds	r2, #1
 8008716:	602a      	str	r2, [r5, #0]
 8008718:	68a2      	ldr	r2, [r4, #8]
 800871a:	3b01      	subs	r3, #1
 800871c:	3a01      	subs	r2, #1
 800871e:	606b      	str	r3, [r5, #4]
 8008720:	60a2      	str	r2, [r4, #8]
 8008722:	b142      	cbz	r2, 8008736 <_scanf_chars+0x8e>
 8008724:	2b00      	cmp	r3, #0
 8008726:	dcd7      	bgt.n	80086d8 <_scanf_chars+0x30>
 8008728:	4629      	mov	r1, r5
 800872a:	4640      	mov	r0, r8
 800872c:	f8d4 3180 	ldr.w	r3, [r4, #384]	; 0x180
 8008730:	4798      	blx	r3
 8008732:	2800      	cmp	r0, #0
 8008734:	d0d0      	beq.n	80086d8 <_scanf_chars+0x30>
 8008736:	6823      	ldr	r3, [r4, #0]
 8008738:	f013 0310 	ands.w	r3, r3, #16
 800873c:	d105      	bne.n	800874a <_scanf_chars+0xa2>
 800873e:	68e2      	ldr	r2, [r4, #12]
 8008740:	3201      	adds	r2, #1
 8008742:	60e2      	str	r2, [r4, #12]
 8008744:	69a2      	ldr	r2, [r4, #24]
 8008746:	b102      	cbz	r2, 800874a <_scanf_chars+0xa2>
 8008748:	7033      	strb	r3, [r6, #0]
 800874a:	2000      	movs	r0, #0
 800874c:	6923      	ldr	r3, [r4, #16]
 800874e:	443b      	add	r3, r7
 8008750:	6123      	str	r3, [r4, #16]
 8008752:	e8bd 83f8 	ldmia.w	sp!, {r3, r4, r5, r6, r7, r8, r9, pc}
 8008756:	bf00      	nop
 8008758:	08009b25 	.word	0x08009b25

0800875c <_scanf_i>:
 800875c:	e92d 4ff0 	stmdb	sp!, {r4, r5, r6, r7, r8, r9, sl, fp, lr}
 8008760:	460c      	mov	r4, r1
 8008762:	4698      	mov	r8, r3
 8008764:	4b75      	ldr	r3, [pc, #468]	; (800893c <_scanf_i+0x1e0>)
 8008766:	b087      	sub	sp, #28
 8008768:	4682      	mov	sl, r0
 800876a:	4616      	mov	r6, r2
 800876c:	e893 0007 	ldmia.w	r3, {r0, r1, r2}
 8008770:	ab03      	add	r3, sp, #12
 8008772:	e883 0007 	stmia.w	r3, {r0, r1, r2}
 8008776:	4b72      	ldr	r3, [pc, #456]	; (8008940 <_scanf_i+0x1e4>)
 8008778:	69a1      	ldr	r1, [r4, #24]
 800877a:	4a72      	ldr	r2, [pc, #456]	; (8008944 <_scanf_i+0x1e8>)
 800877c:	4627      	mov	r7, r4
 800877e:	2903      	cmp	r1, #3
 8008780:	bf18      	it	ne
 8008782:	461a      	movne	r2, r3
 8008784:	68a3      	ldr	r3, [r4, #8]
 8008786:	9201      	str	r2, [sp, #4]
 8008788:	1e5a      	subs	r2, r3, #1
 800878a:	f5b2 7fae 	cmp.w	r2, #348	; 0x15c
 800878e:	bf81      	itttt	hi
 8008790:	f46f 75ae 	mvnhi.w	r5, #348	; 0x15c
 8008794:	eb03 0905 	addhi.w	r9, r3, r5
 8008798:	f240 135d 	movwhi	r3, #349	; 0x15d
 800879c:	60a3      	strhi	r3, [r4, #8]
 800879e:	f857 3b1c 	ldr.w	r3, [r7], #28
 80087a2:	bf98      	it	ls
 80087a4:	f04f 0900 	movls.w	r9, #0
 80087a8:	463d      	mov	r5, r7
 80087aa:	f04f 0b00 	mov.w	fp, #0
 80087ae:	f443 6350 	orr.w	r3, r3, #3328	; 0xd00
 80087b2:	6023      	str	r3, [r4, #0]
 80087b4:	6831      	ldr	r1, [r6, #0]
 80087b6:	ab03      	add	r3, sp, #12
 80087b8:	2202      	movs	r2, #2
 80087ba:	7809      	ldrb	r1, [r1, #0]
 80087bc:	f853 002b 	ldr.w	r0, [r3, fp, lsl #2]
 80087c0:	f000 fcb8 	bl	8009134 <memchr>
 80087c4:	b328      	cbz	r0, 8008812 <_scanf_i+0xb6>
 80087c6:	f1bb 0f01 	cmp.w	fp, #1
 80087ca:	d159      	bne.n	8008880 <_scanf_i+0x124>
 80087cc:	6862      	ldr	r2, [r4, #4]
 80087ce:	b92a      	cbnz	r2, 80087dc <_scanf_i+0x80>
 80087d0:	2308      	movs	r3, #8
 80087d2:	6822      	ldr	r2, [r4, #0]
 80087d4:	6063      	str	r3, [r4, #4]
 80087d6:	f442 7200 	orr.w	r2, r2, #512	; 0x200
 80087da:	6022      	str	r2, [r4, #0]
 80087dc:	6822      	ldr	r2, [r4, #0]
 80087de:	f422 62a0 	bic.w	r2, r2, #1280	; 0x500
 80087e2:	6022      	str	r2, [r4, #0]
 80087e4:	68a2      	ldr	r2, [r4, #8]
 80087e6:	1e51      	subs	r1, r2, #1
 80087e8:	60a1      	str	r1, [r4, #8]
 80087ea:	b192      	cbz	r2, 8008812 <_scanf_i+0xb6>
 80087ec:	6832      	ldr	r2, [r6, #0]
 80087ee:	1c51      	adds	r1, r2, #1
 80087f0:	6031      	str	r1, [r6, #0]
 80087f2:	7812      	ldrb	r2, [r2, #0]
 80087f4:	f805 2b01 	strb.w	r2, [r5], #1
 80087f8:	6872      	ldr	r2, [r6, #4]
 80087fa:	3a01      	subs	r2, #1
 80087fc:	2a00      	cmp	r2, #0
 80087fe:	6072      	str	r2, [r6, #4]
 8008800:	dc07      	bgt.n	8008812 <_scanf_i+0xb6>
 8008802:	4631      	mov	r1, r6
 8008804:	4650      	mov	r0, sl
 8008806:	f8d4 2180 	ldr.w	r2, [r4, #384]	; 0x180
 800880a:	4790      	blx	r2
 800880c:	2800      	cmp	r0, #0
 800880e:	f040 8085 	bne.w	800891c <_scanf_i+0x1c0>
 8008812:	f10b 0b01 	add.w	fp, fp, #1
 8008816:	f1bb 0f03 	cmp.w	fp, #3
 800881a:	d1cb      	bne.n	80087b4 <_scanf_i+0x58>
 800881c:	6863      	ldr	r3, [r4, #4]
 800881e:	b90b      	cbnz	r3, 8008824 <_scanf_i+0xc8>
 8008820:	230a      	movs	r3, #10
 8008822:	6063      	str	r3, [r4, #4]
 8008824:	6863      	ldr	r3, [r4, #4]
 8008826:	4948      	ldr	r1, [pc, #288]	; (8008948 <_scanf_i+0x1ec>)
 8008828:	6960      	ldr	r0, [r4, #20]
 800882a:	1ac9      	subs	r1, r1, r3
 800882c:	f000 f8b0 	bl	8008990 <__sccl>
 8008830:	f04f 0b00 	mov.w	fp, #0
 8008834:	68a3      	ldr	r3, [r4, #8]
 8008836:	6822      	ldr	r2, [r4, #0]
 8008838:	2b00      	cmp	r3, #0
 800883a:	d03d      	beq.n	80088b8 <_scanf_i+0x15c>
 800883c:	6831      	ldr	r1, [r6, #0]
 800883e:	6960      	ldr	r0, [r4, #20]
 8008840:	f891 c000 	ldrb.w	ip, [r1]
 8008844:	f810 000c 	ldrb.w	r0, [r0, ip]
 8008848:	2800      	cmp	r0, #0
 800884a:	d035      	beq.n	80088b8 <_scanf_i+0x15c>
 800884c:	f1bc 0f30 	cmp.w	ip, #48	; 0x30
 8008850:	d124      	bne.n	800889c <_scanf_i+0x140>
 8008852:	0510      	lsls	r0, r2, #20
 8008854:	d522      	bpl.n	800889c <_scanf_i+0x140>
 8008856:	f10b 0b01 	add.w	fp, fp, #1
 800885a:	f1b9 0f00 	cmp.w	r9, #0
 800885e:	d003      	beq.n	8008868 <_scanf_i+0x10c>
 8008860:	3301      	adds	r3, #1
 8008862:	f109 39ff 	add.w	r9, r9, #4294967295
 8008866:	60a3      	str	r3, [r4, #8]
 8008868:	6873      	ldr	r3, [r6, #4]
 800886a:	3b01      	subs	r3, #1
 800886c:	2b00      	cmp	r3, #0
 800886e:	6073      	str	r3, [r6, #4]
 8008870:	dd1b      	ble.n	80088aa <_scanf_i+0x14e>
 8008872:	6833      	ldr	r3, [r6, #0]
 8008874:	3301      	adds	r3, #1
 8008876:	6033      	str	r3, [r6, #0]
 8008878:	68a3      	ldr	r3, [r4, #8]
 800887a:	3b01      	subs	r3, #1
 800887c:	60a3      	str	r3, [r4, #8]
 800887e:	e7d9      	b.n	8008834 <_scanf_i+0xd8>
 8008880:	f1bb 0f02 	cmp.w	fp, #2
 8008884:	d1ae      	bne.n	80087e4 <_scanf_i+0x88>
 8008886:	6822      	ldr	r2, [r4, #0]
 8008888:	f402 61c0 	and.w	r1, r2, #1536	; 0x600
 800888c:	f5b1 7f00 	cmp.w	r1, #512	; 0x200
 8008890:	d1bf      	bne.n	8008812 <_scanf_i+0xb6>
 8008892:	2310      	movs	r3, #16
 8008894:	f442 7280 	orr.w	r2, r2, #256	; 0x100
 8008898:	6063      	str	r3, [r4, #4]
 800889a:	e7a2      	b.n	80087e2 <_scanf_i+0x86>
 800889c:	f422 6210 	bic.w	r2, r2, #2304	; 0x900
 80088a0:	6022      	str	r2, [r4, #0]
 80088a2:	780b      	ldrb	r3, [r1, #0]
 80088a4:	f805 3b01 	strb.w	r3, [r5], #1
 80088a8:	e7de      	b.n	8008868 <_scanf_i+0x10c>
 80088aa:	4631      	mov	r1, r6
 80088ac:	4650      	mov	r0, sl
 80088ae:	f8d4 3180 	ldr.w	r3, [r4, #384]	; 0x180
 80088b2:	4798      	blx	r3
 80088b4:	2800      	cmp	r0, #0
 80088b6:	d0df      	beq.n	8008878 <_scanf_i+0x11c>
 80088b8:	6823      	ldr	r3, [r4, #0]
 80088ba:	05db      	lsls	r3, r3, #23
 80088bc:	d50d      	bpl.n	80088da <_scanf_i+0x17e>
 80088be:	42bd      	cmp	r5, r7
 80088c0:	d909      	bls.n	80088d6 <_scanf_i+0x17a>
 80088c2:	f815 1c01 	ldrb.w	r1, [r5, #-1]
 80088c6:	4632      	mov	r2, r6
 80088c8:	4650      	mov	r0, sl
 80088ca:	f8d4 317c 	ldr.w	r3, [r4, #380]	; 0x17c
 80088ce:	f105 39ff 	add.w	r9, r5, #4294967295
 80088d2:	4798      	blx	r3
 80088d4:	464d      	mov	r5, r9
 80088d6:	42bd      	cmp	r5, r7
 80088d8:	d02d      	beq.n	8008936 <_scanf_i+0x1da>
 80088da:	6822      	ldr	r2, [r4, #0]
 80088dc:	f012 0210 	ands.w	r2, r2, #16
 80088e0:	d113      	bne.n	800890a <_scanf_i+0x1ae>
 80088e2:	702a      	strb	r2, [r5, #0]
 80088e4:	4639      	mov	r1, r7
 80088e6:	6863      	ldr	r3, [r4, #4]
 80088e8:	4650      	mov	r0, sl
 80088ea:	9e01      	ldr	r6, [sp, #4]
 80088ec:	47b0      	blx	r6
 80088ee:	6821      	ldr	r1, [r4, #0]
 80088f0:	f8d8 3000 	ldr.w	r3, [r8]
 80088f4:	f011 0f20 	tst.w	r1, #32
 80088f8:	d013      	beq.n	8008922 <_scanf_i+0x1c6>
 80088fa:	1d1a      	adds	r2, r3, #4
 80088fc:	f8c8 2000 	str.w	r2, [r8]
 8008900:	681b      	ldr	r3, [r3, #0]
 8008902:	6018      	str	r0, [r3, #0]
 8008904:	68e3      	ldr	r3, [r4, #12]
 8008906:	3301      	adds	r3, #1
 8008908:	60e3      	str	r3, [r4, #12]
 800890a:	2000      	movs	r0, #0
 800890c:	1bed      	subs	r5, r5, r7
 800890e:	44ab      	add	fp, r5
 8008910:	6925      	ldr	r5, [r4, #16]
 8008912:	445d      	add	r5, fp
 8008914:	6125      	str	r5, [r4, #16]
 8008916:	b007      	add	sp, #28
 8008918:	e8bd 8ff0 	ldmia.w	sp!, {r4, r5, r6, r7, r8, r9, sl, fp, pc}
 800891c:	f04f 0b00 	mov.w	fp, #0
 8008920:	e7ca      	b.n	80088b8 <_scanf_i+0x15c>
 8008922:	1d1a      	adds	r2, r3, #4
 8008924:	f8c8 2000 	str.w	r2, [r8]
 8008928:	681b      	ldr	r3, [r3, #0]
 800892a:	f011 0f01 	tst.w	r1, #1
 800892e:	bf14      	ite	ne
 8008930:	8018      	strhne	r0, [r3, #0]
 8008932:	6018      	streq	r0, [r3, #0]
 8008934:	e7e6      	b.n	8008904 <_scanf_i+0x1a8>
 8008936:	2001      	movs	r0, #1
 8008938:	e7ed      	b.n	8008916 <_scanf_i+0x1ba>
 800893a:	bf00      	nop
 800893c:	080092bc 	.word	0x080092bc
 8008940:	080077c5 	.word	0x080077c5
 8008944:	08008af9 	.word	0x08008af9
 8008948:	08009d28 	.word	0x08009d28

0800894c <_read_r>:
 800894c:	b538      	push	{r3, r4, r5, lr}
 800894e:	4604      	mov	r4, r0
 8008950:	4608      	mov	r0, r1
 8008952:	4611      	mov	r1, r2
 8008954:	2200      	movs	r2, #0
 8008956:	4d05      	ldr	r5, [pc, #20]	; (800896c <_read_r+0x20>)
 8008958:	602a      	str	r2, [r5, #0]
 800895a:	461a      	mov	r2, r3
 800895c:	f7f7 feae 	bl	80006bc <_read>
 8008960:	1c43      	adds	r3, r0, #1
 8008962:	d102      	bne.n	800896a <_read_r+0x1e>
 8008964:	682b      	ldr	r3, [r5, #0]
 8008966:	b103      	cbz	r3, 800896a <_read_r+0x1e>
 8008968:	6023      	str	r3, [r4, #0]
 800896a:	bd38      	pop	{r3, r4, r5, pc}
 800896c:	20002e7c 	.word	0x20002e7c

08008970 <_sbrk_r>:
 8008970:	b538      	push	{r3, r4, r5, lr}
 8008972:	2300      	movs	r3, #0
 8008974:	4d05      	ldr	r5, [pc, #20]	; (800898c <_sbrk_r+0x1c>)
 8008976:	4604      	mov	r4, r0
 8008978:	4608      	mov	r0, r1
 800897a:	602b      	str	r3, [r5, #0]
 800897c:	f7f7 fec6 	bl	800070c <_sbrk>
 8008980:	1c43      	adds	r3, r0, #1
 8008982:	d102      	bne.n	800898a <_sbrk_r+0x1a>
 8008984:	682b      	ldr	r3, [r5, #0]
 8008986:	b103      	cbz	r3, 800898a <_sbrk_r+0x1a>
 8008988:	6023      	str	r3, [r4, #0]
 800898a:	bd38      	pop	{r3, r4, r5, pc}
 800898c:	20002e7c 	.word	0x20002e7c

08008990 <__sccl>:
 8008990:	b570      	push	{r4, r5, r6, lr}
 8008992:	780b      	ldrb	r3, [r1, #0]
 8008994:	4604      	mov	r4, r0
 8008996:	2b5e      	cmp	r3, #94	; 0x5e
 8008998:	bf13      	iteet	ne
 800899a:	2200      	movne	r2, #0
 800899c:	2201      	moveq	r2, #1
 800899e:	784b      	ldrbeq	r3, [r1, #1]
 80089a0:	1c48      	addne	r0, r1, #1
 80089a2:	bf08      	it	eq
 80089a4:	1c88      	addeq	r0, r1, #2
 80089a6:	f104 05ff 	add.w	r5, r4, #255	; 0xff
 80089aa:	1e61      	subs	r1, r4, #1
 80089ac:	f801 2f01 	strb.w	r2, [r1, #1]!
 80089b0:	42a9      	cmp	r1, r5
 80089b2:	d1fb      	bne.n	80089ac <__sccl+0x1c>
 80089b4:	b90b      	cbnz	r3, 80089ba <__sccl+0x2a>
 80089b6:	3801      	subs	r0, #1
 80089b8:	bd70      	pop	{r4, r5, r6, pc}
 80089ba:	f082 0201 	eor.w	r2, r2, #1
 80089be:	4605      	mov	r5, r0
 80089c0:	54e2      	strb	r2, [r4, r3]
 80089c2:	4628      	mov	r0, r5
 80089c4:	f810 1b01 	ldrb.w	r1, [r0], #1
 80089c8:	292d      	cmp	r1, #45	; 0x2d
 80089ca:	d006      	beq.n	80089da <__sccl+0x4a>
 80089cc:	295d      	cmp	r1, #93	; 0x5d
 80089ce:	d0f3      	beq.n	80089b8 <__sccl+0x28>
 80089d0:	b909      	cbnz	r1, 80089d6 <__sccl+0x46>
 80089d2:	4628      	mov	r0, r5
 80089d4:	e7f0      	b.n	80089b8 <__sccl+0x28>
 80089d6:	460b      	mov	r3, r1
 80089d8:	e7f1      	b.n	80089be <__sccl+0x2e>
 80089da:	786e      	ldrb	r6, [r5, #1]
 80089dc:	2e5d      	cmp	r6, #93	; 0x5d
 80089de:	d0fa      	beq.n	80089d6 <__sccl+0x46>
 80089e0:	42b3      	cmp	r3, r6
 80089e2:	dcf8      	bgt.n	80089d6 <__sccl+0x46>
 80089e4:	4619      	mov	r1, r3
 80089e6:	3502      	adds	r5, #2
 80089e8:	3101      	adds	r1, #1
 80089ea:	428e      	cmp	r6, r1
 80089ec:	5462      	strb	r2, [r4, r1]
 80089ee:	dcfb      	bgt.n	80089e8 <__sccl+0x58>
 80089f0:	1af1      	subs	r1, r6, r3
 80089f2:	3901      	subs	r1, #1
 80089f4:	42b3      	cmp	r3, r6
 80089f6:	bfa8      	it	ge
 80089f8:	2100      	movge	r1, #0
 80089fa:	1c58      	adds	r0, r3, #1
 80089fc:	1843      	adds	r3, r0, r1
 80089fe:	e7e0      	b.n	80089c2 <__sccl+0x32>

08008a00 <_strtol_l.constprop.0>:
 8008a00:	2b01      	cmp	r3, #1
 8008a02:	e92d 47f0 	stmdb	sp!, {r4, r5, r6, r7, r8, r9, sl, lr}
 8008a06:	4680      	mov	r8, r0
 8008a08:	d001      	beq.n	8008a0e <_strtol_l.constprop.0+0xe>
 8008a0a:	2b24      	cmp	r3, #36	; 0x24
 8008a0c:	d906      	bls.n	8008a1c <_strtol_l.constprop.0+0x1c>
 8008a0e:	f7fe fcd9 	bl	80073c4 <__errno>
 8008a12:	2316      	movs	r3, #22
 8008a14:	6003      	str	r3, [r0, #0]
 8008a16:	2000      	movs	r0, #0
 8008a18:	e8bd 87f0 	ldmia.w	sp!, {r4, r5, r6, r7, r8, r9, sl, pc}
 8008a1c:	460d      	mov	r5, r1
 8008a1e:	4f35      	ldr	r7, [pc, #212]	; (8008af4 <_strtol_l.constprop.0+0xf4>)
 8008a20:	4628      	mov	r0, r5
 8008a22:	f815 4b01 	ldrb.w	r4, [r5], #1
 8008a26:	5de6      	ldrb	r6, [r4, r7]
 8008a28:	f016 0608 	ands.w	r6, r6, #8
 8008a2c:	d1f8      	bne.n	8008a20 <_strtol_l.constprop.0+0x20>
 8008a2e:	2c2d      	cmp	r4, #45	; 0x2d
 8008a30:	d12f      	bne.n	8008a92 <_strtol_l.constprop.0+0x92>
 8008a32:	2601      	movs	r6, #1
 8008a34:	782c      	ldrb	r4, [r5, #0]
 8008a36:	1c85      	adds	r5, r0, #2
 8008a38:	2b00      	cmp	r3, #0
 8008a3a:	d057      	beq.n	8008aec <_strtol_l.constprop.0+0xec>
 8008a3c:	2b10      	cmp	r3, #16
 8008a3e:	d109      	bne.n	8008a54 <_strtol_l.constprop.0+0x54>
 8008a40:	2c30      	cmp	r4, #48	; 0x30
 8008a42:	d107      	bne.n	8008a54 <_strtol_l.constprop.0+0x54>
 8008a44:	7828      	ldrb	r0, [r5, #0]
 8008a46:	f000 00df 	and.w	r0, r0, #223	; 0xdf
 8008a4a:	2858      	cmp	r0, #88	; 0x58
 8008a4c:	d149      	bne.n	8008ae2 <_strtol_l.constprop.0+0xe2>
 8008a4e:	2310      	movs	r3, #16
 8008a50:	786c      	ldrb	r4, [r5, #1]
 8008a52:	3502      	adds	r5, #2
 8008a54:	2700      	movs	r7, #0
 8008a56:	f106 4e00 	add.w	lr, r6, #2147483648	; 0x80000000
 8008a5a:	f10e 3eff 	add.w	lr, lr, #4294967295
 8008a5e:	fbbe f9f3 	udiv	r9, lr, r3
 8008a62:	4638      	mov	r0, r7
 8008a64:	fb03 ea19 	mls	sl, r3, r9, lr
 8008a68:	f1a4 0c30 	sub.w	ip, r4, #48	; 0x30
 8008a6c:	f1bc 0f09 	cmp.w	ip, #9
 8008a70:	d814      	bhi.n	8008a9c <_strtol_l.constprop.0+0x9c>
 8008a72:	4664      	mov	r4, ip
 8008a74:	42a3      	cmp	r3, r4
 8008a76:	dd22      	ble.n	8008abe <_strtol_l.constprop.0+0xbe>
 8008a78:	2f00      	cmp	r7, #0
 8008a7a:	db1d      	blt.n	8008ab8 <_strtol_l.constprop.0+0xb8>
 8008a7c:	4581      	cmp	r9, r0
 8008a7e:	d31b      	bcc.n	8008ab8 <_strtol_l.constprop.0+0xb8>
 8008a80:	d101      	bne.n	8008a86 <_strtol_l.constprop.0+0x86>
 8008a82:	45a2      	cmp	sl, r4
 8008a84:	db18      	blt.n	8008ab8 <_strtol_l.constprop.0+0xb8>
 8008a86:	2701      	movs	r7, #1
 8008a88:	fb00 4003 	mla	r0, r0, r3, r4
 8008a8c:	f815 4b01 	ldrb.w	r4, [r5], #1
 8008a90:	e7ea      	b.n	8008a68 <_strtol_l.constprop.0+0x68>
 8008a92:	2c2b      	cmp	r4, #43	; 0x2b
 8008a94:	bf04      	itt	eq
 8008a96:	782c      	ldrbeq	r4, [r5, #0]
 8008a98:	1c85      	addeq	r5, r0, #2
 8008a9a:	e7cd      	b.n	8008a38 <_strtol_l.constprop.0+0x38>
 8008a9c:	f1a4 0c41 	sub.w	ip, r4, #65	; 0x41
 8008aa0:	f1bc 0f19 	cmp.w	ip, #25
 8008aa4:	d801      	bhi.n	8008aaa <_strtol_l.constprop.0+0xaa>
 8008aa6:	3c37      	subs	r4, #55	; 0x37
 8008aa8:	e7e4      	b.n	8008a74 <_strtol_l.constprop.0+0x74>
 8008aaa:	f1a4 0c61 	sub.w	ip, r4, #97	; 0x61
 8008aae:	f1bc 0f19 	cmp.w	ip, #25
 8008ab2:	d804      	bhi.n	8008abe <_strtol_l.constprop.0+0xbe>
 8008ab4:	3c57      	subs	r4, #87	; 0x57
 8008ab6:	e7dd      	b.n	8008a74 <_strtol_l.constprop.0+0x74>
 8008ab8:	f04f 37ff 	mov.w	r7, #4294967295
 8008abc:	e7e6      	b.n	8008a8c <_strtol_l.constprop.0+0x8c>
 8008abe:	2f00      	cmp	r7, #0
 8008ac0:	da07      	bge.n	8008ad2 <_strtol_l.constprop.0+0xd2>
 8008ac2:	2322      	movs	r3, #34	; 0x22
 8008ac4:	4670      	mov	r0, lr
 8008ac6:	f8c8 3000 	str.w	r3, [r8]
 8008aca:	2a00      	cmp	r2, #0
 8008acc:	d0a4      	beq.n	8008a18 <_strtol_l.constprop.0+0x18>
 8008ace:	1e69      	subs	r1, r5, #1
 8008ad0:	e005      	b.n	8008ade <_strtol_l.constprop.0+0xde>
 8008ad2:	b106      	cbz	r6, 8008ad6 <_strtol_l.constprop.0+0xd6>
 8008ad4:	4240      	negs	r0, r0
 8008ad6:	2a00      	cmp	r2, #0
 8008ad8:	d09e      	beq.n	8008a18 <_strtol_l.constprop.0+0x18>
 8008ada:	2f00      	cmp	r7, #0
 8008adc:	d1f7      	bne.n	8008ace <_strtol_l.constprop.0+0xce>
 8008ade:	6011      	str	r1, [r2, #0]
 8008ae0:	e79a      	b.n	8008a18 <_strtol_l.constprop.0+0x18>
 8008ae2:	2430      	movs	r4, #48	; 0x30
 8008ae4:	2b00      	cmp	r3, #0
 8008ae6:	d1b5      	bne.n	8008a54 <_strtol_l.constprop.0+0x54>
 8008ae8:	2308      	movs	r3, #8
 8008aea:	e7b3      	b.n	8008a54 <_strtol_l.constprop.0+0x54>
 8008aec:	2c30      	cmp	r4, #48	; 0x30
 8008aee:	d0a9      	beq.n	8008a44 <_strtol_l.constprop.0+0x44>
 8008af0:	230a      	movs	r3, #10
 8008af2:	e7af      	b.n	8008a54 <_strtol_l.constprop.0+0x54>
 8008af4:	08009b25 	.word	0x08009b25

08008af8 <_strtol_r>:
 8008af8:	f7ff bf82 	b.w	8008a00 <_strtol_l.constprop.0>

08008afc <__submore>:
 8008afc:	e92d 41f0 	stmdb	sp!, {r4, r5, r6, r7, r8, lr}
 8008b00:	460c      	mov	r4, r1
 8008b02:	6b49      	ldr	r1, [r1, #52]	; 0x34
 8008b04:	f104 0344 	add.w	r3, r4, #68	; 0x44
 8008b08:	4299      	cmp	r1, r3
 8008b0a:	d11b      	bne.n	8008b44 <__submore+0x48>
 8008b0c:	f44f 6180 	mov.w	r1, #1024	; 0x400
 8008b10:	f7fe ff38 	bl	8007984 <_malloc_r>
 8008b14:	b918      	cbnz	r0, 8008b1e <__submore+0x22>
 8008b16:	f04f 30ff 	mov.w	r0, #4294967295
 8008b1a:	e8bd 81f0 	ldmia.w	sp!, {r4, r5, r6, r7, r8, pc}
 8008b1e:	f44f 6380 	mov.w	r3, #1024	; 0x400
 8008b22:	63a3      	str	r3, [r4, #56]	; 0x38
 8008b24:	f894 3046 	ldrb.w	r3, [r4, #70]	; 0x46
 8008b28:	6360      	str	r0, [r4, #52]	; 0x34
 8008b2a:	f880 33ff 	strb.w	r3, [r0, #1023]	; 0x3ff
 8008b2e:	f894 3045 	ldrb.w	r3, [r4, #69]	; 0x45
 8008b32:	f200 30fd 	addw	r0, r0, #1021	; 0x3fd
 8008b36:	7043      	strb	r3, [r0, #1]
 8008b38:	f894 3044 	ldrb.w	r3, [r4, #68]	; 0x44
 8008b3c:	7003      	strb	r3, [r0, #0]
 8008b3e:	6020      	str	r0, [r4, #0]
 8008b40:	2000      	movs	r0, #0
 8008b42:	e7ea      	b.n	8008b1a <__submore+0x1e>
 8008b44:	6ba6      	ldr	r6, [r4, #56]	; 0x38
 8008b46:	0077      	lsls	r7, r6, #1
 8008b48:	463a      	mov	r2, r7
 8008b4a:	f000 fb0d 	bl	8009168 <_realloc_r>
 8008b4e:	4605      	mov	r5, r0
 8008b50:	2800      	cmp	r0, #0
 8008b52:	d0e0      	beq.n	8008b16 <__submore+0x1a>
 8008b54:	eb00 0806 	add.w	r8, r0, r6
 8008b58:	4601      	mov	r1, r0
 8008b5a:	4632      	mov	r2, r6
 8008b5c:	4640      	mov	r0, r8
 8008b5e:	f7fe fc5b 	bl	8007418 <memcpy>
 8008b62:	e9c4 570d 	strd	r5, r7, [r4, #52]	; 0x34
 8008b66:	f8c4 8000 	str.w	r8, [r4]
 8008b6a:	e7e9      	b.n	8008b40 <__submore+0x44>

08008b6c <__swbuf_r>:
 8008b6c:	b5f8      	push	{r3, r4, r5, r6, r7, lr}
 8008b6e:	460e      	mov	r6, r1
 8008b70:	4614      	mov	r4, r2
 8008b72:	4605      	mov	r5, r0
 8008b74:	b118      	cbz	r0, 8008b7e <__swbuf_r+0x12>
 8008b76:	6983      	ldr	r3, [r0, #24]
 8008b78:	b90b      	cbnz	r3, 8008b7e <__swbuf_r+0x12>
 8008b7a:	f000 f9d5 	bl	8008f28 <__sinit>
 8008b7e:	4b21      	ldr	r3, [pc, #132]	; (8008c04 <__swbuf_r+0x98>)
 8008b80:	429c      	cmp	r4, r3
 8008b82:	d12b      	bne.n	8008bdc <__swbuf_r+0x70>
 8008b84:	686c      	ldr	r4, [r5, #4]
 8008b86:	69a3      	ldr	r3, [r4, #24]
 8008b88:	60a3      	str	r3, [r4, #8]
 8008b8a:	89a3      	ldrh	r3, [r4, #12]
 8008b8c:	071a      	lsls	r2, r3, #28
 8008b8e:	d52f      	bpl.n	8008bf0 <__swbuf_r+0x84>
 8008b90:	6923      	ldr	r3, [r4, #16]
 8008b92:	b36b      	cbz	r3, 8008bf0 <__swbuf_r+0x84>
 8008b94:	6923      	ldr	r3, [r4, #16]
 8008b96:	6820      	ldr	r0, [r4, #0]
 8008b98:	b2f6      	uxtb	r6, r6
 8008b9a:	1ac0      	subs	r0, r0, r3
 8008b9c:	6963      	ldr	r3, [r4, #20]
 8008b9e:	4637      	mov	r7, r6
 8008ba0:	4283      	cmp	r3, r0
 8008ba2:	dc04      	bgt.n	8008bae <__swbuf_r+0x42>
 8008ba4:	4621      	mov	r1, r4
 8008ba6:	4628      	mov	r0, r5
 8008ba8:	f000 f92a 	bl	8008e00 <_fflush_r>
 8008bac:	bb30      	cbnz	r0, 8008bfc <__swbuf_r+0x90>
 8008bae:	68a3      	ldr	r3, [r4, #8]
 8008bb0:	3001      	adds	r0, #1
 8008bb2:	3b01      	subs	r3, #1
 8008bb4:	60a3      	str	r3, [r4, #8]
 8008bb6:	6823      	ldr	r3, [r4, #0]
 8008bb8:	1c5a      	adds	r2, r3, #1
 8008bba:	6022      	str	r2, [r4, #0]
 8008bbc:	701e      	strb	r6, [r3, #0]
 8008bbe:	6963      	ldr	r3, [r4, #20]
 8008bc0:	4283      	cmp	r3, r0
 8008bc2:	d004      	beq.n	8008bce <__swbuf_r+0x62>
 8008bc4:	89a3      	ldrh	r3, [r4, #12]
 8008bc6:	07db      	lsls	r3, r3, #31
 8008bc8:	d506      	bpl.n	8008bd8 <__swbuf_r+0x6c>
 8008bca:	2e0a      	cmp	r6, #10
 8008bcc:	d104      	bne.n	8008bd8 <__swbuf_r+0x6c>
 8008bce:	4621      	mov	r1, r4
 8008bd0:	4628      	mov	r0, r5
 8008bd2:	f000 f915 	bl	8008e00 <_fflush_r>
 8008bd6:	b988      	cbnz	r0, 8008bfc <__swbuf_r+0x90>
 8008bd8:	4638      	mov	r0, r7
 8008bda:	bdf8      	pop	{r3, r4, r5, r6, r7, pc}
 8008bdc:	4b0a      	ldr	r3, [pc, #40]	; (8008c08 <__swbuf_r+0x9c>)
 8008bde:	429c      	cmp	r4, r3
 8008be0:	d101      	bne.n	8008be6 <__swbuf_r+0x7a>
 8008be2:	68ac      	ldr	r4, [r5, #8]
 8008be4:	e7cf      	b.n	8008b86 <__swbuf_r+0x1a>
 8008be6:	4b09      	ldr	r3, [pc, #36]	; (8008c0c <__swbuf_r+0xa0>)
 8008be8:	429c      	cmp	r4, r3
 8008bea:	bf08      	it	eq
 8008bec:	68ec      	ldreq	r4, [r5, #12]
 8008bee:	e7ca      	b.n	8008b86 <__swbuf_r+0x1a>
 8008bf0:	4621      	mov	r1, r4
 8008bf2:	4628      	mov	r0, r5
 8008bf4:	f000 f80c 	bl	8008c10 <__swsetup_r>
 8008bf8:	2800      	cmp	r0, #0
 8008bfa:	d0cb      	beq.n	8008b94 <__swbuf_r+0x28>
 8008bfc:	f04f 37ff 	mov.w	r7, #4294967295
 8008c00:	e7ea      	b.n	8008bd8 <__swbuf_r+0x6c>
 8008c02:	bf00      	nop
 8008c04:	08009d4c 	.word	0x08009d4c
 8008c08:	08009d6c 	.word	0x08009d6c
 8008c0c:	08009d2c 	.word	0x08009d2c

08008c10 <__swsetup_r>:
 8008c10:	4b32      	ldr	r3, [pc, #200]	; (8008cdc <__swsetup_r+0xcc>)
 8008c12:	b570      	push	{r4, r5, r6, lr}
 8008c14:	681d      	ldr	r5, [r3, #0]
 8008c16:	4606      	mov	r6, r0
 8008c18:	460c      	mov	r4, r1
 8008c1a:	b125      	cbz	r5, 8008c26 <__swsetup_r+0x16>
 8008c1c:	69ab      	ldr	r3, [r5, #24]
 8008c1e:	b913      	cbnz	r3, 8008c26 <__swsetup_r+0x16>
 8008c20:	4628      	mov	r0, r5
 8008c22:	f000 f981 	bl	8008f28 <__sinit>
 8008c26:	4b2e      	ldr	r3, [pc, #184]	; (8008ce0 <__swsetup_r+0xd0>)
 8008c28:	429c      	cmp	r4, r3
 8008c2a:	d10f      	bne.n	8008c4c <__swsetup_r+0x3c>
 8008c2c:	686c      	ldr	r4, [r5, #4]
 8008c2e:	89a3      	ldrh	r3, [r4, #12]
 8008c30:	f9b4 200c 	ldrsh.w	r2, [r4, #12]
 8008c34:	0719      	lsls	r1, r3, #28
 8008c36:	d42c      	bmi.n	8008c92 <__swsetup_r+0x82>
 8008c38:	06dd      	lsls	r5, r3, #27
 8008c3a:	d411      	bmi.n	8008c60 <__swsetup_r+0x50>
 8008c3c:	2309      	movs	r3, #9
 8008c3e:	6033      	str	r3, [r6, #0]
 8008c40:	f042 0340 	orr.w	r3, r2, #64	; 0x40
 8008c44:	f04f 30ff 	mov.w	r0, #4294967295
 8008c48:	81a3      	strh	r3, [r4, #12]
 8008c4a:	e03e      	b.n	8008cca <__swsetup_r+0xba>
 8008c4c:	4b25      	ldr	r3, [pc, #148]	; (8008ce4 <__swsetup_r+0xd4>)
 8008c4e:	429c      	cmp	r4, r3
 8008c50:	d101      	bne.n	8008c56 <__swsetup_r+0x46>
 8008c52:	68ac      	ldr	r4, [r5, #8]
 8008c54:	e7eb      	b.n	8008c2e <__swsetup_r+0x1e>
 8008c56:	4b24      	ldr	r3, [pc, #144]	; (8008ce8 <__swsetup_r+0xd8>)
 8008c58:	429c      	cmp	r4, r3
 8008c5a:	bf08      	it	eq
 8008c5c:	68ec      	ldreq	r4, [r5, #12]
 8008c5e:	e7e6      	b.n	8008c2e <__swsetup_r+0x1e>
 8008c60:	0758      	lsls	r0, r3, #29
 8008c62:	d512      	bpl.n	8008c8a <__swsetup_r+0x7a>
 8008c64:	6b61      	ldr	r1, [r4, #52]	; 0x34
 8008c66:	b141      	cbz	r1, 8008c7a <__swsetup_r+0x6a>
 8008c68:	f104 0344 	add.w	r3, r4, #68	; 0x44
 8008c6c:	4299      	cmp	r1, r3
 8008c6e:	d002      	beq.n	8008c76 <__swsetup_r+0x66>
 8008c70:	4630      	mov	r0, r6
 8008c72:	f7fe fe1f 	bl	80078b4 <_free_r>
 8008c76:	2300      	movs	r3, #0
 8008c78:	6363      	str	r3, [r4, #52]	; 0x34
 8008c7a:	89a3      	ldrh	r3, [r4, #12]
 8008c7c:	f023 0324 	bic.w	r3, r3, #36	; 0x24
 8008c80:	81a3      	strh	r3, [r4, #12]
 8008c82:	2300      	movs	r3, #0
 8008c84:	6063      	str	r3, [r4, #4]
 8008c86:	6923      	ldr	r3, [r4, #16]
 8008c88:	6023      	str	r3, [r4, #0]
 8008c8a:	89a3      	ldrh	r3, [r4, #12]
 8008c8c:	f043 0308 	orr.w	r3, r3, #8
 8008c90:	81a3      	strh	r3, [r4, #12]
 8008c92:	6923      	ldr	r3, [r4, #16]
 8008c94:	b94b      	cbnz	r3, 8008caa <__swsetup_r+0x9a>
 8008c96:	89a3      	ldrh	r3, [r4, #12]
 8008c98:	f403 7320 	and.w	r3, r3, #640	; 0x280
 8008c9c:	f5b3 7f00 	cmp.w	r3, #512	; 0x200
 8008ca0:	d003      	beq.n	8008caa <__swsetup_r+0x9a>
 8008ca2:	4621      	mov	r1, r4
 8008ca4:	4630      	mov	r0, r6
 8008ca6:	f000 fa05 	bl	80090b4 <__smakebuf_r>
 8008caa:	89a0      	ldrh	r0, [r4, #12]
 8008cac:	f9b4 200c 	ldrsh.w	r2, [r4, #12]
 8008cb0:	f010 0301 	ands.w	r3, r0, #1
 8008cb4:	d00a      	beq.n	8008ccc <__swsetup_r+0xbc>
 8008cb6:	2300      	movs	r3, #0
 8008cb8:	60a3      	str	r3, [r4, #8]
 8008cba:	6963      	ldr	r3, [r4, #20]
 8008cbc:	425b      	negs	r3, r3
 8008cbe:	61a3      	str	r3, [r4, #24]
 8008cc0:	6923      	ldr	r3, [r4, #16]
 8008cc2:	b943      	cbnz	r3, 8008cd6 <__swsetup_r+0xc6>
 8008cc4:	f010 0080 	ands.w	r0, r0, #128	; 0x80
 8008cc8:	d1ba      	bne.n	8008c40 <__swsetup_r+0x30>
 8008cca:	bd70      	pop	{r4, r5, r6, pc}
 8008ccc:	0781      	lsls	r1, r0, #30
 8008cce:	bf58      	it	pl
 8008cd0:	6963      	ldrpl	r3, [r4, #20]
 8008cd2:	60a3      	str	r3, [r4, #8]
 8008cd4:	e7f4      	b.n	8008cc0 <__swsetup_r+0xb0>
 8008cd6:	2000      	movs	r0, #0
 8008cd8:	e7f7      	b.n	8008cca <__swsetup_r+0xba>
 8008cda:	bf00      	nop
 8008cdc:	20000228 	.word	0x20000228
 8008ce0:	08009d4c 	.word	0x08009d4c
 8008ce4:	08009d6c 	.word	0x08009d6c
 8008ce8:	08009d2c 	.word	0x08009d2c

08008cec <abort>:
 8008cec:	2006      	movs	r0, #6
 8008cee:	b508      	push	{r3, lr}
 8008cf0:	f000 fa92 	bl	8009218 <raise>
 8008cf4:	2001      	movs	r0, #1
 8008cf6:	f7f7 fcdb 	bl	80006b0 <_exit>
	...

08008cfc <__sflush_r>:
 8008cfc:	898a      	ldrh	r2, [r1, #12]
 8008cfe:	b5f8      	push	{r3, r4, r5, r6, r7, lr}
 8008d00:	4605      	mov	r5, r0
 8008d02:	0710      	lsls	r0, r2, #28
 8008d04:	460c      	mov	r4, r1
 8008d06:	d457      	bmi.n	8008db8 <__sflush_r+0xbc>
 8008d08:	684b      	ldr	r3, [r1, #4]
 8008d0a:	2b00      	cmp	r3, #0
 8008d0c:	dc04      	bgt.n	8008d18 <__sflush_r+0x1c>
 8008d0e:	6c0b      	ldr	r3, [r1, #64]	; 0x40
 8008d10:	2b00      	cmp	r3, #0
 8008d12:	dc01      	bgt.n	8008d18 <__sflush_r+0x1c>
 8008d14:	2000      	movs	r0, #0
 8008d16:	bdf8      	pop	{r3, r4, r5, r6, r7, pc}
 8008d18:	6ae6      	ldr	r6, [r4, #44]	; 0x2c
 8008d1a:	2e00      	cmp	r6, #0
 8008d1c:	d0fa      	beq.n	8008d14 <__sflush_r+0x18>
 8008d1e:	2300      	movs	r3, #0
 8008d20:	f412 5280 	ands.w	r2, r2, #4096	; 0x1000
 8008d24:	682f      	ldr	r7, [r5, #0]
 8008d26:	602b      	str	r3, [r5, #0]
 8008d28:	d032      	beq.n	8008d90 <__sflush_r+0x94>
 8008d2a:	6d60      	ldr	r0, [r4, #84]	; 0x54
 8008d2c:	89a3      	ldrh	r3, [r4, #12]
 8008d2e:	075a      	lsls	r2, r3, #29
 8008d30:	d505      	bpl.n	8008d3e <__sflush_r+0x42>
 8008d32:	6863      	ldr	r3, [r4, #4]
 8008d34:	1ac0      	subs	r0, r0, r3
 8008d36:	6b63      	ldr	r3, [r4, #52]	; 0x34
 8008d38:	b10b      	cbz	r3, 8008d3e <__sflush_r+0x42>
 8008d3a:	6c23      	ldr	r3, [r4, #64]	; 0x40
 8008d3c:	1ac0      	subs	r0, r0, r3
 8008d3e:	2300      	movs	r3, #0
 8008d40:	4602      	mov	r2, r0
 8008d42:	6ae6      	ldr	r6, [r4, #44]	; 0x2c
 8008d44:	4628      	mov	r0, r5
 8008d46:	6a21      	ldr	r1, [r4, #32]
 8008d48:	47b0      	blx	r6
 8008d4a:	1c43      	adds	r3, r0, #1
 8008d4c:	89a3      	ldrh	r3, [r4, #12]
 8008d4e:	d106      	bne.n	8008d5e <__sflush_r+0x62>
 8008d50:	6829      	ldr	r1, [r5, #0]
 8008d52:	291d      	cmp	r1, #29
 8008d54:	d82c      	bhi.n	8008db0 <__sflush_r+0xb4>
 8008d56:	4a29      	ldr	r2, [pc, #164]	; (8008dfc <__sflush_r+0x100>)
 8008d58:	40ca      	lsrs	r2, r1
 8008d5a:	07d6      	lsls	r6, r2, #31
 8008d5c:	d528      	bpl.n	8008db0 <__sflush_r+0xb4>
 8008d5e:	2200      	movs	r2, #0
 8008d60:	6062      	str	r2, [r4, #4]
 8008d62:	6922      	ldr	r2, [r4, #16]
 8008d64:	04d9      	lsls	r1, r3, #19
 8008d66:	6022      	str	r2, [r4, #0]
 8008d68:	d504      	bpl.n	8008d74 <__sflush_r+0x78>
 8008d6a:	1c42      	adds	r2, r0, #1
 8008d6c:	d101      	bne.n	8008d72 <__sflush_r+0x76>
 8008d6e:	682b      	ldr	r3, [r5, #0]
 8008d70:	b903      	cbnz	r3, 8008d74 <__sflush_r+0x78>
 8008d72:	6560      	str	r0, [r4, #84]	; 0x54
 8008d74:	6b61      	ldr	r1, [r4, #52]	; 0x34
 8008d76:	602f      	str	r7, [r5, #0]
 8008d78:	2900      	cmp	r1, #0
 8008d7a:	d0cb      	beq.n	8008d14 <__sflush_r+0x18>
 8008d7c:	f104 0344 	add.w	r3, r4, #68	; 0x44
 8008d80:	4299      	cmp	r1, r3
 8008d82:	d002      	beq.n	8008d8a <__sflush_r+0x8e>
 8008d84:	4628      	mov	r0, r5
 8008d86:	f7fe fd95 	bl	80078b4 <_free_r>
 8008d8a:	2000      	movs	r0, #0
 8008d8c:	6360      	str	r0, [r4, #52]	; 0x34
 8008d8e:	e7c2      	b.n	8008d16 <__sflush_r+0x1a>
 8008d90:	6a21      	ldr	r1, [r4, #32]
 8008d92:	2301      	movs	r3, #1
 8008d94:	4628      	mov	r0, r5
 8008d96:	47b0      	blx	r6
 8008d98:	1c41      	adds	r1, r0, #1
 8008d9a:	d1c7      	bne.n	8008d2c <__sflush_r+0x30>
 8008d9c:	682b      	ldr	r3, [r5, #0]
 8008d9e:	2b00      	cmp	r3, #0
 8008da0:	d0c4      	beq.n	8008d2c <__sflush_r+0x30>
 8008da2:	2b1d      	cmp	r3, #29
 8008da4:	d001      	beq.n	8008daa <__sflush_r+0xae>
 8008da6:	2b16      	cmp	r3, #22
 8008da8:	d101      	bne.n	8008dae <__sflush_r+0xb2>
 8008daa:	602f      	str	r7, [r5, #0]
 8008dac:	e7b2      	b.n	8008d14 <__sflush_r+0x18>
 8008dae:	89a3      	ldrh	r3, [r4, #12]
 8008db0:	f043 0340 	orr.w	r3, r3, #64	; 0x40
 8008db4:	81a3      	strh	r3, [r4, #12]
 8008db6:	e7ae      	b.n	8008d16 <__sflush_r+0x1a>
 8008db8:	690f      	ldr	r7, [r1, #16]
 8008dba:	2f00      	cmp	r7, #0
 8008dbc:	d0aa      	beq.n	8008d14 <__sflush_r+0x18>
 8008dbe:	0793      	lsls	r3, r2, #30
 8008dc0:	bf18      	it	ne
 8008dc2:	2300      	movne	r3, #0
 8008dc4:	680e      	ldr	r6, [r1, #0]
 8008dc6:	bf08      	it	eq
 8008dc8:	694b      	ldreq	r3, [r1, #20]
 8008dca:	1bf6      	subs	r6, r6, r7
 8008dcc:	600f      	str	r7, [r1, #0]
 8008dce:	608b      	str	r3, [r1, #8]
 8008dd0:	2e00      	cmp	r6, #0
 8008dd2:	dd9f      	ble.n	8008d14 <__sflush_r+0x18>
 8008dd4:	4633      	mov	r3, r6
 8008dd6:	463a      	mov	r2, r7
 8008dd8:	4628      	mov	r0, r5
 8008dda:	6a21      	ldr	r1, [r4, #32]
 8008ddc:	f8d4 c028 	ldr.w	ip, [r4, #40]	; 0x28
 8008de0:	47e0      	blx	ip
 8008de2:	2800      	cmp	r0, #0
 8008de4:	dc06      	bgt.n	8008df4 <__sflush_r+0xf8>
 8008de6:	89a3      	ldrh	r3, [r4, #12]
 8008de8:	f04f 30ff 	mov.w	r0, #4294967295
 8008dec:	f043 0340 	orr.w	r3, r3, #64	; 0x40
 8008df0:	81a3      	strh	r3, [r4, #12]
 8008df2:	e790      	b.n	8008d16 <__sflush_r+0x1a>
 8008df4:	4407      	add	r7, r0
 8008df6:	1a36      	subs	r6, r6, r0
 8008df8:	e7ea      	b.n	8008dd0 <__sflush_r+0xd4>
 8008dfa:	bf00      	nop
 8008dfc:	20400001 	.word	0x20400001

08008e00 <_fflush_r>:
 8008e00:	b538      	push	{r3, r4, r5, lr}
 8008e02:	690b      	ldr	r3, [r1, #16]
 8008e04:	4605      	mov	r5, r0
 8008e06:	460c      	mov	r4, r1
 8008e08:	b913      	cbnz	r3, 8008e10 <_fflush_r+0x10>
 8008e0a:	2500      	movs	r5, #0
 8008e0c:	4628      	mov	r0, r5
 8008e0e:	bd38      	pop	{r3, r4, r5, pc}
 8008e10:	b118      	cbz	r0, 8008e1a <_fflush_r+0x1a>
 8008e12:	6983      	ldr	r3, [r0, #24]
 8008e14:	b90b      	cbnz	r3, 8008e1a <_fflush_r+0x1a>
 8008e16:	f000 f887 	bl	8008f28 <__sinit>
 8008e1a:	4b14      	ldr	r3, [pc, #80]	; (8008e6c <_fflush_r+0x6c>)
 8008e1c:	429c      	cmp	r4, r3
 8008e1e:	d11b      	bne.n	8008e58 <_fflush_r+0x58>
 8008e20:	686c      	ldr	r4, [r5, #4]
 8008e22:	f9b4 300c 	ldrsh.w	r3, [r4, #12]
 8008e26:	2b00      	cmp	r3, #0
 8008e28:	d0ef      	beq.n	8008e0a <_fflush_r+0xa>
 8008e2a:	6e62      	ldr	r2, [r4, #100]	; 0x64
 8008e2c:	07d0      	lsls	r0, r2, #31
 8008e2e:	d404      	bmi.n	8008e3a <_fflush_r+0x3a>
 8008e30:	0599      	lsls	r1, r3, #22
 8008e32:	d402      	bmi.n	8008e3a <_fflush_r+0x3a>
 8008e34:	6da0      	ldr	r0, [r4, #88]	; 0x58
 8008e36:	f000 f915 	bl	8009064 <__retarget_lock_acquire_recursive>
 8008e3a:	4628      	mov	r0, r5
 8008e3c:	4621      	mov	r1, r4
 8008e3e:	f7ff ff5d 	bl	8008cfc <__sflush_r>
 8008e42:	6e63      	ldr	r3, [r4, #100]	; 0x64
 8008e44:	4605      	mov	r5, r0
 8008e46:	07da      	lsls	r2, r3, #31
 8008e48:	d4e0      	bmi.n	8008e0c <_fflush_r+0xc>
 8008e4a:	89a3      	ldrh	r3, [r4, #12]
 8008e4c:	059b      	lsls	r3, r3, #22
 8008e4e:	d4dd      	bmi.n	8008e0c <_fflush_r+0xc>
 8008e50:	6da0      	ldr	r0, [r4, #88]	; 0x58
 8008e52:	f000 f908 	bl	8009066 <__retarget_lock_release_recursive>
 8008e56:	e7d9      	b.n	8008e0c <_fflush_r+0xc>
 8008e58:	4b05      	ldr	r3, [pc, #20]	; (8008e70 <_fflush_r+0x70>)
 8008e5a:	429c      	cmp	r4, r3
 8008e5c:	d101      	bne.n	8008e62 <_fflush_r+0x62>
 8008e5e:	68ac      	ldr	r4, [r5, #8]
 8008e60:	e7df      	b.n	8008e22 <_fflush_r+0x22>
 8008e62:	4b04      	ldr	r3, [pc, #16]	; (8008e74 <_fflush_r+0x74>)
 8008e64:	429c      	cmp	r4, r3
 8008e66:	bf08      	it	eq
 8008e68:	68ec      	ldreq	r4, [r5, #12]
 8008e6a:	e7da      	b.n	8008e22 <_fflush_r+0x22>
 8008e6c:	08009d4c 	.word	0x08009d4c
 8008e70:	08009d6c 	.word	0x08009d6c
 8008e74:	08009d2c 	.word	0x08009d2c

08008e78 <std>:
 8008e78:	2300      	movs	r3, #0
 8008e7a:	b510      	push	{r4, lr}
 8008e7c:	4604      	mov	r4, r0
 8008e7e:	e9c0 3300 	strd	r3, r3, [r0]
 8008e82:	e9c0 3304 	strd	r3, r3, [r0, #16]
 8008e86:	6083      	str	r3, [r0, #8]
 8008e88:	8181      	strh	r1, [r0, #12]
 8008e8a:	6643      	str	r3, [r0, #100]	; 0x64
 8008e8c:	81c2      	strh	r2, [r0, #14]
 8008e8e:	6183      	str	r3, [r0, #24]
 8008e90:	4619      	mov	r1, r3
 8008e92:	2208      	movs	r2, #8
 8008e94:	305c      	adds	r0, #92	; 0x5c
 8008e96:	f7fe fae7 	bl	8007468 <memset>
 8008e9a:	4b05      	ldr	r3, [pc, #20]	; (8008eb0 <std+0x38>)
 8008e9c:	6224      	str	r4, [r4, #32]
 8008e9e:	6263      	str	r3, [r4, #36]	; 0x24
 8008ea0:	4b04      	ldr	r3, [pc, #16]	; (8008eb4 <std+0x3c>)
 8008ea2:	62a3      	str	r3, [r4, #40]	; 0x28
 8008ea4:	4b04      	ldr	r3, [pc, #16]	; (8008eb8 <std+0x40>)
 8008ea6:	62e3      	str	r3, [r4, #44]	; 0x2c
 8008ea8:	4b04      	ldr	r3, [pc, #16]	; (8008ebc <std+0x44>)
 8008eaa:	6323      	str	r3, [r4, #48]	; 0x30
 8008eac:	bd10      	pop	{r4, pc}
 8008eae:	bf00      	nop
 8008eb0:	08007535 	.word	0x08007535
 8008eb4:	0800755b 	.word	0x0800755b
 8008eb8:	08007593 	.word	0x08007593
 8008ebc:	080075b7 	.word	0x080075b7

08008ec0 <_cleanup_r>:
 8008ec0:	4901      	ldr	r1, [pc, #4]	; (8008ec8 <_cleanup_r+0x8>)
 8008ec2:	f000 b8af 	b.w	8009024 <_fwalk_reent>
 8008ec6:	bf00      	nop
 8008ec8:	08008e01 	.word	0x08008e01

08008ecc <__sfmoreglue>:
 8008ecc:	2268      	movs	r2, #104	; 0x68
 8008ece:	b570      	push	{r4, r5, r6, lr}
 8008ed0:	1e4d      	subs	r5, r1, #1
 8008ed2:	4355      	muls	r5, r2
 8008ed4:	460e      	mov	r6, r1
 8008ed6:	f105 0174 	add.w	r1, r5, #116	; 0x74
 8008eda:	f7fe fd53 	bl	8007984 <_malloc_r>
 8008ede:	4604      	mov	r4, r0
 8008ee0:	b140      	cbz	r0, 8008ef4 <__sfmoreglue+0x28>
 8008ee2:	2100      	movs	r1, #0
 8008ee4:	e9c0 1600 	strd	r1, r6, [r0]
 8008ee8:	300c      	adds	r0, #12
 8008eea:	60a0      	str	r0, [r4, #8]
 8008eec:	f105 0268 	add.w	r2, r5, #104	; 0x68
 8008ef0:	f7fe faba 	bl	8007468 <memset>
 8008ef4:	4620      	mov	r0, r4
 8008ef6:	bd70      	pop	{r4, r5, r6, pc}

08008ef8 <__sfp_lock_acquire>:
 8008ef8:	4801      	ldr	r0, [pc, #4]	; (8008f00 <__sfp_lock_acquire+0x8>)
 8008efa:	f000 b8b3 	b.w	8009064 <__retarget_lock_acquire_recursive>
 8008efe:	bf00      	nop
 8008f00:	20002e81 	.word	0x20002e81

08008f04 <__sfp_lock_release>:
 8008f04:	4801      	ldr	r0, [pc, #4]	; (8008f0c <__sfp_lock_release+0x8>)
 8008f06:	f000 b8ae 	b.w	8009066 <__retarget_lock_release_recursive>
 8008f0a:	bf00      	nop
 8008f0c:	20002e81 	.word	0x20002e81

08008f10 <__sinit_lock_acquire>:
 8008f10:	4801      	ldr	r0, [pc, #4]	; (8008f18 <__sinit_lock_acquire+0x8>)
 8008f12:	f000 b8a7 	b.w	8009064 <__retarget_lock_acquire_recursive>
 8008f16:	bf00      	nop
 8008f18:	20002e82 	.word	0x20002e82

08008f1c <__sinit_lock_release>:
 8008f1c:	4801      	ldr	r0, [pc, #4]	; (8008f24 <__sinit_lock_release+0x8>)
 8008f1e:	f000 b8a2 	b.w	8009066 <__retarget_lock_release_recursive>
 8008f22:	bf00      	nop
 8008f24:	20002e82 	.word	0x20002e82

08008f28 <__sinit>:
 8008f28:	b510      	push	{r4, lr}
 8008f2a:	4604      	mov	r4, r0
 8008f2c:	f7ff fff0 	bl	8008f10 <__sinit_lock_acquire>
 8008f30:	69a3      	ldr	r3, [r4, #24]
 8008f32:	b11b      	cbz	r3, 8008f3c <__sinit+0x14>
 8008f34:	e8bd 4010 	ldmia.w	sp!, {r4, lr}
 8008f38:	f7ff bff0 	b.w	8008f1c <__sinit_lock_release>
 8008f3c:	e9c4 3312 	strd	r3, r3, [r4, #72]	; 0x48
 8008f40:	6523      	str	r3, [r4, #80]	; 0x50
 8008f42:	4b13      	ldr	r3, [pc, #76]	; (8008f90 <__sinit+0x68>)
 8008f44:	4a13      	ldr	r2, [pc, #76]	; (8008f94 <__sinit+0x6c>)
 8008f46:	681b      	ldr	r3, [r3, #0]
 8008f48:	62a2      	str	r2, [r4, #40]	; 0x28
 8008f4a:	42a3      	cmp	r3, r4
 8008f4c:	bf08      	it	eq
 8008f4e:	2301      	moveq	r3, #1
 8008f50:	4620      	mov	r0, r4
 8008f52:	bf08      	it	eq
 8008f54:	61a3      	streq	r3, [r4, #24]
 8008f56:	f000 f81f 	bl	8008f98 <__sfp>
 8008f5a:	6060      	str	r0, [r4, #4]
 8008f5c:	4620      	mov	r0, r4
 8008f5e:	f000 f81b 	bl	8008f98 <__sfp>
 8008f62:	60a0      	str	r0, [r4, #8]
 8008f64:	4620      	mov	r0, r4
 8008f66:	f000 f817 	bl	8008f98 <__sfp>
 8008f6a:	2200      	movs	r2, #0
 8008f6c:	2104      	movs	r1, #4
 8008f6e:	60e0      	str	r0, [r4, #12]
 8008f70:	6860      	ldr	r0, [r4, #4]
 8008f72:	f7ff ff81 	bl	8008e78 <std>
 8008f76:	2201      	movs	r2, #1
 8008f78:	2109      	movs	r1, #9
 8008f7a:	68a0      	ldr	r0, [r4, #8]
 8008f7c:	f7ff ff7c 	bl	8008e78 <std>
 8008f80:	2202      	movs	r2, #2
 8008f82:	2112      	movs	r1, #18
 8008f84:	68e0      	ldr	r0, [r4, #12]
 8008f86:	f7ff ff77 	bl	8008e78 <std>
 8008f8a:	2301      	movs	r3, #1
 8008f8c:	61a3      	str	r3, [r4, #24]
 8008f8e:	e7d1      	b.n	8008f34 <__sinit+0xc>
 8008f90:	08009c28 	.word	0x08009c28
 8008f94:	08008ec1 	.word	0x08008ec1

08008f98 <__sfp>:
 8008f98:	b5f8      	push	{r3, r4, r5, r6, r7, lr}
 8008f9a:	4607      	mov	r7, r0
 8008f9c:	f7ff ffac 	bl	8008ef8 <__sfp_lock_acquire>
 8008fa0:	4b1e      	ldr	r3, [pc, #120]	; (800901c <__sfp+0x84>)
 8008fa2:	681e      	ldr	r6, [r3, #0]
 8008fa4:	69b3      	ldr	r3, [r6, #24]
 8008fa6:	b913      	cbnz	r3, 8008fae <__sfp+0x16>
 8008fa8:	4630      	mov	r0, r6
 8008faa:	f7ff ffbd 	bl	8008f28 <__sinit>
 8008fae:	3648      	adds	r6, #72	; 0x48
 8008fb0:	e9d6 3401 	ldrd	r3, r4, [r6, #4]
 8008fb4:	3b01      	subs	r3, #1
 8008fb6:	d503      	bpl.n	8008fc0 <__sfp+0x28>
 8008fb8:	6833      	ldr	r3, [r6, #0]
 8008fba:	b30b      	cbz	r3, 8009000 <__sfp+0x68>
 8008fbc:	6836      	ldr	r6, [r6, #0]
 8008fbe:	e7f7      	b.n	8008fb0 <__sfp+0x18>
 8008fc0:	f9b4 500c 	ldrsh.w	r5, [r4, #12]
 8008fc4:	b9d5      	cbnz	r5, 8008ffc <__sfp+0x64>
 8008fc6:	4b16      	ldr	r3, [pc, #88]	; (8009020 <__sfp+0x88>)
 8008fc8:	f104 0058 	add.w	r0, r4, #88	; 0x58
 8008fcc:	60e3      	str	r3, [r4, #12]
 8008fce:	6665      	str	r5, [r4, #100]	; 0x64
 8008fd0:	f000 f847 	bl	8009062 <__retarget_lock_init_recursive>
 8008fd4:	f7ff ff96 	bl	8008f04 <__sfp_lock_release>
 8008fd8:	2208      	movs	r2, #8
 8008fda:	4629      	mov	r1, r5
 8008fdc:	e9c4 5501 	strd	r5, r5, [r4, #4]
 8008fe0:	e9c4 5504 	strd	r5, r5, [r4, #16]
 8008fe4:	6025      	str	r5, [r4, #0]
 8008fe6:	61a5      	str	r5, [r4, #24]
 8008fe8:	f104 005c 	add.w	r0, r4, #92	; 0x5c
 8008fec:	f7fe fa3c 	bl	8007468 <memset>
 8008ff0:	e9c4 550d 	strd	r5, r5, [r4, #52]	; 0x34
 8008ff4:	e9c4 5512 	strd	r5, r5, [r4, #72]	; 0x48
 8008ff8:	4620      	mov	r0, r4
 8008ffa:	bdf8      	pop	{r3, r4, r5, r6, r7, pc}
 8008ffc:	3468      	adds	r4, #104	; 0x68
 8008ffe:	e7d9      	b.n	8008fb4 <__sfp+0x1c>
 8009000:	2104      	movs	r1, #4
 8009002:	4638      	mov	r0, r7
 8009004:	f7ff ff62 	bl	8008ecc <__sfmoreglue>
 8009008:	4604      	mov	r4, r0
 800900a:	6030      	str	r0, [r6, #0]
 800900c:	2800      	cmp	r0, #0
 800900e:	d1d5      	bne.n	8008fbc <__sfp+0x24>
 8009010:	f7ff ff78 	bl	8008f04 <__sfp_lock_release>
 8009014:	230c      	movs	r3, #12
 8009016:	603b      	str	r3, [r7, #0]
 8009018:	e7ee      	b.n	8008ff8 <__sfp+0x60>
 800901a:	bf00      	nop
 800901c:	08009c28 	.word	0x08009c28
 8009020:	ffff0001 	.word	0xffff0001

08009024 <_fwalk_reent>:
 8009024:	e92d 43f8 	stmdb	sp!, {r3, r4, r5, r6, r7, r8, r9, lr}
 8009028:	4606      	mov	r6, r0
 800902a:	4688      	mov	r8, r1
 800902c:	2700      	movs	r7, #0
 800902e:	f100 0448 	add.w	r4, r0, #72	; 0x48
 8009032:	e9d4 9501 	ldrd	r9, r5, [r4, #4]
 8009036:	f1b9 0901 	subs.w	r9, r9, #1
 800903a:	d505      	bpl.n	8009048 <_fwalk_reent+0x24>
 800903c:	6824      	ldr	r4, [r4, #0]
 800903e:	2c00      	cmp	r4, #0
 8009040:	d1f7      	bne.n	8009032 <_fwalk_reent+0xe>
 8009042:	4638      	mov	r0, r7
 8009044:	e8bd 83f8 	ldmia.w	sp!, {r3, r4, r5, r6, r7, r8, r9, pc}
 8009048:	89ab      	ldrh	r3, [r5, #12]
 800904a:	2b01      	cmp	r3, #1
 800904c:	d907      	bls.n	800905e <_fwalk_reent+0x3a>
 800904e:	f9b5 300e 	ldrsh.w	r3, [r5, #14]
 8009052:	3301      	adds	r3, #1
 8009054:	d003      	beq.n	800905e <_fwalk_reent+0x3a>
 8009056:	4629      	mov	r1, r5
 8009058:	4630      	mov	r0, r6
 800905a:	47c0      	blx	r8
 800905c:	4307      	orrs	r7, r0
 800905e:	3568      	adds	r5, #104	; 0x68
 8009060:	e7e9      	b.n	8009036 <_fwalk_reent+0x12>

08009062 <__retarget_lock_init_recursive>:
 8009062:	4770      	bx	lr

08009064 <__retarget_lock_acquire_recursive>:
 8009064:	4770      	bx	lr

08009066 <__retarget_lock_release_recursive>:
 8009066:	4770      	bx	lr

08009068 <__swhatbuf_r>:
 8009068:	b570      	push	{r4, r5, r6, lr}
 800906a:	460e      	mov	r6, r1
 800906c:	f9b1 100e 	ldrsh.w	r1, [r1, #14]
 8009070:	4614      	mov	r4, r2
 8009072:	2900      	cmp	r1, #0
 8009074:	461d      	mov	r5, r3
 8009076:	b096      	sub	sp, #88	; 0x58
 8009078:	da08      	bge.n	800908c <__swhatbuf_r+0x24>
 800907a:	2200      	movs	r2, #0
 800907c:	f9b6 300c 	ldrsh.w	r3, [r6, #12]
 8009080:	602a      	str	r2, [r5, #0]
 8009082:	061a      	lsls	r2, r3, #24
 8009084:	d410      	bmi.n	80090a8 <__swhatbuf_r+0x40>
 8009086:	f44f 6380 	mov.w	r3, #1024	; 0x400
 800908a:	e00e      	b.n	80090aa <__swhatbuf_r+0x42>
 800908c:	466a      	mov	r2, sp
 800908e:	f000 f8df 	bl	8009250 <_fstat_r>
 8009092:	2800      	cmp	r0, #0
 8009094:	dbf1      	blt.n	800907a <__swhatbuf_r+0x12>
 8009096:	9a01      	ldr	r2, [sp, #4]
 8009098:	f402 4270 	and.w	r2, r2, #61440	; 0xf000
 800909c:	f5a2 5300 	sub.w	r3, r2, #8192	; 0x2000
 80090a0:	425a      	negs	r2, r3
 80090a2:	415a      	adcs	r2, r3
 80090a4:	602a      	str	r2, [r5, #0]
 80090a6:	e7ee      	b.n	8009086 <__swhatbuf_r+0x1e>
 80090a8:	2340      	movs	r3, #64	; 0x40
 80090aa:	2000      	movs	r0, #0
 80090ac:	6023      	str	r3, [r4, #0]
 80090ae:	b016      	add	sp, #88	; 0x58
 80090b0:	bd70      	pop	{r4, r5, r6, pc}
	...

080090b4 <__smakebuf_r>:
 80090b4:	898b      	ldrh	r3, [r1, #12]
 80090b6:	b573      	push	{r0, r1, r4, r5, r6, lr}
 80090b8:	079d      	lsls	r5, r3, #30
 80090ba:	4606      	mov	r6, r0
 80090bc:	460c      	mov	r4, r1
 80090be:	d507      	bpl.n	80090d0 <__smakebuf_r+0x1c>
 80090c0:	f104 0347 	add.w	r3, r4, #71	; 0x47
 80090c4:	6023      	str	r3, [r4, #0]
 80090c6:	6123      	str	r3, [r4, #16]
 80090c8:	2301      	movs	r3, #1
 80090ca:	6163      	str	r3, [r4, #20]
 80090cc:	b002      	add	sp, #8
 80090ce:	bd70      	pop	{r4, r5, r6, pc}
 80090d0:	466a      	mov	r2, sp
 80090d2:	ab01      	add	r3, sp, #4
 80090d4:	f7ff ffc8 	bl	8009068 <__swhatbuf_r>
 80090d8:	9900      	ldr	r1, [sp, #0]
 80090da:	4605      	mov	r5, r0
 80090dc:	4630      	mov	r0, r6
 80090de:	f7fe fc51 	bl	8007984 <_malloc_r>
 80090e2:	b948      	cbnz	r0, 80090f8 <__smakebuf_r+0x44>
 80090e4:	f9b4 300c 	ldrsh.w	r3, [r4, #12]
 80090e8:	059a      	lsls	r2, r3, #22
 80090ea:	d4ef      	bmi.n	80090cc <__smakebuf_r+0x18>
 80090ec:	f023 0303 	bic.w	r3, r3, #3
 80090f0:	f043 0302 	orr.w	r3, r3, #2
 80090f4:	81a3      	strh	r3, [r4, #12]
 80090f6:	e7e3      	b.n	80090c0 <__smakebuf_r+0xc>
 80090f8:	4b0d      	ldr	r3, [pc, #52]	; (8009130 <__smakebuf_r+0x7c>)
 80090fa:	62b3      	str	r3, [r6, #40]	; 0x28
 80090fc:	89a3      	ldrh	r3, [r4, #12]
 80090fe:	6020      	str	r0, [r4, #0]
 8009100:	f043 0380 	orr.w	r3, r3, #128	; 0x80
 8009104:	81a3      	strh	r3, [r4, #12]
 8009106:	9b00      	ldr	r3, [sp, #0]
 8009108:	6120      	str	r0, [r4, #16]
 800910a:	6163      	str	r3, [r4, #20]
 800910c:	9b01      	ldr	r3, [sp, #4]
 800910e:	b15b      	cbz	r3, 8009128 <__smakebuf_r+0x74>
 8009110:	4630      	mov	r0, r6
 8009112:	f9b4 100e 	ldrsh.w	r1, [r4, #14]
 8009116:	f000 f8ad 	bl	8009274 <_isatty_r>
 800911a:	b128      	cbz	r0, 8009128 <__smakebuf_r+0x74>
 800911c:	89a3      	ldrh	r3, [r4, #12]
 800911e:	f023 0303 	bic.w	r3, r3, #3
 8009122:	f043 0301 	orr.w	r3, r3, #1
 8009126:	81a3      	strh	r3, [r4, #12]
 8009128:	89a0      	ldrh	r0, [r4, #12]
 800912a:	4305      	orrs	r5, r0
 800912c:	81a5      	strh	r5, [r4, #12]
 800912e:	e7cd      	b.n	80090cc <__smakebuf_r+0x18>
 8009130:	08008ec1 	.word	0x08008ec1

08009134 <memchr>:
 8009134:	4603      	mov	r3, r0
 8009136:	b510      	push	{r4, lr}
 8009138:	b2c9      	uxtb	r1, r1
 800913a:	4402      	add	r2, r0
 800913c:	4293      	cmp	r3, r2
 800913e:	4618      	mov	r0, r3
 8009140:	d101      	bne.n	8009146 <memchr+0x12>
 8009142:	2000      	movs	r0, #0
 8009144:	e003      	b.n	800914e <memchr+0x1a>
 8009146:	7804      	ldrb	r4, [r0, #0]
 8009148:	3301      	adds	r3, #1
 800914a:	428c      	cmp	r4, r1
 800914c:	d1f6      	bne.n	800913c <memchr+0x8>
 800914e:	bd10      	pop	{r4, pc}

08009150 <__malloc_lock>:
 8009150:	4801      	ldr	r0, [pc, #4]	; (8009158 <__malloc_lock+0x8>)
 8009152:	f7ff bf87 	b.w	8009064 <__retarget_lock_acquire_recursive>
 8009156:	bf00      	nop
 8009158:	20002e80 	.word	0x20002e80

0800915c <__malloc_unlock>:
 800915c:	4801      	ldr	r0, [pc, #4]	; (8009164 <__malloc_unlock+0x8>)
 800915e:	f7ff bf82 	b.w	8009066 <__retarget_lock_release_recursive>
 8009162:	bf00      	nop
 8009164:	20002e80 	.word	0x20002e80

08009168 <_realloc_r>:
 8009168:	e92d 41f0 	stmdb	sp!, {r4, r5, r6, r7, r8, lr}
 800916c:	4680      	mov	r8, r0
 800916e:	4614      	mov	r4, r2
 8009170:	460e      	mov	r6, r1
 8009172:	b921      	cbnz	r1, 800917e <_realloc_r+0x16>
 8009174:	4611      	mov	r1, r2
 8009176:	e8bd 41f0 	ldmia.w	sp!, {r4, r5, r6, r7, r8, lr}
 800917a:	f7fe bc03 	b.w	8007984 <_malloc_r>
 800917e:	b92a      	cbnz	r2, 800918c <_realloc_r+0x24>
 8009180:	f7fe fb98 	bl	80078b4 <_free_r>
 8009184:	4625      	mov	r5, r4
 8009186:	4628      	mov	r0, r5
 8009188:	e8bd 81f0 	ldmia.w	sp!, {r4, r5, r6, r7, r8, pc}
 800918c:	f000 f882 	bl	8009294 <_malloc_usable_size_r>
 8009190:	4284      	cmp	r4, r0
 8009192:	4607      	mov	r7, r0
 8009194:	d802      	bhi.n	800919c <_realloc_r+0x34>
 8009196:	ebb4 0f50 	cmp.w	r4, r0, lsr #1
 800919a:	d812      	bhi.n	80091c2 <_realloc_r+0x5a>
 800919c:	4621      	mov	r1, r4
 800919e:	4640      	mov	r0, r8
 80091a0:	f7fe fbf0 	bl	8007984 <_malloc_r>
 80091a4:	4605      	mov	r5, r0
 80091a6:	2800      	cmp	r0, #0
 80091a8:	d0ed      	beq.n	8009186 <_realloc_r+0x1e>
 80091aa:	42bc      	cmp	r4, r7
 80091ac:	4622      	mov	r2, r4
 80091ae:	4631      	mov	r1, r6
 80091b0:	bf28      	it	cs
 80091b2:	463a      	movcs	r2, r7
 80091b4:	f7fe f930 	bl	8007418 <memcpy>
 80091b8:	4631      	mov	r1, r6
 80091ba:	4640      	mov	r0, r8
 80091bc:	f7fe fb7a 	bl	80078b4 <_free_r>
 80091c0:	e7e1      	b.n	8009186 <_realloc_r+0x1e>
 80091c2:	4635      	mov	r5, r6
 80091c4:	e7df      	b.n	8009186 <_realloc_r+0x1e>

080091c6 <_raise_r>:
 80091c6:	291f      	cmp	r1, #31
 80091c8:	b538      	push	{r3, r4, r5, lr}
 80091ca:	4604      	mov	r4, r0
 80091cc:	460d      	mov	r5, r1
 80091ce:	d904      	bls.n	80091da <_raise_r+0x14>
 80091d0:	2316      	movs	r3, #22
 80091d2:	6003      	str	r3, [r0, #0]
 80091d4:	f04f 30ff 	mov.w	r0, #4294967295
 80091d8:	bd38      	pop	{r3, r4, r5, pc}
 80091da:	6c42      	ldr	r2, [r0, #68]	; 0x44
 80091dc:	b112      	cbz	r2, 80091e4 <_raise_r+0x1e>
 80091de:	f852 3021 	ldr.w	r3, [r2, r1, lsl #2]
 80091e2:	b94b      	cbnz	r3, 80091f8 <_raise_r+0x32>
 80091e4:	4620      	mov	r0, r4
 80091e6:	f000 f831 	bl	800924c <_getpid_r>
 80091ea:	462a      	mov	r2, r5
 80091ec:	4601      	mov	r1, r0
 80091ee:	4620      	mov	r0, r4
 80091f0:	e8bd 4038 	ldmia.w	sp!, {r3, r4, r5, lr}
 80091f4:	f000 b818 	b.w	8009228 <_kill_r>
 80091f8:	2b01      	cmp	r3, #1
 80091fa:	d00a      	beq.n	8009212 <_raise_r+0x4c>
 80091fc:	1c59      	adds	r1, r3, #1
 80091fe:	d103      	bne.n	8009208 <_raise_r+0x42>
 8009200:	2316      	movs	r3, #22
 8009202:	6003      	str	r3, [r0, #0]
 8009204:	2001      	movs	r0, #1
 8009206:	e7e7      	b.n	80091d8 <_raise_r+0x12>
 8009208:	2400      	movs	r4, #0
 800920a:	4628      	mov	r0, r5
 800920c:	f842 4025 	str.w	r4, [r2, r5, lsl #2]
 8009210:	4798      	blx	r3
 8009212:	2000      	movs	r0, #0
 8009214:	e7e0      	b.n	80091d8 <_raise_r+0x12>
	...

08009218 <raise>:
 8009218:	4b02      	ldr	r3, [pc, #8]	; (8009224 <raise+0xc>)
 800921a:	4601      	mov	r1, r0
 800921c:	6818      	ldr	r0, [r3, #0]
 800921e:	f7ff bfd2 	b.w	80091c6 <_raise_r>
 8009222:	bf00      	nop
 8009224:	20000228 	.word	0x20000228

08009228 <_kill_r>:
 8009228:	b538      	push	{r3, r4, r5, lr}
 800922a:	2300      	movs	r3, #0
 800922c:	4d06      	ldr	r5, [pc, #24]	; (8009248 <_kill_r+0x20>)
 800922e:	4604      	mov	r4, r0
 8009230:	4608      	mov	r0, r1
 8009232:	4611      	mov	r1, r2
 8009234:	602b      	str	r3, [r5, #0]
 8009236:	f7f7 fa33 	bl	80006a0 <_kill>
 800923a:	1c43      	adds	r3, r0, #1
 800923c:	d102      	bne.n	8009244 <_kill_r+0x1c>
 800923e:	682b      	ldr	r3, [r5, #0]
 8009240:	b103      	cbz	r3, 8009244 <_kill_r+0x1c>
 8009242:	6023      	str	r3, [r4, #0]
 8009244:	bd38      	pop	{r3, r4, r5, pc}
 8009246:	bf00      	nop
 8009248:	20002e7c 	.word	0x20002e7c

0800924c <_getpid_r>:
 800924c:	f7f7 ba26 	b.w	800069c <_getpid>

08009250 <_fstat_r>:
 8009250:	b538      	push	{r3, r4, r5, lr}
 8009252:	2300      	movs	r3, #0
 8009254:	4d06      	ldr	r5, [pc, #24]	; (8009270 <_fstat_r+0x20>)
 8009256:	4604      	mov	r4, r0
 8009258:	4608      	mov	r0, r1
 800925a:	4611      	mov	r1, r2
 800925c:	602b      	str	r3, [r5, #0]
 800925e:	f7f7 fa4c 	bl	80006fa <_fstat>
 8009262:	1c43      	adds	r3, r0, #1
 8009264:	d102      	bne.n	800926c <_fstat_r+0x1c>
 8009266:	682b      	ldr	r3, [r5, #0]
 8009268:	b103      	cbz	r3, 800926c <_fstat_r+0x1c>
 800926a:	6023      	str	r3, [r4, #0]
 800926c:	bd38      	pop	{r3, r4, r5, pc}
 800926e:	bf00      	nop
 8009270:	20002e7c 	.word	0x20002e7c

08009274 <_isatty_r>:
 8009274:	b538      	push	{r3, r4, r5, lr}
 8009276:	2300      	movs	r3, #0
 8009278:	4d05      	ldr	r5, [pc, #20]	; (8009290 <_isatty_r+0x1c>)
 800927a:	4604      	mov	r4, r0
 800927c:	4608      	mov	r0, r1
 800927e:	602b      	str	r3, [r5, #0]
 8009280:	f7f7 fa40 	bl	8000704 <_isatty>
 8009284:	1c43      	adds	r3, r0, #1
 8009286:	d102      	bne.n	800928e <_isatty_r+0x1a>
 8009288:	682b      	ldr	r3, [r5, #0]
 800928a:	b103      	cbz	r3, 800928e <_isatty_r+0x1a>
 800928c:	6023      	str	r3, [r4, #0]
 800928e:	bd38      	pop	{r3, r4, r5, pc}
 8009290:	20002e7c 	.word	0x20002e7c

08009294 <_malloc_usable_size_r>:
 8009294:	f851 3c04 	ldr.w	r3, [r1, #-4]
 8009298:	1f18      	subs	r0, r3, #4
 800929a:	2b00      	cmp	r3, #0
 800929c:	bfbc      	itt	lt
 800929e:	580b      	ldrlt	r3, [r1, r0]
 80092a0:	18c0      	addlt	r0, r0, r3
 80092a2:	4770      	bx	lr

080092a4 <_init>:
 80092a4:	b5f8      	push	{r3, r4, r5, r6, r7, lr}
 80092a6:	bf00      	nop
 80092a8:	bcf8      	pop	{r3, r4, r5, r6, r7}
 80092aa:	bc08      	pop	{r3}
 80092ac:	469e      	mov	lr, r3
 80092ae:	4770      	bx	lr

080092b0 <_fini>:
 80092b0:	b5f8      	push	{r3, r4, r5, r6, r7, lr}
 80092b2:	bf00      	nop
 80092b4:	bcf8      	pop	{r3, r4, r5, r6, r7}
 80092b6:	bc08      	pop	{r3}
 80092b8:	469e      	mov	lr, r3
 80092ba:	4770      	bx	lr
